ARM GAS  /tmp/ccsJuLey.s 			page 1


   1              		.cpu cortex-m7
   2              		.eabi_attribute 27, 1	@ Tag_ABI_HardFP_use
   3              		.eabi_attribute 28, 1	@ Tag_ABI_VFP_args
   4              		.eabi_attribute 20, 1	@ Tag_ABI_FP_denormal
   5              		.eabi_attribute 21, 1	@ Tag_ABI_FP_exceptions
   6              		.eabi_attribute 23, 3	@ Tag_ABI_FP_number_model
   7              		.eabi_attribute 24, 1	@ Tag_ABI_align8_needed
   8              		.eabi_attribute 25, 1	@ Tag_ABI_align8_preserved
   9              		.eabi_attribute 26, 1	@ Tag_ABI_enum_size
  10              		.eabi_attribute 30, 2	@ Tag_ABI_optimization_goals
  11              		.eabi_attribute 34, 1	@ Tag_CPU_unaligned_access
  12              		.eabi_attribute 18, 4	@ Tag_ABI_PCS_wchar_t
  13              		.file	"lifecycle.c"
  14              	@ GNU C17 (15:10.3-2021.07-4) version 10.3.1 20210621 (release) (arm-none-eabi)
  15              	@	compiled by GNU C version 11.2.0, GMP version 6.2.1, MPFR version 4.1.0, MPC version 1.2.1, isl v
  16              	
  17              	@ GGC heuristics: --param ggc-min-expand=100 --param ggc-min-heapsize=131072
  18              	@ options passed:  -I . -I .
  19              	@ -I /home/mchristensen/src/PlaydateSDK-2.2.0/C_API
  20              	@ -imultilib thumb/v7e-m+fp/hard -MD build/src/pdantler/lifecycle.d
  21              	@ -MF build/dep/lifecycle.o.d -MP -MQ build/src/pdantler/lifecycle.o
  22              	@ -D__USES_INITFINI__ -D __FPU_USED=1 -D TARGET_PLAYDATE=1
  23              	@ -D TARGET_EXTENSION=1 src/pdantler/lifecycle.c -mthumb -mcpu=cortex-m7
  24              	@ -mfloat-abi=hard -mfpu=fpv5-sp-d16 -mword-relocations
  25              	@ -mlibarch=armv7e-m+fpv5 -march=armv7e-m+fpv5
  26              	@ -auxbase-strip build/src/pdantler/lifecycle.o -g3 -gdwarf-2 -O2 -Wall
  27              	@ -Wno-unused -Wstrict-prototypes -Wno-unknown-pragmas -Wdouble-promotion
  28              	@ -falign-functions=16 -fomit-frame-pointer -fverbose-asm -fno-common
  29              	@ -ffunction-sections -fdata-sections
  30              	@ options enabled:  -faggressive-loop-optimizations -falign-functions
  31              	@ -falign-jumps -falign-labels -falign-loops -fallocation-dce
  32              	@ -fauto-inc-dec -fbranch-count-reg -fcaller-saves
  33              	@ -fcombine-stack-adjustments -fcompare-elim -fcprop-registers
  34              	@ -fcrossjumping -fcse-follow-jumps -fdata-sections -fdefer-pop
  35              	@ -fdelete-null-pointer-checks -fdevirtualize -fdevirtualize-speculatively
  36              	@ -fdwarf2-cfi-asm -fearly-inlining -feliminate-unused-debug-symbols
  37              	@ -feliminate-unused-debug-types -fexpensive-optimizations
  38              	@ -fforward-propagate -ffp-int-builtin-inexact -ffunction-cse
  39              	@ -ffunction-sections -fgcse -fgcse-lm -fgnu-unique
  40              	@ -fguess-branch-probability -fhoist-adjacent-loads -fident -fif-conversion
  41              	@ -fif-conversion2 -findirect-inlining -finline -finline-atomics
  42              	@ -finline-functions -finline-functions-called-once
  43              	@ -finline-small-functions -fipa-bit-cp -fipa-cp -fipa-icf
  44              	@ -fipa-icf-functions -fipa-icf-variables -fipa-profile -fipa-pure-const
  45              	@ -fipa-ra -fipa-reference -fipa-reference-addressable -fipa-sra
  46              	@ -fipa-stack-alignment -fipa-vrp -fira-hoist-pressure
  47              	@ -fira-share-save-slots -fira-share-spill-slots
  48              	@ -fisolate-erroneous-paths-dereference -fivopts -fkeep-static-consts
  49              	@ -fleading-underscore -flifetime-dse -flra-remat -fmath-errno
  50              	@ -fmerge-constants -fmerge-debug-strings -fmove-loop-invariants
  51              	@ -fomit-frame-pointer -foptimize-sibling-calls -foptimize-strlen
  52              	@ -fpartial-inlining -fpeephole -fpeephole2 -fplt -fprefetch-loop-arrays
  53              	@ -freg-struct-return -freorder-blocks -freorder-functions
  54              	@ -frerun-cse-after-loop -fsched-critical-path-heuristic
  55              	@ -fsched-dep-count-heuristic -fsched-group-heuristic -fsched-interblock
  56              	@ -fsched-last-insn-heuristic -fsched-pressure -fsched-rank-heuristic
  57              	@ -fsched-spec -fsched-spec-insn-heuristic -fsched-stalled-insns-dep
ARM GAS  /tmp/ccsJuLey.s 			page 2


  58              	@ -fschedule-insns -fschedule-insns2 -fsection-anchors
  59              	@ -fsemantic-interposition -fshow-column -fshrink-wrap
  60              	@ -fshrink-wrap-separate -fsigned-zeros -fsplit-ivs-in-unroller
  61              	@ -fsplit-wide-types -fssa-backprop -fssa-phiopt -fstdarg-opt
  62              	@ -fstore-merging -fstrict-aliasing -fstrict-volatile-bitfields
  63              	@ -fsync-libcalls -fthread-jumps -ftoplevel-reorder -ftrapping-math
  64              	@ -ftree-bit-ccp -ftree-builtin-call-dce -ftree-ccp -ftree-ch
  65              	@ -ftree-coalesce-vars -ftree-copy-prop -ftree-cselim -ftree-dce
  66              	@ -ftree-dominator-opts -ftree-dse -ftree-forwprop -ftree-fre
  67              	@ -ftree-loop-distribute-patterns -ftree-loop-if-convert -ftree-loop-im
  68              	@ -ftree-loop-ivcanon -ftree-loop-optimize -ftree-parallelize-loops=
  69              	@ -ftree-phiprop -ftree-pre -ftree-pta -ftree-reassoc -ftree-scev-cprop
  70              	@ -ftree-sink -ftree-slsr -ftree-sra -ftree-switch-conversion
  71              	@ -ftree-tail-merge -ftree-ter -ftree-vrp -funit-at-a-time -fvar-tracking
  72              	@ -fvar-tracking-assignments -fverbose-asm -fzero-initialized-in-bss
  73              	@ -masm-syntax-unified -mbe32 -mlittle-endian -mpic-data-is-text-relative
  74              	@ -msched-prolog -mthumb -munaligned-access -mvectorize-with-neon-quad
  75              	@ -mword-relocations
  76              	
  77              		.text
  78              	.Ltext0:
  79              		.cfi_sections	.debug_frame
  80              		.section	.rodata.pdantler_switch_to_scene.str1.4,"aMS",%progbits,1
  81              		.align	2
  82              	.LC0:
  83 0000 6C696665 		.ascii	"lifecycle.c: switching to scene %d\000"
  83      6379636C 
  83      652E633A 
  83      20737769 
  83      74636869 
  84 0023 00       		.align	2
  85              	.LC1:
  86 0024 7064616E 		.ascii	"pdantler_switch_to_scene: ignored request to switch"
  86      746C6572 
  86      5F737769 
  86      7463685F 
  86      746F5F73 
  87 0057 20746F20 		.ascii	" to current scene.\000"
  87      63757272 
  87      656E7420 
  87      7363656E 
  87      652E00
  88 006a 0000     		.align	2
  89              	.LC2:
  90 006c 6C696665 		.ascii	"lifecycle.c: exiting scene 'game'\000"
  90      6379636C 
  90      652E633A 
  90      20657869 
  90      74696E67 
  91 008e 0000     		.align	2
  92              	.LC3:
  93 0090 6C696665 		.ascii	"lifecycle.c: .... hiding sprite 'background_sprite'"
  93      6379636C 
  93      652E633A 
  93      202E2E2E 
  93      2E206869 
  94 00c3 00       		.ascii	"\000"
ARM GAS  /tmp/ccsJuLey.s 			page 3


  95              		.align	2
  96              	.LC4:
  97 00c4 6C696665 		.ascii	"lifecycle.c: .... hiding sprite 'bird_sprite'\000"
  97      6379636C 
  97      652E633A 
  97      202E2E2E 
  97      2E206869 
  98 00f2 0000     		.align	2
  99              	.LC5:
 100 00f4 6C696665 		.ascii	"lifecycle.c: .... hiding sprite 'speech_bubble_spri"
 100      6379636C 
 100      652E633A 
 100      202E2E2E 
 100      2E206869 
 101 0127 74652700 		.ascii	"te'\000"
 102 012b 00       		.align	2
 103              	.LC6:
 104 012c 6C696665 		.ascii	"lifecycle.c: entering scene 'game'\000"
 104      6379636C 
 104      652E633A 
 104      20656E74 
 104      6572696E 
 105 014f 00       		.align	2
 106              	.LC7:
 107 0150 6C696665 		.ascii	"lifecycle.c: .... showing sprite 'background_sprite"
 107      6379636C 
 107      652E633A 
 107      202E2E2E 
 107      2E207368 
 108 0183 2700     		.ascii	"'\000"
 109 0185 000000   		.align	2
 110              	.LC8:
 111 0188 6C696665 		.ascii	"lifecycle.c: .... showing sprite 'bird_sprite'\000"
 111      6379636C 
 111      652E633A 
 111      202E2E2E 
 111      2E207368 
 112 01b7 00       		.align	2
 113              	.LC9:
 114 01b8 7064616E 		.ascii	"pdantler_switch_to_scene: unhandled scene on enter."
 114      746C6572 
 114      5F737769 
 114      7463685F 
 114      746F5F73 
 115 01eb 00       		.ascii	"\000"
 116              		.section	.text.pdantler_switch_to_scene,"ax",%progbits
 117              		.align	1
 118              		.p2align 4,,15
 119              		.global	pdantler_switch_to_scene
 120              		.arch armv7e-m
 121              		.syntax unified
 122              		.thumb
 123              		.thumb_func
 124              		.fpu fpv5-sp-d16
 125              		.type	pdantler_switch_to_scene, %function
 126              	pdantler_switch_to_scene:
 127              	.LVL0:
ARM GAS  /tmp/ccsJuLey.s 			page 4


 128              	.LFB37:
 129              		.file 1 "src/pdantler/lifecycle.c"
   1:src/pdantler/lifecycle.c **** /** This file is managed by pdantler.
   2:src/pdantler/lifecycle.c **** 
   3:src/pdantler/lifecycle.c ****     Any changes you make to it will be overwritten next time pdantler is run.
   4:src/pdantler/lifecycle.c **** */
   5:src/pdantler/lifecycle.c **** 
   6:src/pdantler/lifecycle.c **** #include "../common.h"
   7:src/pdantler/lifecycle.c **** #include "src/scenes/scene_game.h"
   8:src/pdantler/lifecycle.c **** 
   9:src/pdantler/lifecycle.c **** static void init_game_game(GameContext *game, GameAssets *assets) {
  10:src/pdantler/lifecycle.c ****   PlaydateAPI *pd = game->pd;
  11:src/pdantler/lifecycle.c ****   const char *outerr = NULL;
  12:src/pdantler/lifecycle.c **** 
  13:src/pdantler/lifecycle.c ****   assets->speech_bubble_base_image =
  14:src/pdantler/lifecycle.c ****       pd->graphics->loadBitmap("assets/speech_bubble.png", &outerr);
  15:src/pdantler/lifecycle.c ****   if (outerr) {
  16:src/pdantler/lifecycle.c ****     pdlogger_error("init_game_game: error loading image speech_bubble_base. %s",
  17:src/pdantler/lifecycle.c ****                    outerr);
  18:src/pdantler/lifecycle.c ****   }
  19:src/pdantler/lifecycle.c **** 
  20:src/pdantler/lifecycle.c ****   assets->background_image =
  21:src/pdantler/lifecycle.c ****       pd->graphics->loadBitmap("assets/background.png", &outerr);
  22:src/pdantler/lifecycle.c ****   if (outerr) {
  23:src/pdantler/lifecycle.c ****     pdlogger_error("init_game_game: error loading image background. %s",
  24:src/pdantler/lifecycle.c ****                    outerr);
  25:src/pdantler/lifecycle.c ****   }
  26:src/pdantler/lifecycle.c **** 
  27:src/pdantler/lifecycle.c ****   if (!assets->background_image) {
  28:src/pdantler/lifecycle.c ****     pdlogger_error("init_game_game: image background loaded as null.");
  29:src/pdantler/lifecycle.c ****   }
  30:src/pdantler/lifecycle.c **** 
  31:src/pdantler/lifecycle.c ****   assets->background_sprite = pd->sprite->newSprite();
  32:src/pdantler/lifecycle.c **** 
  33:src/pdantler/lifecycle.c ****   pd->sprite->setImage(assets->background_sprite, assets->background_image,
  34:src/pdantler/lifecycle.c ****                        kBitmapUnflipped);
  35:src/pdantler/lifecycle.c ****   pd->sprite->setZIndex(assets->background_sprite, 1);
  36:src/pdantler/lifecycle.c **** 
  37:src/pdantler/lifecycle.c ****   pd->sprite->moveTo(assets->background_sprite, 200, 120);
  38:src/pdantler/lifecycle.c ****   pd->sprite->addSprite(assets->background_sprite);
  39:src/pdantler/lifecycle.c ****   // Sprite are always invisible when created in init. They will be
  40:src/pdantler/lifecycle.c ****   // made visible during the scene enter/exit code
  41:src/pdantler/lifecycle.c ****   pd->sprite->setVisible(assets->background_sprite, false);
  42:src/pdantler/lifecycle.c **** 
  43:src/pdantler/lifecycle.c ****   assets->bird_image = pd->graphics->loadBitmap("assets/bird2.png", &outerr);
  44:src/pdantler/lifecycle.c ****   if (outerr) {
  45:src/pdantler/lifecycle.c ****     pdlogger_error("init_game_game: error loading image bird. %s", outerr);
  46:src/pdantler/lifecycle.c ****   }
  47:src/pdantler/lifecycle.c **** 
  48:src/pdantler/lifecycle.c ****   if (!assets->bird_image) {
  49:src/pdantler/lifecycle.c ****     pdlogger_error("init_game_game: image bird loaded as null.");
  50:src/pdantler/lifecycle.c ****   }
  51:src/pdantler/lifecycle.c **** 
  52:src/pdantler/lifecycle.c ****   assets->bird_sprite = pd->sprite->newSprite();
  53:src/pdantler/lifecycle.c **** 
  54:src/pdantler/lifecycle.c ****   pd->sprite->setImage(assets->bird_sprite, assets->bird_image,
  55:src/pdantler/lifecycle.c ****                        kBitmapUnflipped);
ARM GAS  /tmp/ccsJuLey.s 			page 5


  56:src/pdantler/lifecycle.c ****   pd->sprite->setZIndex(assets->bird_sprite, 2);
  57:src/pdantler/lifecycle.c **** 
  58:src/pdantler/lifecycle.c ****   pd->sprite->moveTo(assets->bird_sprite, 200, 120);
  59:src/pdantler/lifecycle.c ****   pd->sprite->addSprite(assets->bird_sprite);
  60:src/pdantler/lifecycle.c ****   // Sprite are always invisible when created in init. They will be
  61:src/pdantler/lifecycle.c ****   // made visible during the scene enter/exit code
  62:src/pdantler/lifecycle.c ****   pd->sprite->setVisible(assets->bird_sprite, false);
  63:src/pdantler/lifecycle.c **** 
  64:src/pdantler/lifecycle.c ****   assets->speech_bubble_image = pd->graphics->newBitmap(144, 55, kColorWhite);
  65:src/pdantler/lifecycle.c **** 
  66:src/pdantler/lifecycle.c ****   if (!assets->speech_bubble_image) {
  67:src/pdantler/lifecycle.c ****     pdlogger_error("init_game_game: image speech_bubble loaded as null.");
  68:src/pdantler/lifecycle.c ****   }
  69:src/pdantler/lifecycle.c **** 
  70:src/pdantler/lifecycle.c ****   assets->speech_bubble_sprite = pd->sprite->newSprite();
  71:src/pdantler/lifecycle.c **** 
  72:src/pdantler/lifecycle.c ****   pd->sprite->setImage(assets->speech_bubble_sprite,
  73:src/pdantler/lifecycle.c ****                        assets->speech_bubble_image, kBitmapUnflipped);
  74:src/pdantler/lifecycle.c ****   pd->sprite->setZIndex(assets->speech_bubble_sprite, 3);
  75:src/pdantler/lifecycle.c **** 
  76:src/pdantler/lifecycle.c ****   pd->sprite->moveTo(assets->speech_bubble_sprite, 200, 120);
  77:src/pdantler/lifecycle.c ****   pd->sprite->addSprite(assets->speech_bubble_sprite);
  78:src/pdantler/lifecycle.c ****   // Sprite are always invisible when created in init. They will be
  79:src/pdantler/lifecycle.c ****   // made visible during the scene enter/exit code
  80:src/pdantler/lifecycle.c ****   pd->sprite->setVisible(assets->speech_bubble_sprite, false);
  81:src/pdantler/lifecycle.c **** }
  82:src/pdantler/lifecycle.c **** 
  83:src/pdantler/lifecycle.c **** static void lifecycle_enter_game(GameContext *game, GameAssets *assets) {
  84:src/pdantler/lifecycle.c ****   pdlogger_info("lifecycle.c: entering scene 'game'");
  85:src/pdantler/lifecycle.c ****   PlaydateAPI *pd = game->pd;
  86:src/pdantler/lifecycle.c **** 
  87:src/pdantler/lifecycle.c ****   pdlogger_info("lifecycle.c: .... showing sprite 'background_sprite'");
  88:src/pdantler/lifecycle.c ****   pd->sprite->setVisible(assets->background_sprite, true);
  89:src/pdantler/lifecycle.c **** 
  90:src/pdantler/lifecycle.c ****   pdlogger_info("lifecycle.c: .... showing sprite 'bird_sprite'");
  91:src/pdantler/lifecycle.c ****   pd->sprite->setVisible(assets->bird_sprite, true);
  92:src/pdantler/lifecycle.c **** 
  93:src/pdantler/lifecycle.c ****   enter_game(game, assets);
  94:src/pdantler/lifecycle.c **** }
  95:src/pdantler/lifecycle.c **** 
  96:src/pdantler/lifecycle.c **** static void lifecycle_exit_game(GameContext *game, GameAssets *assets) {
  97:src/pdantler/lifecycle.c ****   pdlogger_info("lifecycle.c: exiting scene 'game'");
  98:src/pdantler/lifecycle.c ****   PlaydateAPI *pd = game->pd;
  99:src/pdantler/lifecycle.c **** 
 100:src/pdantler/lifecycle.c ****   pd->sprite->setVisible(assets->background_sprite, false);
 101:src/pdantler/lifecycle.c ****   pdlogger_info("lifecycle.c: .... hiding sprite 'background_sprite'");
 102:src/pdantler/lifecycle.c **** 
 103:src/pdantler/lifecycle.c ****   pd->sprite->setVisible(assets->bird_sprite, false);
 104:src/pdantler/lifecycle.c ****   pdlogger_info("lifecycle.c: .... hiding sprite 'bird_sprite'");
 105:src/pdantler/lifecycle.c **** 
 106:src/pdantler/lifecycle.c ****   pd->sprite->setVisible(assets->speech_bubble_sprite, false);
 107:src/pdantler/lifecycle.c ****   pdlogger_info("lifecycle.c: .... hiding sprite 'speech_bubble_sprite'");
 108:src/pdantler/lifecycle.c **** 
 109:src/pdantler/lifecycle.c ****   exit_game(game, assets);
 110:src/pdantler/lifecycle.c **** }
 111:src/pdantler/lifecycle.c **** 
 112:src/pdantler/lifecycle.c **** static void lifecycle_pause_game(GameContext *game, GameAssets *assets) {
ARM GAS  /tmp/ccsJuLey.s 			page 6


 113:src/pdantler/lifecycle.c ****   pause_game(game, assets);
 114:src/pdantler/lifecycle.c **** }
 115:src/pdantler/lifecycle.c **** 
 116:src/pdantler/lifecycle.c **** static void lifecycle_unpause_game(GameContext *game, GameAssets *assets) {
 117:src/pdantler/lifecycle.c ****   unpause_game(game, assets);
 118:src/pdantler/lifecycle.c **** }
 119:src/pdantler/lifecycle.c **** 
 120:src/pdantler/lifecycle.c **** static void init_fonts(GameContext *game) {
 121:src/pdantler/lifecycle.c ****   PlaydateAPI *pd = game->pd;
 122:src/pdantler/lifecycle.c ****   const char *outerr = NULL;
 123:src/pdantler/lifecycle.c **** }
 124:src/pdantler/lifecycle.c **** 
 125:src/pdantler/lifecycle.c **** static void init_sounds(GameContext *game) {
 126:src/pdantler/lifecycle.c ****   PlaydateAPI *pd = game->pd;
 127:src/pdantler/lifecycle.c ****   game->music_active = true;
 128:src/pdantler/lifecycle.c ****   game->music_player = pd->sound->sampleplayer->newPlayer();
 129:src/pdantler/lifecycle.c ****   game->sfx_1_player = pd->sound->sampleplayer->newPlayer();
 130:src/pdantler/lifecycle.c ****   game->sfx_2_player = pd->sound->sampleplayer->newPlayer();
 131:src/pdantler/lifecycle.c **** }
 132:src/pdantler/lifecycle.c **** 
 133:src/pdantler/lifecycle.c **** void pdantler_switch_to_scene(GameContext *game, GameScene scene) {
 130              		.loc 1 133 67 view -0
 131              		.cfi_startproc
 132              		@ args = 0, pretend = 0, frame = 0
 133              		@ frame_needed = 0, uses_anonymous_args = 0
 134:src/pdantler/lifecycle.c ****   pdlogger_info("lifecycle.c: switching to scene %d", scene);
 134              		.loc 1 134 3 view .LVU1
 135              	@ src/pdantler/lifecycle.c:133: void pdantler_switch_to_scene(GameContext *game, GameScene scene) {
 133:src/pdantler/lifecycle.c ****   pdlogger_info("lifecycle.c: switching to scene %d", scene);
 136              		.loc 1 133 67 is_stmt 0 view .LVU2
 137 0000 F8B5     		push	{r3, r4, r5, r6, r7, lr}	@
 138              	.LCFI0:
 139              		.cfi_def_cfa_offset 24
 140              		.cfi_offset 3, -24
 141              		.cfi_offset 4, -20
 142              		.cfi_offset 5, -16
 143              		.cfi_offset 6, -12
 144              		.cfi_offset 7, -8
 145              		.cfi_offset 14, -4
 146              	@ src/pdantler/lifecycle.c:133: void pdantler_switch_to_scene(GameContext *game, GameScene scene) {
 133:src/pdantler/lifecycle.c ****   pdlogger_info("lifecycle.c: switching to scene %d", scene);
 147              		.loc 1 133 67 view .LVU3
 148 0002 0546     		mov	r5, r0	@ tmp162, game
 149              	@ src/pdantler/lifecycle.c:134:   pdlogger_info("lifecycle.c: switching to scene %d", scene);
 150              		.loc 1 134 3 view .LVU4
 151 0004 2B48     		ldr	r0, .L10	@,
 152              	.LVL1:
 153              	@ src/pdantler/lifecycle.c:133: void pdantler_switch_to_scene(GameContext *game, GameScene scene) {
 133:src/pdantler/lifecycle.c ****   pdlogger_info("lifecycle.c: switching to scene %d", scene);
 154              		.loc 1 133 67 view .LVU5
 155 0006 0C46     		mov	r4, r1	@ scene, tmp163
 156              	@ src/pdantler/lifecycle.c:134:   pdlogger_info("lifecycle.c: switching to scene %d", scene);
 157              		.loc 1 134 3 view .LVU6
 158 0008 FFF7FEFF 		bl	pdlogger_info		@
 159              	.LVL2:
 135:src/pdantler/lifecycle.c ****   if (scene == game->current_scene) {
 160              		.loc 1 135 3 is_stmt 1 view .LVU7
ARM GAS  /tmp/ccsJuLey.s 			page 7


 161              	@ src/pdantler/lifecycle.c:135:   if (scene == game->current_scene) {
 162              		.loc 1 135 20 is_stmt 0 view .LVU8
 163 000c 2B7A     		ldrb	r3, [r5, #8]	@ zero_extendqisi2	@ _2, game_10(D)->current_scene
 164              	@ src/pdantler/lifecycle.c:135:   if (scene == game->current_scene) {
 165              		.loc 1 135 6 view .LVU9
 166 000e A342     		cmp	r3, r4	@ _2, scene
 167 0010 4BD0     		beq	.L7		@,
 136:src/pdantler/lifecycle.c ****     pdlogger_info("pdantler_switch_to_scene: ignored request to switch to "
 137:src/pdantler/lifecycle.c ****                   "current scene.");
 138:src/pdantler/lifecycle.c ****     return;
 139:src/pdantler/lifecycle.c ****   }
 140:src/pdantler/lifecycle.c **** 
 141:src/pdantler/lifecycle.c ****   switch (game->current_scene) {
 168              		.loc 1 141 3 is_stmt 1 view .LVU10
 169 0012 012B     		cmp	r3, #1	@ _2,
 170 0014 24D0     		beq	.L8		@,
 171              	.L3:
 142:src/pdantler/lifecycle.c **** 
 143:src/pdantler/lifecycle.c ****   case SCENE_GAME:
 144:src/pdantler/lifecycle.c ****     lifecycle_exit_game(game, (GameAssets *)game->game_assets);
 145:src/pdantler/lifecycle.c ****     break;
 146:src/pdantler/lifecycle.c ****   case NO_SCENE:
 147:src/pdantler/lifecycle.c ****     // If not currently on a scene, do nothing
 148:src/pdantler/lifecycle.c ****     break;
 149:src/pdantler/lifecycle.c ****   }
 150:src/pdantler/lifecycle.c **** 
 151:src/pdantler/lifecycle.c ****   game->current_scene = scene;
 172              		.loc 1 151 3 view .LVU11
 173              	@ src/pdantler/lifecycle.c:153:   switch (game->current_scene) {
 152:src/pdantler/lifecycle.c **** 
 153:src/pdantler/lifecycle.c ****   switch (game->current_scene) {
 174              		.loc 1 153 3 is_stmt 0 view .LVU12
 175 0016 012C     		cmp	r4, #1	@ scene,
 176              	@ src/pdantler/lifecycle.c:151:   game->current_scene = scene;
 151:src/pdantler/lifecycle.c **** 
 177              		.loc 1 151 23 view .LVU13
 178 0018 2C72     		strb	r4, [r5, #8]	@ scene, game_10(D)->current_scene
 179              		.loc 1 153 3 is_stmt 1 view .LVU14
 180 001a 04D0     		beq	.L9		@,
 154:src/pdantler/lifecycle.c **** 
 155:src/pdantler/lifecycle.c ****   case SCENE_GAME:
 156:src/pdantler/lifecycle.c ****     lifecycle_enter_game(game, (GameAssets *)game->game_assets);
 157:src/pdantler/lifecycle.c ****     break;
 158:src/pdantler/lifecycle.c ****   default:
 159:src/pdantler/lifecycle.c ****     pdlogger_error("pdantler_switch_to_scene: unhandled scene on enter.");
 181              		.loc 1 159 5 view .LVU15
 182 001c 2648     		ldr	r0, .L10+4	@,
 183              	@ src/pdantler/lifecycle.c:161: }
 160:src/pdantler/lifecycle.c ****   }
 161:src/pdantler/lifecycle.c **** }
 184              		.loc 1 161 1 is_stmt 0 view .LVU16
 185 001e BDE8F840 		pop	{r3, r4, r5, r6, r7, lr}	@
 186              	.LCFI1:
 187              		.cfi_remember_state
 188              		.cfi_restore 14
 189              		.cfi_restore 7
 190              		.cfi_restore 6
ARM GAS  /tmp/ccsJuLey.s 			page 8


 191              		.cfi_restore 5
 192              		.cfi_restore 4
 193              		.cfi_restore 3
 194              		.cfi_def_cfa_offset 0
 195              	.LVL3:
 196              	@ src/pdantler/lifecycle.c:159:     pdlogger_error("pdantler_switch_to_scene: unhandled scene on en
 159:src/pdantler/lifecycle.c ****   }
 197              		.loc 1 159 5 view .LVU17
 198 0022 FFF7FEBF 		b	pdlogger_error		@
 199              	.LVL4:
 200              	.L9:
 201              	.LCFI2:
 202              		.cfi_restore_state
 203              	.LBB11:
 204              	.LBI11:
 133:src/pdantler/lifecycle.c ****   pdlogger_info("lifecycle.c: switching to scene %d", scene);
 205              		.loc 1 133 6 is_stmt 1 view .LVU18
 206              	.LBB12:
 156:src/pdantler/lifecycle.c ****     break;
 207              		.loc 1 156 5 view .LVU19
 208              	.LBB13:
 209              	.LBB14:
 210              	@ src/pdantler/lifecycle.c:84:   pdlogger_info("lifecycle.c: entering scene 'game'");
  84:src/pdantler/lifecycle.c ****   PlaydateAPI *pd = game->pd;
 211              		.loc 1 84 3 is_stmt 0 view .LVU20
 212 0026 2548     		ldr	r0, .L10+8	@,
 213              	.LBE14:
 214              	.LBE13:
 215              	@ src/pdantler/lifecycle.c:156:     lifecycle_enter_game(game, (GameAssets *)game->game_assets);
 156:src/pdantler/lifecycle.c ****     break;
 216              		.loc 1 156 50 view .LVU21
 217 0028 EE6A     		ldr	r6, [r5, #44]	@ _25, game_10(D)->game_assets
 218              	.LVL5:
 219              	.LBB17:
 220              	.LBI13:
  83:src/pdantler/lifecycle.c ****   pdlogger_info("lifecycle.c: entering scene 'game'");
 221              		.loc 1 83 13 is_stmt 1 view .LVU22
 222              	.LBB15:
  84:src/pdantler/lifecycle.c ****   PlaydateAPI *pd = game->pd;
 223              		.loc 1 84 3 view .LVU23
 224 002a FFF7FEFF 		bl	pdlogger_info		@
 225              	.LVL6:
  85:src/pdantler/lifecycle.c **** 
 226              		.loc 1 85 3 view .LVU24
 227              	@ src/pdantler/lifecycle.c:85:   PlaydateAPI *pd = game->pd;
  85:src/pdantler/lifecycle.c **** 
 228              		.loc 1 85 16 is_stmt 0 view .LVU25
 229 002e 2F68     		ldr	r7, [r5]	@ pd, game_10(D)->pd
 230              	.LVL7:
  87:src/pdantler/lifecycle.c ****   pd->sprite->setVisible(assets->background_sprite, true);
 231              		.loc 1 87 3 is_stmt 1 view .LVU26
 232 0030 2348     		ldr	r0, .L10+12	@,
 233 0032 FFF7FEFF 		bl	pdlogger_info		@
 234              	.LVL8:
  88:src/pdantler/lifecycle.c **** 
 235              		.loc 1 88 3 view .LVU27
 236              	@ src/pdantler/lifecycle.c:88:   pd->sprite->setVisible(assets->background_sprite, true);
ARM GAS  /tmp/ccsJuLey.s 			page 9


  88:src/pdantler/lifecycle.c **** 
 237              		.loc 1 88 13 is_stmt 0 view .LVU28
 238 0036 FB68     		ldr	r3, [r7, #12]	@ pd_26->sprite, pd_26->sprite
 239              	@ src/pdantler/lifecycle.c:88:   pd->sprite->setVisible(assets->background_sprite, true);
  88:src/pdantler/lifecycle.c **** 
 240              		.loc 1 88 3 view .LVU29
 241 0038 2146     		mov	r1, r4	@, scene
 242 003a 7068     		ldr	r0, [r6, #4]	@, MEM[(struct GameAssets *)_25].background_sprite
 243 003c D3F88430 		ldr	r3, [r3, #132]	@ _27->setVisible, _27->setVisible
 244 0040 9847     		blx	r3		@ _27->setVisible
 245              	.LVL9:
  90:src/pdantler/lifecycle.c ****   pd->sprite->setVisible(assets->bird_sprite, true);
 246              		.loc 1 90 3 is_stmt 1 view .LVU30
 247 0042 2048     		ldr	r0, .L10+16	@,
 248 0044 FFF7FEFF 		bl	pdlogger_info		@
 249              	.LVL10:
  91:src/pdantler/lifecycle.c **** 
 250              		.loc 1 91 3 view .LVU31
 251              	@ src/pdantler/lifecycle.c:91:   pd->sprite->setVisible(assets->bird_sprite, true);
  91:src/pdantler/lifecycle.c **** 
 252              		.loc 1 91 13 is_stmt 0 view .LVU32
 253 0048 FB68     		ldr	r3, [r7, #12]	@ pd_26->sprite, pd_26->sprite
 254              	@ src/pdantler/lifecycle.c:91:   pd->sprite->setVisible(assets->bird_sprite, true);
  91:src/pdantler/lifecycle.c **** 
 255              		.loc 1 91 3 view .LVU33
 256 004a 2146     		mov	r1, r4	@, scene
 257 004c F068     		ldr	r0, [r6, #12]	@, MEM[(struct GameAssets *)_25].bird_sprite
 258 004e D3F88430 		ldr	r3, [r3, #132]	@ _30->setVisible, _30->setVisible
 259 0052 9847     		blx	r3		@ _30->setVisible
 260              	.LVL11:
  93:src/pdantler/lifecycle.c **** }
 261              		.loc 1 93 3 is_stmt 1 view .LVU34
 262 0054 3146     		mov	r1, r6	@, _25
 263 0056 2846     		mov	r0, r5	@, game
 264              	.LBE15:
 265              	.LBE17:
 266              	.LBE12:
 267              	.LBE11:
 268              	@ src/pdantler/lifecycle.c:161: }
 269              		.loc 1 161 1 is_stmt 0 view .LVU35
 270 0058 BDE8F840 		pop	{r3, r4, r5, r6, r7, lr}	@
 271              	.LCFI3:
 272              		.cfi_remember_state
 273              		.cfi_restore 14
 274              		.cfi_restore 7
 275              		.cfi_restore 6
 276              		.cfi_restore 5
 277              		.cfi_restore 4
 278              		.cfi_restore 3
 279              		.cfi_def_cfa_offset 0
 280              	.LVL12:
 281              	.LBB20:
 282              	.LBB19:
 283              	.LBB18:
 284              	.LBB16:
 285              	@ src/pdantler/lifecycle.c:93:   enter_game(game, assets);
  93:src/pdantler/lifecycle.c **** }
ARM GAS  /tmp/ccsJuLey.s 			page 10


 286              		.loc 1 93 3 view .LVU36
 287 005c FFF7FEBF 		b	enter_game		@
 288              	.LVL13:
 289              	.L8:
 290              	.LCFI4:
 291              		.cfi_restore_state
  93:src/pdantler/lifecycle.c **** }
 292              		.loc 1 93 3 view .LVU37
 293              	.LBE16:
 294              	.LBE18:
 295              	.LBE19:
 296              	.LBE20:
 144:src/pdantler/lifecycle.c ****     break;
 297              		.loc 1 144 5 is_stmt 1 view .LVU38
 298              	.LBB21:
 299              	.LBB22:
 300              	@ src/pdantler/lifecycle.c:97:   pdlogger_info("lifecycle.c: exiting scene 'game'");
  97:src/pdantler/lifecycle.c ****   PlaydateAPI *pd = game->pd;
 301              		.loc 1 97 3 is_stmt 0 view .LVU39
 302 0060 1948     		ldr	r0, .L10+20	@,
 303              	.LBE22:
 304              	.LBE21:
 305              	@ src/pdantler/lifecycle.c:144:     lifecycle_exit_game(game, (GameAssets *)game->game_assets);
 144:src/pdantler/lifecycle.c ****     break;
 306              		.loc 1 144 49 view .LVU40
 307 0062 EE6A     		ldr	r6, [r5, #44]	@ _5, game_10(D)->game_assets
 308              	.LVL14:
 309              	.LBB24:
 310              	.LBI21:
  96:src/pdantler/lifecycle.c ****   pdlogger_info("lifecycle.c: exiting scene 'game'");
 311              		.loc 1 96 13 is_stmt 1 view .LVU41
 312              	.LBB23:
  97:src/pdantler/lifecycle.c ****   PlaydateAPI *pd = game->pd;
 313              		.loc 1 97 3 view .LVU42
 314 0064 FFF7FEFF 		bl	pdlogger_info		@
 315              	.LVL15:
  98:src/pdantler/lifecycle.c **** 
 316              		.loc 1 98 3 view .LVU43
 317              	@ src/pdantler/lifecycle.c:98:   PlaydateAPI *pd = game->pd;
  98:src/pdantler/lifecycle.c **** 
 318              		.loc 1 98 16 is_stmt 0 view .LVU44
 319 0068 2F68     		ldr	r7, [r5]	@ pd, game_10(D)->pd
 320              	.LVL16:
 100:src/pdantler/lifecycle.c ****   pdlogger_info("lifecycle.c: .... hiding sprite 'background_sprite'");
 321              		.loc 1 100 3 is_stmt 1 view .LVU45
 322 006a 0021     		movs	r1, #0	@,
 323 006c 7068     		ldr	r0, [r6, #4]	@, MEM[(struct GameAssets *)_5].background_sprite
 324              	@ src/pdantler/lifecycle.c:100:   pd->sprite->setVisible(assets->background_sprite, false);
 100:src/pdantler/lifecycle.c ****   pdlogger_info("lifecycle.c: .... hiding sprite 'background_sprite'");
 325              		.loc 1 100 13 is_stmt 0 view .LVU46
 326 006e FB68     		ldr	r3, [r7, #12]	@ pd_15->sprite, pd_15->sprite
 327              	@ src/pdantler/lifecycle.c:100:   pd->sprite->setVisible(assets->background_sprite, false);
 100:src/pdantler/lifecycle.c ****   pdlogger_info("lifecycle.c: .... hiding sprite 'background_sprite'");
 328              		.loc 1 100 3 view .LVU47
 329 0070 D3F88430 		ldr	r3, [r3, #132]	@ _16->setVisible, _16->setVisible
 330 0074 9847     		blx	r3		@ _16->setVisible
 331              	.LVL17:
ARM GAS  /tmp/ccsJuLey.s 			page 11


 101:src/pdantler/lifecycle.c **** 
 332              		.loc 1 101 3 is_stmt 1 view .LVU48
 333 0076 1548     		ldr	r0, .L10+24	@,
 334 0078 FFF7FEFF 		bl	pdlogger_info		@
 335              	.LVL18:
 103:src/pdantler/lifecycle.c ****   pdlogger_info("lifecycle.c: .... hiding sprite 'bird_sprite'");
 336              		.loc 1 103 3 view .LVU49
 337              	@ src/pdantler/lifecycle.c:103:   pd->sprite->setVisible(assets->bird_sprite, false);
 103:src/pdantler/lifecycle.c ****   pdlogger_info("lifecycle.c: .... hiding sprite 'bird_sprite'");
 338              		.loc 1 103 13 is_stmt 0 view .LVU50
 339 007c FB68     		ldr	r3, [r7, #12]	@ pd_15->sprite, pd_15->sprite
 340              	@ src/pdantler/lifecycle.c:103:   pd->sprite->setVisible(assets->bird_sprite, false);
 103:src/pdantler/lifecycle.c ****   pdlogger_info("lifecycle.c: .... hiding sprite 'bird_sprite'");
 341              		.loc 1 103 3 view .LVU51
 342 007e 0021     		movs	r1, #0	@,
 343 0080 F068     		ldr	r0, [r6, #12]	@, MEM[(struct GameAssets *)_5].bird_sprite
 344 0082 D3F88430 		ldr	r3, [r3, #132]	@ _19->setVisible, _19->setVisible
 345 0086 9847     		blx	r3		@ _19->setVisible
 346              	.LVL19:
 104:src/pdantler/lifecycle.c **** 
 347              		.loc 1 104 3 is_stmt 1 view .LVU52
 348 0088 1148     		ldr	r0, .L10+28	@,
 349 008a FFF7FEFF 		bl	pdlogger_info		@
 350              	.LVL20:
 106:src/pdantler/lifecycle.c ****   pdlogger_info("lifecycle.c: .... hiding sprite 'speech_bubble_sprite'");
 351              		.loc 1 106 3 view .LVU53
 352              	@ src/pdantler/lifecycle.c:106:   pd->sprite->setVisible(assets->speech_bubble_sprite, false);
 106:src/pdantler/lifecycle.c ****   pdlogger_info("lifecycle.c: .... hiding sprite 'speech_bubble_sprite'");
 353              		.loc 1 106 13 is_stmt 0 view .LVU54
 354 008e FB68     		ldr	r3, [r7, #12]	@ pd_15->sprite, pd_15->sprite
 355              	@ src/pdantler/lifecycle.c:106:   pd->sprite->setVisible(assets->speech_bubble_sprite, false);
 106:src/pdantler/lifecycle.c ****   pdlogger_info("lifecycle.c: .... hiding sprite 'speech_bubble_sprite'");
 356              		.loc 1 106 3 view .LVU55
 357 0090 0021     		movs	r1, #0	@,
 358 0092 7069     		ldr	r0, [r6, #20]	@, MEM[(struct GameAssets *)_5].speech_bubble_sprite
 359 0094 D3F88430 		ldr	r3, [r3, #132]	@ _22->setVisible, _22->setVisible
 360 0098 9847     		blx	r3		@ _22->setVisible
 361              	.LVL21:
 107:src/pdantler/lifecycle.c **** 
 362              		.loc 1 107 3 is_stmt 1 view .LVU56
 363 009a 0E48     		ldr	r0, .L10+32	@,
 364 009c FFF7FEFF 		bl	pdlogger_info		@
 365              	.LVL22:
 109:src/pdantler/lifecycle.c **** }
 366              		.loc 1 109 3 view .LVU57
 367 00a0 3146     		mov	r1, r6	@, _5
 368 00a2 2846     		mov	r0, r5	@, game
 369 00a4 FFF7FEFF 		bl	exit_game		@
 370              	.LVL23:
 371              	@ src/pdantler/lifecycle.c:110: }
 110:src/pdantler/lifecycle.c **** 
 372              		.loc 1 110 1 is_stmt 0 view .LVU58
 373 00a8 B5E7     		b	.L3		@
 374              	.LVL24:
 375              	.L7:
 110:src/pdantler/lifecycle.c **** 
 376              		.loc 1 110 1 view .LVU59
ARM GAS  /tmp/ccsJuLey.s 			page 12


 377              	.LBE23:
 378              	.LBE24:
 136:src/pdantler/lifecycle.c ****                   "current scene.");
 379              		.loc 1 136 5 is_stmt 1 view .LVU60
 380 00aa 0B48     		ldr	r0, .L10+36	@,
 381              	@ src/pdantler/lifecycle.c:161: }
 382              		.loc 1 161 1 is_stmt 0 view .LVU61
 383 00ac BDE8F840 		pop	{r3, r4, r5, r6, r7, lr}	@
 384              	.LCFI5:
 385              		.cfi_restore 14
 386              		.cfi_restore 7
 387              		.cfi_restore 6
 388              		.cfi_restore 5
 389              		.cfi_restore 4
 390              		.cfi_restore 3
 391              		.cfi_def_cfa_offset 0
 392              	.LVL25:
 393              	@ src/pdantler/lifecycle.c:136:     pdlogger_info("pdantler_switch_to_scene: ignored request to swi
 136:src/pdantler/lifecycle.c ****                   "current scene.");
 394              		.loc 1 136 5 view .LVU62
 395 00b0 FFF7FEBF 		b	pdlogger_info		@
 396              	.LVL26:
 397              	.L11:
 398              		.align	2
 399              	.L10:
 400 00b4 00000000 		.word	.LC0
 401 00b8 B8010000 		.word	.LC9
 402 00bc 2C010000 		.word	.LC6
 403 00c0 50010000 		.word	.LC7
 404 00c4 88010000 		.word	.LC8
 405 00c8 6C000000 		.word	.LC2
 406 00cc 90000000 		.word	.LC3
 407 00d0 C4000000 		.word	.LC4
 408 00d4 F4000000 		.word	.LC5
 409 00d8 24000000 		.word	.LC1
 410              		.cfi_endproc
 411              	.LFE37:
 412              		.size	pdantler_switch_to_scene, .-pdantler_switch_to_scene
 413              		.section	.rodata.lifecycle_init_game.str1.4,"aMS",%progbits,1
 414              		.align	2
 415              	.LC10:
 416 0000 61737365 		.ascii	"assets/speech_bubble.png\000"
 416      74732F73 
 416      70656563 
 416      685F6275 
 416      62626C65 
 417 0019 000000   		.align	2
 418              	.LC11:
 419 001c 696E6974 		.ascii	"init_game_game: error loading image speech_bubble_b"
 419      5F67616D 
 419      655F6761 
 419      6D653A20 
 419      6572726F 
 420 004f 6173652E 		.ascii	"ase. %s\000"
 420      20257300 
 421 0057 00       		.align	2
 422              	.LC12:
ARM GAS  /tmp/ccsJuLey.s 			page 13


 423 0058 61737365 		.ascii	"assets/background.png\000"
 423      74732F62 
 423      61636B67 
 423      726F756E 
 423      642E706E 
 424 006e 0000     		.align	2
 425              	.LC13:
 426 0070 696E6974 		.ascii	"init_game_game: error loading image background. %s\000"
 426      5F67616D 
 426      655F6761 
 426      6D653A20 
 426      6572726F 
 427 00a3 00       		.align	2
 428              	.LC14:
 429 00a4 696E6974 		.ascii	"init_game_game: image background loaded as null.\000"
 429      5F67616D 
 429      655F6761 
 429      6D653A20 
 429      696D6167 
 430 00d5 000000   		.align	2
 431              	.LC15:
 432 00d8 61737365 		.ascii	"assets/bird2.png\000"
 432      74732F62 
 432      69726432 
 432      2E706E67 
 432      00
 433 00e9 000000   		.align	2
 434              	.LC16:
 435 00ec 696E6974 		.ascii	"init_game_game: error loading image bird. %s\000"
 435      5F67616D 
 435      655F6761 
 435      6D653A20 
 435      6572726F 
 436 0119 000000   		.align	2
 437              	.LC17:
 438 011c 696E6974 		.ascii	"init_game_game: image bird loaded as null.\000"
 438      5F67616D 
 438      655F6761 
 438      6D653A20 
 438      696D6167 
 439 0147 00       		.align	2
 440              	.LC18:
 441 0148 696E6974 		.ascii	"init_game_game: image speech_bubble loaded as null."
 441      5F67616D 
 441      655F6761 
 441      6D653A20 
 441      696D6167 
 442 017b 00       		.ascii	"\000"
 443              		.section	.text.lifecycle_init_game,"ax",%progbits
 444              		.align	1
 445              		.p2align 4,,15
 446              		.global	lifecycle_init_game
 447              		.syntax unified
 448              		.thumb
 449              		.thumb_func
 450              		.fpu fpv5-sp-d16
 451              		.type	lifecycle_init_game, %function
ARM GAS  /tmp/ccsJuLey.s 			page 14


 452              	lifecycle_init_game:
 453              	.LVL27:
 454              	.LFB38:
 162:src/pdantler/lifecycle.c **** 
 163:src/pdantler/lifecycle.c **** void lifecycle_init_game(GameContext *game) {
 455              		.loc 1 163 45 is_stmt 1 view -0
 456              		.cfi_startproc
 457              		@ args = 0, pretend = 0, frame = 8
 458              		@ frame_needed = 0, uses_anonymous_args = 0
 164:src/pdantler/lifecycle.c ****   game->debouncer.delay = DEFAULT_DEBOUNCE_DELAY;
 459              		.loc 1 164 3 view .LVU64
 460              	@ src/pdantler/lifecycle.c:163: void lifecycle_init_game(GameContext *game) {
 163:src/pdantler/lifecycle.c ****   game->debouncer.delay = DEFAULT_DEBOUNCE_DELAY;
 461              		.loc 1 163 45 is_stmt 0 view .LVU65
 462 0000 70B5     		push	{r4, r5, r6, lr}	@
 463              	.LCFI6:
 464              		.cfi_def_cfa_offset 16
 465              		.cfi_offset 4, -16
 466              		.cfi_offset 5, -12
 467              		.cfi_offset 6, -8
 468              		.cfi_offset 14, -4
 469 0002 0646     		mov	r6, r0	@ tmp297, game
 470              	@ src/pdantler/lifecycle.c:164:   game->debouncer.delay = DEFAULT_DEBOUNCE_DELAY;
 471              		.loc 1 164 25 view .LVU66
 472 0004 C822     		movs	r2, #200	@ tmp201,
 473              	@ src/pdantler/lifecycle.c:163: void lifecycle_init_game(GameContext *game) {
 163:src/pdantler/lifecycle.c ****   game->debouncer.delay = DEFAULT_DEBOUNCE_DELAY;
 474              		.loc 1 163 45 view .LVU67
 475 0006 82B0     		sub	sp, sp, #8	@,,
 476              	.LCFI7:
 477              		.cfi_def_cfa_offset 24
 478              	.LBB32:
 479              	.LBB33:
 480              	@ src/pdantler/../pdantler/mooselib.h:185:   void *p = MLIB_MALLOC(nitems * size, mem_ctx);
 481              		.file 2 "src/pdantler/../pdantler/mooselib.h"
   1:src/pdantler/../pdantler/mooselib.h **** /** This file is managed by pdantler.
   2:src/pdantler/../pdantler/mooselib.h **** 
   3:src/pdantler/../pdantler/mooselib.h ****     Any changes you make to it directly will be overwritten next time pdantler
   4:src/pdantler/../pdantler/mooselib.h ****    runs
   5:src/pdantler/../pdantler/mooselib.h **** */
   6:src/pdantler/../pdantler/mooselib.h **** 
   7:src/pdantler/../pdantler/mooselib.h **** // Playdate-compatable stdlib replacement. Also includes some common
   8:src/pdantler/../pdantler/mooselib.h **** // structs/functions for working with points, etc
   9:src/pdantler/../pdantler/mooselib.h **** 
  10:src/pdantler/../pdantler/mooselib.h **** // If compiling for playdate, be sure to define MOOSELIB_PLAYDATE before
  11:src/pdantler/../pdantler/mooselib.h **** // including
  12:src/pdantler/../pdantler/mooselib.h **** 
  13:src/pdantler/../pdantler/mooselib.h **** #ifndef MOOSELIB_INCLUDE
  14:src/pdantler/../pdantler/mooselib.h **** #define MOOSELIB_INCLUDE
  15:src/pdantler/../pdantler/mooselib.h **** #include <math.h>
  16:src/pdantler/../pdantler/mooselib.h **** #include <stdbool.h>
  17:src/pdantler/../pdantler/mooselib.h **** 
  18:src/pdantler/../pdantler/mooselib.h **** //
  19:src/pdantler/../pdantler/mooselib.h **** // Graphic-related shared structs
  20:src/pdantler/../pdantler/mooselib.h **** //
  21:src/pdantler/../pdantler/mooselib.h **** 
  22:src/pdantler/../pdantler/mooselib.h **** typedef struct {
ARM GAS  /tmp/ccsJuLey.s 			page 15


  23:src/pdantler/../pdantler/mooselib.h ****   int width;
  24:src/pdantler/../pdantler/mooselib.h ****   int height;
  25:src/pdantler/../pdantler/mooselib.h **** } MLIBSize;
  26:src/pdantler/../pdantler/mooselib.h **** 
  27:src/pdantler/../pdantler/mooselib.h **** static inline MLIBSize MLIBSIZE_CREATE(int width, int height) {
  28:src/pdantler/../pdantler/mooselib.h ****   return (MLIBSize){width, height};
  29:src/pdantler/../pdantler/mooselib.h **** }
  30:src/pdantler/../pdantler/mooselib.h **** 
  31:src/pdantler/../pdantler/mooselib.h **** typedef struct {
  32:src/pdantler/../pdantler/mooselib.h ****   int x;
  33:src/pdantler/../pdantler/mooselib.h ****   int y;
  34:src/pdantler/../pdantler/mooselib.h **** } MLIBPoint;
  35:src/pdantler/../pdantler/mooselib.h **** 
  36:src/pdantler/../pdantler/mooselib.h **** static inline MLIBPoint MLIBPOINT_CREATE(int x, int y) {
  37:src/pdantler/../pdantler/mooselib.h ****   return (MLIBPoint){x, y};
  38:src/pdantler/../pdantler/mooselib.h **** }
  39:src/pdantler/../pdantler/mooselib.h **** 
  40:src/pdantler/../pdantler/mooselib.h **** typedef struct {
  41:src/pdantler/../pdantler/mooselib.h ****   float x;
  42:src/pdantler/../pdantler/mooselib.h ****   float y;
  43:src/pdantler/../pdantler/mooselib.h **** } MLIBFPoint;
  44:src/pdantler/../pdantler/mooselib.h **** 
  45:src/pdantler/../pdantler/mooselib.h **** static inline MLIBFPoint MLIBFPOINT_CREATE(float x, float y) {
  46:src/pdantler/../pdantler/mooselib.h ****   return (MLIBFPoint){x, y};
  47:src/pdantler/../pdantler/mooselib.h **** }
  48:src/pdantler/../pdantler/mooselib.h **** 
  49:src/pdantler/../pdantler/mooselib.h **** typedef struct {
  50:src/pdantler/../pdantler/mooselib.h ****   int x;
  51:src/pdantler/../pdantler/mooselib.h ****   int y;
  52:src/pdantler/../pdantler/mooselib.h ****   int width;
  53:src/pdantler/../pdantler/mooselib.h ****   int height;
  54:src/pdantler/../pdantler/mooselib.h **** } MLIBRect;
  55:src/pdantler/../pdantler/mooselib.h **** 
  56:src/pdantler/../pdantler/mooselib.h **** static inline MLIBRect MLIBRECT_CREATE(int x, int y, int width, int height) {
  57:src/pdantler/../pdantler/mooselib.h ****   return (MLIBRect){x, y, width, height};
  58:src/pdantler/../pdantler/mooselib.h **** }
  59:src/pdantler/../pdantler/mooselib.h **** 
  60:src/pdantler/../pdantler/mooselib.h **** static inline MLIBRect MLIBRECT_TRANSLATE(MLIBRect r, int x, int y) {
  61:src/pdantler/../pdantler/mooselib.h ****   return MLIBRECT_CREATE(r.x + x, r.y + y, r.width, r.height);
  62:src/pdantler/../pdantler/mooselib.h **** }
  63:src/pdantler/../pdantler/mooselib.h **** 
  64:src/pdantler/../pdantler/mooselib.h **** static inline MLIBPoint MLIBRECT_CENTER(MLIBRect r) {
  65:src/pdantler/../pdantler/mooselib.h ****   return MLIBPOINT_CREATE(r.x + r.width / 2, r.y + r.height / 2);
  66:src/pdantler/../pdantler/mooselib.h **** }
  67:src/pdantler/../pdantler/mooselib.h **** 
  68:src/pdantler/../pdantler/mooselib.h **** //
  69:src/pdantler/../pdantler/mooselib.h **** // Debug macros
  70:src/pdantler/../pdantler/mooselib.h **** //
  71:src/pdantler/../pdantler/mooselib.h **** 
  72:src/pdantler/../pdantler/mooselib.h **** #define MLIBPOINT_EXPAND(p) (p.x), (p.y)
  73:src/pdantler/../pdantler/mooselib.h **** #define MLIBSIZE_EXPAND(s) (s.width), (s.height)
  74:src/pdantler/../pdantler/mooselib.h **** #define MLIBRECT_EXPAND(r) (r.x), (r.y), (r.width), (r.height)
  75:src/pdantler/../pdantler/mooselib.h **** //
  76:src/pdantler/../pdantler/mooselib.h **** // Utility functions
  77:src/pdantler/../pdantler/mooselib.h **** //
  78:src/pdantler/../pdantler/mooselib.h **** 
  79:src/pdantler/../pdantler/mooselib.h **** // Make sure v is in range min to max (inclusive). if < min, return max,
ARM GAS  /tmp/ccsJuLey.s 			page 16


  80:src/pdantler/../pdantler/mooselib.h **** // if > max, return min
  81:src/pdantler/../pdantler/mooselib.h **** static inline int MLIB_CLAMP_TO_RANGE_MOD(int v, int min, int max) {
  82:src/pdantler/../pdantler/mooselib.h ****   if (v < min) {
  83:src/pdantler/../pdantler/mooselib.h ****     return max;
  84:src/pdantler/../pdantler/mooselib.h ****   }
  85:src/pdantler/../pdantler/mooselib.h ****   if (v > max) {
  86:src/pdantler/../pdantler/mooselib.h ****     return min;
  87:src/pdantler/../pdantler/mooselib.h ****   }
  88:src/pdantler/../pdantler/mooselib.h ****   return v;
  89:src/pdantler/../pdantler/mooselib.h **** }
  90:src/pdantler/../pdantler/mooselib.h **** 
  91:src/pdantler/../pdantler/mooselib.h **** // Make sure v is in range min to max (inclusive). If < min, return min
  92:src/pdantler/../pdantler/mooselib.h **** // if > max, return max
  93:src/pdantler/../pdantler/mooselib.h **** static inline int MLIB_CLAMP_TO_RANGE(int v, int min, int max) {
  94:src/pdantler/../pdantler/mooselib.h ****   if (v < min) {
  95:src/pdantler/../pdantler/mooselib.h ****     return min;
  96:src/pdantler/../pdantler/mooselib.h ****   }
  97:src/pdantler/../pdantler/mooselib.h ****   if (v > max) {
  98:src/pdantler/../pdantler/mooselib.h ****     return max;
  99:src/pdantler/../pdantler/mooselib.h ****   }
 100:src/pdantler/../pdantler/mooselib.h ****   return v;
 101:src/pdantler/../pdantler/mooselib.h **** }
 102:src/pdantler/../pdantler/mooselib.h **** 
 103:src/pdantler/../pdantler/mooselib.h **** // Return if point is fully contained in a rect
 104:src/pdantler/../pdantler/mooselib.h **** static inline bool MLIB_POINT_IN_RECT(MLIBPoint p, MLIBRect rect) {
 105:src/pdantler/../pdantler/mooselib.h ****   return (p.x >= rect.x && p.y >= rect.y && p.x < rect.x + rect.width &&
 106:src/pdantler/../pdantler/mooselib.h ****           p.y < rect.y + rect.height);
 107:src/pdantler/../pdantler/mooselib.h **** }
 108:src/pdantler/../pdantler/mooselib.h **** 
 109:src/pdantler/../pdantler/mooselib.h **** // Return a translated version of the point
 110:src/pdantler/../pdantler/mooselib.h **** static inline MLIBPoint MLIB_POINT_TRANSLATE(MLIBPoint p, int x, int y) {
 111:src/pdantler/../pdantler/mooselib.h ****   return MLIBPOINT_CREATE(p.x + x, p.y + y);
 112:src/pdantler/../pdantler/mooselib.h **** }
 113:src/pdantler/../pdantler/mooselib.h **** 
 114:src/pdantler/../pdantler/mooselib.h **** static inline int MLIB_ABS(int x) {
 115:src/pdantler/../pdantler/mooselib.h ****   if (x < 0) {
 116:src/pdantler/../pdantler/mooselib.h ****     return x * -1;
 117:src/pdantler/../pdantler/mooselib.h ****   }
 118:src/pdantler/../pdantler/mooselib.h **** 
 119:src/pdantler/../pdantler/mooselib.h ****   return x;
 120:src/pdantler/../pdantler/mooselib.h **** }
 121:src/pdantler/../pdantler/mooselib.h **** 
 122:src/pdantler/../pdantler/mooselib.h **** // Return the maximum of two values
 123:src/pdantler/../pdantler/mooselib.h **** static inline int MLIB_MAX(int x, int y) {
 124:src/pdantler/../pdantler/mooselib.h ****   if (x > y) {
 125:src/pdantler/../pdantler/mooselib.h ****     return x;
 126:src/pdantler/../pdantler/mooselib.h ****   }
 127:src/pdantler/../pdantler/mooselib.h **** 
 128:src/pdantler/../pdantler/mooselib.h ****   return y;
 129:src/pdantler/../pdantler/mooselib.h **** }
 130:src/pdantler/../pdantler/mooselib.h **** 
 131:src/pdantler/../pdantler/mooselib.h **** // Return the magnitude of a size vector
 132:src/pdantler/../pdantler/mooselib.h **** static inline int MLIB_MAGNITUDE(MLIBSize s) {
 133:src/pdantler/../pdantler/mooselib.h ****   return MLIB_ABS(s.width) * MLIB_ABS(s.height);
 134:src/pdantler/../pdantler/mooselib.h **** }
 135:src/pdantler/../pdantler/mooselib.h **** 
 136:src/pdantler/../pdantler/mooselib.h **** // Return the CHEBYSHEV distance between two points, not the geometric distance
ARM GAS  /tmp/ccsJuLey.s 			page 17


 137:src/pdantler/../pdantler/mooselib.h **** // Diagonals shouldn't be longer
 138:src/pdantler/../pdantler/mooselib.h **** // https://en.wikipedia.org/wiki/Chebyshev_distance
 139:src/pdantler/../pdantler/mooselib.h **** static inline int MLIB_DISTANCE(MLIBPoint p1, MLIBPoint p2) {
 140:src/pdantler/../pdantler/mooselib.h ****   int dx = MLIB_ABS(p1.x - p2.x);
 141:src/pdantler/../pdantler/mooselib.h ****   int dy = MLIB_ABS(p1.y - p2.y);
 142:src/pdantler/../pdantler/mooselib.h **** 
 143:src/pdantler/../pdantler/mooselib.h ****   return MLIB_MAX(dx, dy);
 144:src/pdantler/../pdantler/mooselib.h **** }
 145:src/pdantler/../pdantler/mooselib.h **** 
 146:src/pdantler/../pdantler/mooselib.h **** // Copy the string from source to destination. If max length is reached,
 147:src/pdantler/../pdantler/mooselib.h **** // destination will have a valid null-terminated string of length
 148:src/pdantler/../pdantler/mooselib.h **** // max_buffer_length-1
 149:src/pdantler/../pdantler/mooselib.h **** extern void mlib_strcpy(char *destination, const char *source,
 150:src/pdantler/../pdantler/mooselib.h ****                         int max_buffer_length);
 151:src/pdantler/../pdantler/mooselib.h **** 
 152:src/pdantler/../pdantler/mooselib.h **** // Return true if two strings are equal, false otherwise
 153:src/pdantler/../pdantler/mooselib.h **** extern bool mlib_streq(const char *s1, const char *s2);
 154:src/pdantler/../pdantler/mooselib.h **** 
 155:src/pdantler/../pdantler/mooselib.h **** //
 156:src/pdantler/../pdantler/mooselib.h **** // Replace assert with something that works both in tests
 157:src/pdantler/../pdantler/mooselib.h **** // and uses playdate error for playadte
 158:src/pdantler/../pdantler/mooselib.h **** //
 159:src/pdantler/../pdantler/mooselib.h **** #ifndef MOOSELIB_PLAYDATE
 160:src/pdantler/../pdantler/mooselib.h **** #include <assert.h>
 161:src/pdantler/../pdantler/mooselib.h **** #endif
 162:src/pdantler/../pdantler/mooselib.h **** 
 163:src/pdantler/../pdantler/mooselib.h **** #ifdef MOOSELIB_PLAYDATE
 164:src/pdantler/../pdantler/mooselib.h **** #define MLIB_ASSERT(context, condition, ...)                                   \
 165:src/pdantler/../pdantler/mooselib.h ****   if (!(condition)) {                                                          \
 166:src/pdantler/../pdantler/mooselib.h ****     (context)->system->error(__VA_ARGS__);                                     \
 167:src/pdantler/../pdantler/mooselib.h ****   }
 168:src/pdantler/../pdantler/mooselib.h **** #endif
 169:src/pdantler/../pdantler/mooselib.h **** 
 170:src/pdantler/../pdantler/mooselib.h **** #ifndef MOOSELIB_PLAYDATE
 171:src/pdantler/../pdantler/mooselib.h **** #define MLIB_ASSERT(context, condition, ...) assert((condition))
 172:src/pdantler/../pdantler/mooselib.h **** #endif
 173:src/pdantler/../pdantler/mooselib.h **** 
 174:src/pdantler/../pdantler/mooselib.h **** // Wrappers for allocators. This allows overriding for systems like the playdate
 175:src/pdantler/../pdantler/mooselib.h **** // with dedicated allocators
 176:src/pdantler/../pdantler/mooselib.h **** #if !defined(MLIB_MALLOC) || !defined(MLIB_REALLOC) || !defined(MLIB_FREE)
 177:src/pdantler/../pdantler/mooselib.h **** #include <stdlib.h>
 178:src/pdantler/../pdantler/mooselib.h **** #define MLIB_MALLOC(size, ctx) (malloc(size))
 179:src/pdantler/../pdantler/mooselib.h **** #define MLIB_REALLOC(ptr, size, ctx) (realloc(ptr, size))
 180:src/pdantler/../pdantler/mooselib.h **** #define MLIB_FREE(ptr, ctx) (free(ptr))
 181:src/pdantler/../pdantler/mooselib.h **** #endif
 182:src/pdantler/../pdantler/mooselib.h **** 
 183:src/pdantler/../pdantler/mooselib.h **** // Custom variant of calloc that uses wrapper functions to allow for allocator
 184:src/pdantler/../pdantler/mooselib.h **** static inline void *MLIB_CALLOC(size_t nitems, size_t size, void *mem_ctx) {
 185:src/pdantler/../pdantler/mooselib.h ****   void *p = MLIB_MALLOC(nitems * size, mem_ctx);
 482              		.loc 2 185 13 view .LVU68
 483 0008 1C21     		movs	r1, #28	@,
 484 000a 7368     		ldr	r3, [r6, #4]	@ game_5(D)->mem_ctx, game_5(D)->mem_ctx
 485 000c 0020     		movs	r0, #0	@,
 486              	.LVL28:
 487              		.loc 2 185 13 view .LVU69
 488              	.LBE33:
 489              	.LBE32:
ARM GAS  /tmp/ccsJuLey.s 			page 18


 490              	@ src/pdantler/lifecycle.c:164:   game->debouncer.delay = DEFAULT_DEBOUNCE_DELAY;
 491              		.loc 1 164 25 view .LVU70
 492 000e B261     		str	r2, [r6, #24]	@ tmp201, game_5(D)->debouncer.delay
 165:src/pdantler/lifecycle.c **** 
 166:src/pdantler/lifecycle.c ****   init_fonts(game);
 493              		.loc 1 166 3 is_stmt 1 view .LVU71
 494              	.LVL29:
 121:src/pdantler/lifecycle.c ****   const char *outerr = NULL;
 495              		.loc 1 121 3 view .LVU72
 122:src/pdantler/lifecycle.c **** }
 496              		.loc 1 122 3 view .LVU73
 167:src/pdantler/lifecycle.c **** 
 168:src/pdantler/lifecycle.c ****   game->game_assets = MLIB_CALLOC(1, sizeof(GameAssets), game->mem_ctx);
 497              		.loc 1 168 3 view .LVU74
 498              	.LBB39:
 499              	.LBI32:
 184:src/pdantler/../pdantler/mooselib.h ****   void *p = MLIB_MALLOC(nitems * size, mem_ctx);
 500              		.loc 2 184 21 view .LVU75
 501              	.LBB37:
 502              		.loc 2 185 3 view .LVU76
 503              	@ src/pdantler/../pdantler/mooselib.h:185:   void *p = MLIB_MALLOC(nitems * size, mem_ctx);
 504              		.loc 2 185 13 is_stmt 0 view .LVU77
 505 0010 1B68     		ldr	r3, [r3]	@ _1->realloc, _1->realloc
 506              	.LVL30:
 507              		.loc 2 185 13 view .LVU78
 508 0012 9847     		blx	r3		@ _1->realloc
 509              	.LVL31:
 510              	.LBB34:
 511              	@ src/pdantler/../pdantler/mooselib.h:189:     ((char *)p)[i] = 0;
 186:src/pdantler/../pdantler/mooselib.h **** 
 187:src/pdantler/../pdantler/mooselib.h ****   // This should probably be replaced with a memcpy
 188:src/pdantler/../pdantler/mooselib.h ****   for (size_t i = 0; i < nitems * size; i++) {
 189:src/pdantler/../pdantler/mooselib.h ****     ((char *)p)[i] = 0;
 512              		.loc 2 189 20 view .LVU79
 513 0014 0023     		movs	r3, #0	@ tmp205,
 514              	.LBE34:
 515              	@ src/pdantler/../pdantler/mooselib.h:185:   void *p = MLIB_MALLOC(nitems * size, mem_ctx);
 185:src/pdantler/../pdantler/mooselib.h **** 
 516              		.loc 2 185 13 view .LVU80
 517 0016 0446     		mov	r4, r0	@ p, tmp298
 518              	.LVL32:
 185:src/pdantler/../pdantler/mooselib.h **** 
 519              		.loc 2 185 48 is_stmt 1 view .LVU81
 188:src/pdantler/../pdantler/mooselib.h ****     ((char *)p)[i] = 0;
 520              		.loc 2 188 3 view .LVU82
 521              	.LBB35:
 188:src/pdantler/../pdantler/mooselib.h ****     ((char *)p)[i] = 0;
 522              		.loc 2 188 8 view .LVU83
 188:src/pdantler/../pdantler/mooselib.h ****     ((char *)p)[i] = 0;
 523              		.loc 2 188 22 view .LVU84
 524              	.LBE35:
 525              	.LBE37:
 526              	.LBE39:
 527              	.LBB40:
 528              	.LBB41:
 529              	@ src/pdantler/lifecycle.c:14:       pd->graphics->loadBitmap("assets/speech_bubble.png", &outerr);
  14:src/pdantler/lifecycle.c ****   if (outerr) {
ARM GAS  /tmp/ccsJuLey.s 			page 19


 530              		.loc 1 14 7 is_stmt 0 view .LVU85
 531 0018 01A9     		add	r1, sp, #4	@ tmp310,,
 532              	.LBE41:
 533              	.LBE40:
 534              	.LBB46:
 535              	.LBB38:
 536              	.LBB36:
 537              	@ src/pdantler/../pdantler/mooselib.h:189:     ((char *)p)[i] = 0;
 538              		.loc 2 189 20 view .LVU86
 539 001a 0360     		str	r3, [r0]	@ unaligned	@ tmp205, MEM <char[1:28]> [(void *)p_101]
 540 001c 4360     		str	r3, [r0, #4]	@ unaligned	@ tmp205, MEM <char[1:28]> [(void *)p_101]
 541 001e 8360     		str	r3, [r0, #8]	@ unaligned	@ tmp205, MEM <char[1:28]> [(void *)p_101]
 542 0020 C360     		str	r3, [r0, #12]	@ unaligned	@ tmp205, MEM <char[1:28]> [(void *)p_101]
 543 0022 0361     		str	r3, [r0, #16]	@ unaligned	@ tmp205, MEM <char[1:28]> [(void *)p_101]
 544 0024 4361     		str	r3, [r0, #20]	@ unaligned	@ tmp205, MEM <char[1:28]> [(void *)p_101]
 545 0026 8361     		str	r3, [r0, #24]	@ unaligned	@ tmp205, MEM <char[1:28]> [(void *)p_101]
 546              	.LVL33:
 547              		.loc 2 189 20 view .LVU87
 548              	.LBE36:
 190:src/pdantler/../pdantler/mooselib.h ****   }
 191:src/pdantler/../pdantler/mooselib.h **** 
 192:src/pdantler/../pdantler/mooselib.h ****   return p;
 549              		.loc 2 192 3 is_stmt 1 view .LVU88
 550              		.loc 2 192 3 is_stmt 0 view .LVU89
 551 0028 3568     		ldr	r5, [r6]	@ _13, MEM[(struct PlaydateAPI * *)game_5(D)]
 552              	.LBE38:
 553              	.LBE46:
 554              	.LBB47:
 555              	.LBB42:
 556              	@ src/pdantler/lifecycle.c:11:   const char *outerr = NULL;
  11:src/pdantler/lifecycle.c **** 
 557              		.loc 1 11 15 view .LVU90
 558 002a 0193     		str	r3, [sp, #4]	@ tmp205, outerr
 559              	@ src/pdantler/lifecycle.c:14:       pd->graphics->loadBitmap("assets/speech_bubble.png", &outerr);
  14:src/pdantler/lifecycle.c ****   if (outerr) {
 560              		.loc 1 14 19 view .LVU91
 561 002c AB68     		ldr	r3, [r5, #8]	@ _13->graphics, _13->graphics
 562              	.LBE42:
 563              	.LBE47:
 564              	@ src/pdantler/lifecycle.c:168:   game->game_assets = MLIB_CALLOC(1, sizeof(GameAssets), game->mem_
 565              		.loc 1 168 21 view .LVU92
 566 002e F062     		str	r0, [r6, #44]	@ p, game_5(D)->game_assets
 169:src/pdantler/lifecycle.c ****   init_game_game(game, (GameAssets *)game->game_assets);
 567              		.loc 1 169 3 is_stmt 1 view .LVU93
 568              	.LVL34:
 569              	.LBB48:
 570              	.LBI40:
   9:src/pdantler/lifecycle.c ****   PlaydateAPI *pd = game->pd;
 571              		.loc 1 9 13 view .LVU94
 572              	.LBB43:
  10:src/pdantler/lifecycle.c ****   const char *outerr = NULL;
 573              		.loc 1 10 3 view .LVU95
  11:src/pdantler/lifecycle.c **** 
 574              		.loc 1 11 3 view .LVU96
  13:src/pdantler/lifecycle.c ****       pd->graphics->loadBitmap("assets/speech_bubble.png", &outerr);
 575              		.loc 1 13 3 view .LVU97
 576              	@ src/pdantler/lifecycle.c:14:       pd->graphics->loadBitmap("assets/speech_bubble.png", &outerr);
ARM GAS  /tmp/ccsJuLey.s 			page 20


  14:src/pdantler/lifecycle.c ****   if (outerr) {
 577              		.loc 1 14 7 is_stmt 0 view .LVU98
 578 0030 5B6E     		ldr	r3, [r3, #100]	@ _28->loadBitmap, _28->loadBitmap
 579 0032 5C48     		ldr	r0, .L32	@,
 580              	.LVL35:
  14:src/pdantler/lifecycle.c ****   if (outerr) {
 581              		.loc 1 14 7 view .LVU99
 582 0034 9847     		blx	r3		@ _28->loadBitmap
 583              	.LVL36:
 584              	@ src/pdantler/lifecycle.c:15:   if (outerr) {
  15:src/pdantler/lifecycle.c ****     pdlogger_error("init_game_game: error loading image speech_bubble_base. %s",
 585              		.loc 1 15 7 view .LVU100
 586 0036 0199     		ldr	r1, [sp, #4]	@ outerr.0_31, outerr
 587              	@ src/pdantler/lifecycle.c:13:   assets->speech_bubble_base_image =
  13:src/pdantler/lifecycle.c ****       pd->graphics->loadBitmap("assets/speech_bubble.png", &outerr);
 588              		.loc 1 13 36 view .LVU101
 589 0038 A061     		str	r0, [r4, #24]	@ tmp299, MEM[(struct GameAssets *)p_101].speech_bubble_base_image
  15:src/pdantler/lifecycle.c ****     pdlogger_error("init_game_game: error loading image speech_bubble_base. %s",
 590              		.loc 1 15 3 is_stmt 1 view .LVU102
 591              	@ src/pdantler/lifecycle.c:15:   if (outerr) {
  15:src/pdantler/lifecycle.c ****     pdlogger_error("init_game_game: error loading image speech_bubble_base. %s",
 592              		.loc 1 15 6 is_stmt 0 view .LVU103
 593 003a 11B1     		cbz	r1, .L13	@ outerr.0_31,
  16:src/pdantler/lifecycle.c ****                    outerr);
 594              		.loc 1 16 5 is_stmt 1 view .LVU104
 595 003c 5A48     		ldr	r0, .L32+4	@,
 596 003e FFF7FEFF 		bl	pdlogger_error		@
 597              	.LVL37:
 598              	.L13:
  20:src/pdantler/lifecycle.c ****       pd->graphics->loadBitmap("assets/background.png", &outerr);
 599              		.loc 1 20 3 view .LVU105
 600              	@ src/pdantler/lifecycle.c:21:       pd->graphics->loadBitmap("assets/background.png", &outerr);
  21:src/pdantler/lifecycle.c ****   if (outerr) {
 601              		.loc 1 21 19 is_stmt 0 view .LVU106
 602 0042 AB68     		ldr	r3, [r5, #8]	@ _13->graphics, _13->graphics
 603              	@ src/pdantler/lifecycle.c:21:       pd->graphics->loadBitmap("assets/background.png", &outerr);
  21:src/pdantler/lifecycle.c ****   if (outerr) {
 604              		.loc 1 21 7 view .LVU107
 605 0044 01A9     		add	r1, sp, #4	@ tmp311,,
 606 0046 5948     		ldr	r0, .L32+8	@,
 607 0048 5B6E     		ldr	r3, [r3, #100]	@ _32->loadBitmap, _32->loadBitmap
 608 004a 9847     		blx	r3		@ _32->loadBitmap
 609              	.LVL38:
 610              	@ src/pdantler/lifecycle.c:22:   if (outerr) {
  22:src/pdantler/lifecycle.c ****     pdlogger_error("init_game_game: error loading image background. %s",
 611              		.loc 1 22 7 view .LVU108
 612 004c 0199     		ldr	r1, [sp, #4]	@ outerr.2_35, outerr
 613              	@ src/pdantler/lifecycle.c:20:   assets->background_image =
  20:src/pdantler/lifecycle.c ****       pd->graphics->loadBitmap("assets/background.png", &outerr);
 614              		.loc 1 20 28 view .LVU109
 615 004e 2060     		str	r0, [r4]	@ _34, MEM[(struct GameAssets *)p_101].background_image
  22:src/pdantler/lifecycle.c ****     pdlogger_error("init_game_game: error loading image background. %s",
 616              		.loc 1 22 3 is_stmt 1 view .LVU110
 617              	@ src/pdantler/lifecycle.c:22:   if (outerr) {
  22:src/pdantler/lifecycle.c ****     pdlogger_error("init_game_game: error loading image background. %s",
 618              		.loc 1 22 6 is_stmt 0 view .LVU111
 619 0050 19B1     		cbz	r1, .L14	@ outerr.2_35,
ARM GAS  /tmp/ccsJuLey.s 			page 21


  23:src/pdantler/lifecycle.c ****                    outerr);
 620              		.loc 1 23 5 is_stmt 1 view .LVU112
 621 0052 5748     		ldr	r0, .L32+12	@,
 622 0054 FFF7FEFF 		bl	pdlogger_error		@
 623              	.LVL39:
 624              	@ src/pdantler/lifecycle.c:27:   if (!assets->background_image) {
  27:src/pdantler/lifecycle.c ****     pdlogger_error("init_game_game: image background loaded as null.");
 625              		.loc 1 27 14 is_stmt 0 view .LVU113
 626 0058 2068     		ldr	r0, [r4]	@ _34, MEM[(struct GameAssets *)p_101].background_image
 627              	.L14:
  27:src/pdantler/lifecycle.c ****     pdlogger_error("init_game_game: image background loaded as null.");
 628              		.loc 1 27 3 is_stmt 1 view .LVU114
 629              	@ src/pdantler/lifecycle.c:27:   if (!assets->background_image) {
  27:src/pdantler/lifecycle.c ****     pdlogger_error("init_game_game: image background loaded as null.");
 630              		.loc 1 27 6 is_stmt 0 view .LVU115
 631 005a 0028     		cmp	r0, #0	@ _34
 632 005c 00F09680 		beq	.L29	@
 633              	.L15:
  31:src/pdantler/lifecycle.c **** 
 634              		.loc 1 31 3 is_stmt 1 view .LVU116
 635              	@ src/pdantler/lifecycle.c:31:   assets->background_sprite = pd->sprite->newSprite();
  31:src/pdantler/lifecycle.c **** 
 636              		.loc 1 31 41 is_stmt 0 view .LVU117
 637 0060 EB68     		ldr	r3, [r5, #12]	@ _13->sprite, _13->sprite
 638              	@ src/pdantler/lifecycle.c:31:   assets->background_sprite = pd->sprite->newSprite();
  31:src/pdantler/lifecycle.c **** 
 639              		.loc 1 31 31 view .LVU118
 640 0062 1B69     		ldr	r3, [r3, #16]	@ _37->newSprite, _37->newSprite
 641 0064 9847     		blx	r3		@ _37->newSprite
 642              	.LVL40:
 643              	@ src/pdantler/lifecycle.c:33:   pd->sprite->setImage(assets->background_sprite, assets->background
  33:src/pdantler/lifecycle.c ****                        kBitmapUnflipped);
 644              		.loc 1 33 13 view .LVU119
 645 0066 EB68     		ldr	r3, [r5, #12]	@ _13->sprite, _13->sprite
 646              	@ src/pdantler/lifecycle.c:33:   pd->sprite->setImage(assets->background_sprite, assets->background
  33:src/pdantler/lifecycle.c ****                        kBitmapUnflipped);
 647              		.loc 1 33 3 view .LVU120
 648 0068 0022     		movs	r2, #0	@,
 649 006a 2168     		ldr	r1, [r4]	@, MEM[(struct GameAssets *)p_101].background_image
 650 006c 1B6C     		ldr	r3, [r3, #64]	@ _40->setImage, _40->setImage
 651              	@ src/pdantler/lifecycle.c:31:   assets->background_sprite = pd->sprite->newSprite();
  31:src/pdantler/lifecycle.c **** 
 652              		.loc 1 31 29 view .LVU121
 653 006e 6060     		str	r0, [r4, #4]	@ tmp301, MEM[(struct GameAssets *)p_101].background_sprite
  33:src/pdantler/lifecycle.c ****                        kBitmapUnflipped);
 654              		.loc 1 33 3 is_stmt 1 view .LVU122
 655 0070 9847     		blx	r3		@ _40->setImage
 656              	.LVL41:
  35:src/pdantler/lifecycle.c **** 
 657              		.loc 1 35 3 view .LVU123
 658              	@ src/pdantler/lifecycle.c:35:   pd->sprite->setZIndex(assets->background_sprite, 1);
  35:src/pdantler/lifecycle.c **** 
 659              		.loc 1 35 13 is_stmt 0 view .LVU124
 660 0072 EB68     		ldr	r3, [r5, #12]	@ _13->sprite, _13->sprite
 661              	@ src/pdantler/lifecycle.c:35:   pd->sprite->setZIndex(assets->background_sprite, 1);
  35:src/pdantler/lifecycle.c **** 
 662              		.loc 1 35 3 view .LVU125
ARM GAS  /tmp/ccsJuLey.s 			page 22


 663 0074 0121     		movs	r1, #1	@,
 664 0076 6068     		ldr	r0, [r4, #4]	@, MEM[(struct GameAssets *)p_101].background_sprite
 665 0078 DB6C     		ldr	r3, [r3, #76]	@ _43->setZIndex, _43->setZIndex
 666 007a 9847     		blx	r3		@ _43->setZIndex
 667              	.LVL42:
  37:src/pdantler/lifecycle.c ****   pd->sprite->addSprite(assets->background_sprite);
 668              		.loc 1 37 3 is_stmt 1 view .LVU126
 669              	@ src/pdantler/lifecycle.c:37:   pd->sprite->moveTo(assets->background_sprite, 200, 120);
  37:src/pdantler/lifecycle.c ****   pd->sprite->addSprite(assets->background_sprite);
 670              		.loc 1 37 13 is_stmt 0 view .LVU127
 671 007c EB68     		ldr	r3, [r5, #12]	@ _13->sprite, _13->sprite
 672              	@ src/pdantler/lifecycle.c:37:   pd->sprite->moveTo(assets->background_sprite, 200, 120);
  37:src/pdantler/lifecycle.c ****   pd->sprite->addSprite(assets->background_sprite);
 673              		.loc 1 37 3 view .LVU128
 674 007e DFED4D0A 		vldr.32	s1, .L32+16	@,
 675 0082 9FED4D0A 		vldr.32	s0, .L32+20	@,
 676 0086 9B6B     		ldr	r3, [r3, #56]	@ _46->moveTo, _46->moveTo
 677 0088 6068     		ldr	r0, [r4, #4]	@, MEM[(struct GameAssets *)p_101].background_sprite
 678 008a 9847     		blx	r3		@ _46->moveTo
 679              	.LVL43:
  38:src/pdantler/lifecycle.c ****   // Sprite are always invisible when created in init. They will be
 680              		.loc 1 38 3 is_stmt 1 view .LVU129
 681              	@ src/pdantler/lifecycle.c:38:   pd->sprite->addSprite(assets->background_sprite);
  38:src/pdantler/lifecycle.c ****   // Sprite are always invisible when created in init. They will be
 682              		.loc 1 38 13 is_stmt 0 view .LVU130
 683 008c EB68     		ldr	r3, [r5, #12]	@ _13->sprite, _13->sprite
 684              	@ src/pdantler/lifecycle.c:38:   pd->sprite->addSprite(assets->background_sprite);
  38:src/pdantler/lifecycle.c ****   // Sprite are always invisible when created in init. They will be
 685              		.loc 1 38 3 view .LVU131
 686 008e 6068     		ldr	r0, [r4, #4]	@, MEM[(struct GameAssets *)p_101].background_sprite
 687 0090 DB69     		ldr	r3, [r3, #28]	@ _49->addSprite, _49->addSprite
 688 0092 9847     		blx	r3		@ _49->addSprite
 689              	.LVL44:
  41:src/pdantler/lifecycle.c **** 
 690              		.loc 1 41 3 is_stmt 1 view .LVU132
 691              	@ src/pdantler/lifecycle.c:41:   pd->sprite->setVisible(assets->background_sprite, false);
  41:src/pdantler/lifecycle.c **** 
 692              		.loc 1 41 13 is_stmt 0 view .LVU133
 693 0094 EB68     		ldr	r3, [r5, #12]	@ _13->sprite, _13->sprite
 694              	@ src/pdantler/lifecycle.c:41:   pd->sprite->setVisible(assets->background_sprite, false);
  41:src/pdantler/lifecycle.c **** 
 695              		.loc 1 41 3 view .LVU134
 696 0096 0021     		movs	r1, #0	@,
 697 0098 6068     		ldr	r0, [r4, #4]	@, MEM[(struct GameAssets *)p_101].background_sprite
 698 009a D3F88430 		ldr	r3, [r3, #132]	@ _52->setVisible, _52->setVisible
 699 009e 9847     		blx	r3		@ _52->setVisible
 700              	.LVL45:
  43:src/pdantler/lifecycle.c ****   if (outerr) {
 701              		.loc 1 43 3 is_stmt 1 view .LVU135
 702              	@ src/pdantler/lifecycle.c:43:   assets->bird_image = pd->graphics->loadBitmap("assets/bird2.png", 
  43:src/pdantler/lifecycle.c ****   if (outerr) {
 703              		.loc 1 43 36 is_stmt 0 view .LVU136
 704 00a0 AB68     		ldr	r3, [r5, #8]	@ _13->graphics, _13->graphics
 705              	@ src/pdantler/lifecycle.c:43:   assets->bird_image = pd->graphics->loadBitmap("assets/bird2.png", 
  43:src/pdantler/lifecycle.c ****   if (outerr) {
 706              		.loc 1 43 24 view .LVU137
 707 00a2 01A9     		add	r1, sp, #4	@ tmp312,,
ARM GAS  /tmp/ccsJuLey.s 			page 23


 708 00a4 4548     		ldr	r0, .L32+24	@,
 709 00a6 5B6E     		ldr	r3, [r3, #100]	@ _55->loadBitmap, _55->loadBitmap
 710 00a8 9847     		blx	r3		@ _55->loadBitmap
 711              	.LVL46:
 712              	@ src/pdantler/lifecycle.c:44:   if (outerr) {
  44:src/pdantler/lifecycle.c ****     pdlogger_error("init_game_game: error loading image bird. %s", outerr);
 713              		.loc 1 44 7 view .LVU138
 714 00aa 0199     		ldr	r1, [sp, #4]	@ outerr.4_58, outerr
 715              	@ src/pdantler/lifecycle.c:43:   assets->bird_image = pd->graphics->loadBitmap("assets/bird2.png", 
  43:src/pdantler/lifecycle.c ****   if (outerr) {
 716              		.loc 1 43 22 view .LVU139
 717 00ac A060     		str	r0, [r4, #8]	@ _57, MEM[(struct GameAssets *)p_101].bird_image
  44:src/pdantler/lifecycle.c ****     pdlogger_error("init_game_game: error loading image bird. %s", outerr);
 718              		.loc 1 44 3 is_stmt 1 view .LVU140
 719              	@ src/pdantler/lifecycle.c:44:   if (outerr) {
  44:src/pdantler/lifecycle.c ****     pdlogger_error("init_game_game: error loading image bird. %s", outerr);
 720              		.loc 1 44 6 is_stmt 0 view .LVU141
 721 00ae 19B1     		cbz	r1, .L16	@ outerr.4_58,
  45:src/pdantler/lifecycle.c ****   }
 722              		.loc 1 45 5 is_stmt 1 view .LVU142
 723 00b0 4348     		ldr	r0, .L32+28	@,
 724 00b2 FFF7FEFF 		bl	pdlogger_error		@
 725              	.LVL47:
 726              	@ src/pdantler/lifecycle.c:48:   if (!assets->bird_image) {
  48:src/pdantler/lifecycle.c ****     pdlogger_error("init_game_game: image bird loaded as null.");
 727              		.loc 1 48 14 is_stmt 0 view .LVU143
 728 00b6 A068     		ldr	r0, [r4, #8]	@ _57, MEM[(struct GameAssets *)p_101].bird_image
 729              	.L16:
  48:src/pdantler/lifecycle.c ****     pdlogger_error("init_game_game: image bird loaded as null.");
 730              		.loc 1 48 3 is_stmt 1 view .LVU144
 731              	@ src/pdantler/lifecycle.c:48:   if (!assets->bird_image) {
  48:src/pdantler/lifecycle.c ****     pdlogger_error("init_game_game: image bird loaded as null.");
 732              		.loc 1 48 6 is_stmt 0 view .LVU145
 733 00b8 0028     		cmp	r0, #0	@ _57
 734 00ba 6BD0     		beq	.L30	@
 735              	.L17:
  52:src/pdantler/lifecycle.c **** 
 736              		.loc 1 52 3 is_stmt 1 view .LVU146
 737              	@ src/pdantler/lifecycle.c:52:   assets->bird_sprite = pd->sprite->newSprite();
  52:src/pdantler/lifecycle.c **** 
 738              		.loc 1 52 35 is_stmt 0 view .LVU147
 739 00bc EB68     		ldr	r3, [r5, #12]	@ _13->sprite, _13->sprite
 740              	@ src/pdantler/lifecycle.c:52:   assets->bird_sprite = pd->sprite->newSprite();
  52:src/pdantler/lifecycle.c **** 
 741              		.loc 1 52 25 view .LVU148
 742 00be 1B69     		ldr	r3, [r3, #16]	@ _60->newSprite, _60->newSprite
 743 00c0 9847     		blx	r3		@ _60->newSprite
 744              	.LVL48:
 745              	@ src/pdantler/lifecycle.c:54:   pd->sprite->setImage(assets->bird_sprite, assets->bird_image,
  54:src/pdantler/lifecycle.c ****                        kBitmapUnflipped);
 746              		.loc 1 54 13 view .LVU149
 747 00c2 EB68     		ldr	r3, [r5, #12]	@ _13->sprite, _13->sprite
 748              	@ src/pdantler/lifecycle.c:54:   pd->sprite->setImage(assets->bird_sprite, assets->bird_image,
  54:src/pdantler/lifecycle.c ****                        kBitmapUnflipped);
 749              		.loc 1 54 3 view .LVU150
 750 00c4 0022     		movs	r2, #0	@,
 751 00c6 A168     		ldr	r1, [r4, #8]	@, MEM[(struct GameAssets *)p_101].bird_image
ARM GAS  /tmp/ccsJuLey.s 			page 24


 752 00c8 1B6C     		ldr	r3, [r3, #64]	@ _63->setImage, _63->setImage
 753              	@ src/pdantler/lifecycle.c:52:   assets->bird_sprite = pd->sprite->newSprite();
  52:src/pdantler/lifecycle.c **** 
 754              		.loc 1 52 23 view .LVU151
 755 00ca E060     		str	r0, [r4, #12]	@ tmp303, MEM[(struct GameAssets *)p_101].bird_sprite
  54:src/pdantler/lifecycle.c ****                        kBitmapUnflipped);
 756              		.loc 1 54 3 is_stmt 1 view .LVU152
 757 00cc 9847     		blx	r3		@ _63->setImage
 758              	.LVL49:
  56:src/pdantler/lifecycle.c **** 
 759              		.loc 1 56 3 view .LVU153
 760              	@ src/pdantler/lifecycle.c:56:   pd->sprite->setZIndex(assets->bird_sprite, 2);
  56:src/pdantler/lifecycle.c **** 
 761              		.loc 1 56 13 is_stmt 0 view .LVU154
 762 00ce EB68     		ldr	r3, [r5, #12]	@ _13->sprite, _13->sprite
 763              	@ src/pdantler/lifecycle.c:56:   pd->sprite->setZIndex(assets->bird_sprite, 2);
  56:src/pdantler/lifecycle.c **** 
 764              		.loc 1 56 3 view .LVU155
 765 00d0 0221     		movs	r1, #2	@,
 766 00d2 E068     		ldr	r0, [r4, #12]	@, MEM[(struct GameAssets *)p_101].bird_sprite
 767 00d4 DB6C     		ldr	r3, [r3, #76]	@ _66->setZIndex, _66->setZIndex
 768 00d6 9847     		blx	r3		@ _66->setZIndex
 769              	.LVL50:
  58:src/pdantler/lifecycle.c ****   pd->sprite->addSprite(assets->bird_sprite);
 770              		.loc 1 58 3 is_stmt 1 view .LVU156
 771              	@ src/pdantler/lifecycle.c:58:   pd->sprite->moveTo(assets->bird_sprite, 200, 120);
  58:src/pdantler/lifecycle.c ****   pd->sprite->addSprite(assets->bird_sprite);
 772              		.loc 1 58 13 is_stmt 0 view .LVU157
 773 00d8 EB68     		ldr	r3, [r5, #12]	@ _13->sprite, _13->sprite
 774              	@ src/pdantler/lifecycle.c:58:   pd->sprite->moveTo(assets->bird_sprite, 200, 120);
  58:src/pdantler/lifecycle.c ****   pd->sprite->addSprite(assets->bird_sprite);
 775              		.loc 1 58 3 view .LVU158
 776 00da DFED360A 		vldr.32	s1, .L32+16	@,
 777 00de 9FED360A 		vldr.32	s0, .L32+20	@,
 778 00e2 E068     		ldr	r0, [r4, #12]	@, MEM[(struct GameAssets *)p_101].bird_sprite
 779 00e4 9B6B     		ldr	r3, [r3, #56]	@ _69->moveTo, _69->moveTo
 780 00e6 9847     		blx	r3		@ _69->moveTo
 781              	.LVL51:
  59:src/pdantler/lifecycle.c ****   // Sprite are always invisible when created in init. They will be
 782              		.loc 1 59 3 is_stmt 1 view .LVU159
 783              	@ src/pdantler/lifecycle.c:59:   pd->sprite->addSprite(assets->bird_sprite);
  59:src/pdantler/lifecycle.c ****   // Sprite are always invisible when created in init. They will be
 784              		.loc 1 59 13 is_stmt 0 view .LVU160
 785 00e8 EB68     		ldr	r3, [r5, #12]	@ _13->sprite, _13->sprite
 786              	@ src/pdantler/lifecycle.c:59:   pd->sprite->addSprite(assets->bird_sprite);
  59:src/pdantler/lifecycle.c ****   // Sprite are always invisible when created in init. They will be
 787              		.loc 1 59 3 view .LVU161
 788 00ea E068     		ldr	r0, [r4, #12]	@, MEM[(struct GameAssets *)p_101].bird_sprite
 789 00ec DB69     		ldr	r3, [r3, #28]	@ _72->addSprite, _72->addSprite
 790 00ee 9847     		blx	r3		@ _72->addSprite
 791              	.LVL52:
  62:src/pdantler/lifecycle.c **** 
 792              		.loc 1 62 3 is_stmt 1 view .LVU162
 793              	@ src/pdantler/lifecycle.c:62:   pd->sprite->setVisible(assets->bird_sprite, false);
  62:src/pdantler/lifecycle.c **** 
 794              		.loc 1 62 13 is_stmt 0 view .LVU163
 795 00f0 EB68     		ldr	r3, [r5, #12]	@ _13->sprite, _13->sprite
ARM GAS  /tmp/ccsJuLey.s 			page 25


 796              	@ src/pdantler/lifecycle.c:62:   pd->sprite->setVisible(assets->bird_sprite, false);
  62:src/pdantler/lifecycle.c **** 
 797              		.loc 1 62 3 view .LVU164
 798 00f2 0021     		movs	r1, #0	@,
 799 00f4 E068     		ldr	r0, [r4, #12]	@, MEM[(struct GameAssets *)p_101].bird_sprite
 800 00f6 D3F88430 		ldr	r3, [r3, #132]	@ _75->setVisible, _75->setVisible
 801 00fa 9847     		blx	r3		@ _75->setVisible
 802              	.LVL53:
  64:src/pdantler/lifecycle.c **** 
 803              		.loc 1 64 3 is_stmt 1 view .LVU165
 804              	@ src/pdantler/lifecycle.c:64:   assets->speech_bubble_image = pd->graphics->newBitmap(144, 55, kCo
  64:src/pdantler/lifecycle.c **** 
 805              		.loc 1 64 45 is_stmt 0 view .LVU166
 806 00fc AB68     		ldr	r3, [r5, #8]	@ _13->graphics, _13->graphics
 807              	@ src/pdantler/lifecycle.c:64:   assets->speech_bubble_image = pd->graphics->newBitmap(144, 55, kCo
  64:src/pdantler/lifecycle.c **** 
 808              		.loc 1 64 33 view .LVU167
 809 00fe 0122     		movs	r2, #1	@,
 810 0100 3721     		movs	r1, #55	@,
 811 0102 DB6D     		ldr	r3, [r3, #92]	@ _78->newBitmap, _78->newBitmap
 812 0104 9020     		movs	r0, #144	@,
 813 0106 9847     		blx	r3		@ _78->newBitmap
 814              	.LVL54:
 815              	@ src/pdantler/lifecycle.c:64:   assets->speech_bubble_image = pd->graphics->newBitmap(144, 55, kCo
  64:src/pdantler/lifecycle.c **** 
 816              		.loc 1 64 31 view .LVU168
 817 0108 2061     		str	r0, [r4, #16]	@ _80, MEM[(struct GameAssets *)p_101].speech_bubble_image
  66:src/pdantler/lifecycle.c ****     pdlogger_error("init_game_game: image speech_bubble loaded as null.");
 818              		.loc 1 66 3 is_stmt 1 view .LVU169
 819              	@ src/pdantler/lifecycle.c:66:   if (!assets->speech_bubble_image) {
  66:src/pdantler/lifecycle.c ****     pdlogger_error("init_game_game: image speech_bubble loaded as null.");
 820              		.loc 1 66 6 is_stmt 0 view .LVU170
 821 010a 0028     		cmp	r0, #0	@ _80
 822 010c 46D0     		beq	.L31	@
 823              	.L18:
  70:src/pdantler/lifecycle.c **** 
 824              		.loc 1 70 3 is_stmt 1 view .LVU171
 825              	@ src/pdantler/lifecycle.c:70:   assets->speech_bubble_sprite = pd->sprite->newSprite();
  70:src/pdantler/lifecycle.c **** 
 826              		.loc 1 70 44 is_stmt 0 view .LVU172
 827 010e EB68     		ldr	r3, [r5, #12]	@ _13->sprite, _13->sprite
 828              	@ src/pdantler/lifecycle.c:70:   assets->speech_bubble_sprite = pd->sprite->newSprite();
  70:src/pdantler/lifecycle.c **** 
 829              		.loc 1 70 34 view .LVU173
 830 0110 1B69     		ldr	r3, [r3, #16]	@ _81->newSprite, _81->newSprite
 831 0112 9847     		blx	r3		@ _81->newSprite
 832              	.LVL55:
 833              	@ src/pdantler/lifecycle.c:72:   pd->sprite->setImage(assets->speech_bubble_sprite,
  72:src/pdantler/lifecycle.c ****                        assets->speech_bubble_image, kBitmapUnflipped);
 834              		.loc 1 72 13 view .LVU174
 835 0114 EB68     		ldr	r3, [r5, #12]	@ _13->sprite, _13->sprite
 836              	@ src/pdantler/lifecycle.c:72:   pd->sprite->setImage(assets->speech_bubble_sprite,
  72:src/pdantler/lifecycle.c ****                        assets->speech_bubble_image, kBitmapUnflipped);
 837              		.loc 1 72 3 view .LVU175
 838 0116 0022     		movs	r2, #0	@,
 839 0118 2169     		ldr	r1, [r4, #16]	@, MEM[(struct GameAssets *)p_101].speech_bubble_image
 840              	@ src/pdantler/lifecycle.c:70:   assets->speech_bubble_sprite = pd->sprite->newSprite();
ARM GAS  /tmp/ccsJuLey.s 			page 26


  70:src/pdantler/lifecycle.c **** 
 841              		.loc 1 70 32 view .LVU176
 842 011a 6061     		str	r0, [r4, #20]	@ tmp305, MEM[(struct GameAssets *)p_101].speech_bubble_sprite
  72:src/pdantler/lifecycle.c ****                        assets->speech_bubble_image, kBitmapUnflipped);
 843              		.loc 1 72 3 is_stmt 1 view .LVU177
 844 011c 1B6C     		ldr	r3, [r3, #64]	@ _84->setImage, _84->setImage
 845 011e 9847     		blx	r3		@ _84->setImage
 846              	.LVL56:
  74:src/pdantler/lifecycle.c **** 
 847              		.loc 1 74 3 view .LVU178
 848              	@ src/pdantler/lifecycle.c:74:   pd->sprite->setZIndex(assets->speech_bubble_sprite, 3);
  74:src/pdantler/lifecycle.c **** 
 849              		.loc 1 74 13 is_stmt 0 view .LVU179
 850 0120 EB68     		ldr	r3, [r5, #12]	@ _13->sprite, _13->sprite
 851              	@ src/pdantler/lifecycle.c:74:   pd->sprite->setZIndex(assets->speech_bubble_sprite, 3);
  74:src/pdantler/lifecycle.c **** 
 852              		.loc 1 74 3 view .LVU180
 853 0122 0321     		movs	r1, #3	@,
 854 0124 6069     		ldr	r0, [r4, #20]	@, MEM[(struct GameAssets *)p_101].speech_bubble_sprite
 855 0126 DB6C     		ldr	r3, [r3, #76]	@ _87->setZIndex, _87->setZIndex
 856 0128 9847     		blx	r3		@ _87->setZIndex
 857              	.LVL57:
  76:src/pdantler/lifecycle.c ****   pd->sprite->addSprite(assets->speech_bubble_sprite);
 858              		.loc 1 76 3 is_stmt 1 view .LVU181
 859              	@ src/pdantler/lifecycle.c:76:   pd->sprite->moveTo(assets->speech_bubble_sprite, 200, 120);
  76:src/pdantler/lifecycle.c ****   pd->sprite->addSprite(assets->speech_bubble_sprite);
 860              		.loc 1 76 13 is_stmt 0 view .LVU182
 861 012a EB68     		ldr	r3, [r5, #12]	@ _13->sprite, _13->sprite
 862              	@ src/pdantler/lifecycle.c:76:   pd->sprite->moveTo(assets->speech_bubble_sprite, 200, 120);
  76:src/pdantler/lifecycle.c ****   pd->sprite->addSprite(assets->speech_bubble_sprite);
 863              		.loc 1 76 3 view .LVU183
 864 012c DFED210A 		vldr.32	s1, .L32+16	@,
 865 0130 9FED210A 		vldr.32	s0, .L32+20	@,
 866 0134 6069     		ldr	r0, [r4, #20]	@, MEM[(struct GameAssets *)p_101].speech_bubble_sprite
 867 0136 9B6B     		ldr	r3, [r3, #56]	@ _90->moveTo, _90->moveTo
 868 0138 9847     		blx	r3		@ _90->moveTo
 869              	.LVL58:
  77:src/pdantler/lifecycle.c ****   // Sprite are always invisible when created in init. They will be
 870              		.loc 1 77 3 is_stmt 1 view .LVU184
 871              	@ src/pdantler/lifecycle.c:77:   pd->sprite->addSprite(assets->speech_bubble_sprite);
  77:src/pdantler/lifecycle.c ****   // Sprite are always invisible when created in init. They will be
 872              		.loc 1 77 13 is_stmt 0 view .LVU185
 873 013a EB68     		ldr	r3, [r5, #12]	@ _13->sprite, _13->sprite
 874              	@ src/pdantler/lifecycle.c:77:   pd->sprite->addSprite(assets->speech_bubble_sprite);
  77:src/pdantler/lifecycle.c ****   // Sprite are always invisible when created in init. They will be
 875              		.loc 1 77 3 view .LVU186
 876 013c 6069     		ldr	r0, [r4, #20]	@, MEM[(struct GameAssets *)p_101].speech_bubble_sprite
 877 013e DB69     		ldr	r3, [r3, #28]	@ _93->addSprite, _93->addSprite
 878 0140 9847     		blx	r3		@ _93->addSprite
 879              	.LVL59:
  80:src/pdantler/lifecycle.c **** }
 880              		.loc 1 80 3 is_stmt 1 view .LVU187
 881              	@ src/pdantler/lifecycle.c:80:   pd->sprite->setVisible(assets->speech_bubble_sprite, false);
  80:src/pdantler/lifecycle.c **** }
 882              		.loc 1 80 13 is_stmt 0 view .LVU188
 883 0142 EB68     		ldr	r3, [r5, #12]	@ _13->sprite, _13->sprite
 884              	@ src/pdantler/lifecycle.c:80:   pd->sprite->setVisible(assets->speech_bubble_sprite, false);
ARM GAS  /tmp/ccsJuLey.s 			page 27


  80:src/pdantler/lifecycle.c **** }
 885              		.loc 1 80 3 view .LVU189
 886 0144 6069     		ldr	r0, [r4, #20]	@, MEM[(struct GameAssets *)p_101].speech_bubble_sprite
 887 0146 0021     		movs	r1, #0	@,
 888 0148 D3F88430 		ldr	r3, [r3, #132]	@ _96->setVisible, _96->setVisible
 889              	.LBE43:
 890              	.LBE48:
 891              	.LBB49:
 892              	.LBB50:
 893              	@ src/pdantler/lifecycle.c:127:   game->music_active = true;
 127:src/pdantler/lifecycle.c ****   game->music_player = pd->sound->sampleplayer->newPlayer();
 894              		.loc 1 127 22 view .LVU190
 895 014c 0125     		movs	r5, #1	@ tmp285,
 896              	.LVL60:
 127:src/pdantler/lifecycle.c ****   game->music_player = pd->sound->sampleplayer->newPlayer();
 897              		.loc 1 127 22 view .LVU191
 898              	.LBE50:
 899              	.LBE49:
 900              	.LBB54:
 901              	.LBB44:
 902              	@ src/pdantler/lifecycle.c:80:   pd->sprite->setVisible(assets->speech_bubble_sprite, false);
  80:src/pdantler/lifecycle.c **** }
 903              		.loc 1 80 3 view .LVU192
 904 014e 9847     		blx	r3		@ _96->setVisible
 905              	.LVL61:
  80:src/pdantler/lifecycle.c **** }
 906              		.loc 1 80 3 view .LVU193
 907              	.LBE44:
 908              	.LBE54:
 170:src/pdantler/lifecycle.c **** 
 171:src/pdantler/lifecycle.c ****   // This should change
 172:src/pdantler/lifecycle.c ****   // to being on demand and having some kind of loading process
 173:src/pdantler/lifecycle.c ****   // (which also handles the sprite loads from init_game)
 174:src/pdantler/lifecycle.c ****   init_game(game, (GameAssets *)game->game_assets);
 909              		.loc 1 174 3 is_stmt 1 view .LVU194
 910 0150 F16A     		ldr	r1, [r6, #44]	@, game_5(D)->game_assets
 911 0152 3046     		mov	r0, r6	@, game
 912 0154 FFF7FEFF 		bl	init_game		@
 913              	.LVL62:
 175:src/pdantler/lifecycle.c **** 
 176:src/pdantler/lifecycle.c ****   init_sounds(game);
 914              		.loc 1 176 3 view .LVU195
 915              	.LBB55:
 916              	.LBI49:
 125:src/pdantler/lifecycle.c ****   PlaydateAPI *pd = game->pd;
 917              		.loc 1 125 13 view .LVU196
 918              	.LBB51:
 126:src/pdantler/lifecycle.c ****   game->music_active = true;
 919              		.loc 1 126 3 view .LVU197
 920              	@ src/pdantler/lifecycle.c:126:   PlaydateAPI *pd = game->pd;
 126:src/pdantler/lifecycle.c ****   game->music_active = true;
 921              		.loc 1 126 16 is_stmt 0 view .LVU198
 922 0158 3468     		ldr	r4, [r6]	@ pd, game_5(D)->pd
 923              	.LVL63:
 127:src/pdantler/lifecycle.c ****   game->music_player = pd->sound->sampleplayer->newPlayer();
 924              		.loc 1 127 3 is_stmt 1 view .LVU199
 925              	@ src/pdantler/lifecycle.c:127:   game->music_active = true;
ARM GAS  /tmp/ccsJuLey.s 			page 28


 127:src/pdantler/lifecycle.c ****   game->music_player = pd->sound->sampleplayer->newPlayer();
 926              		.loc 1 127 22 is_stmt 0 view .LVU200
 927 015a 86F82850 		strb	r5, [r6, #40]	@ tmp285, game_5(D)->music_active
 128:src/pdantler/lifecycle.c ****   game->sfx_1_player = pd->sound->sampleplayer->newPlayer();
 928              		.loc 1 128 3 is_stmt 1 view .LVU201
 929              	@ src/pdantler/lifecycle.c:128:   game->music_player = pd->sound->sampleplayer->newPlayer();
 128:src/pdantler/lifecycle.c ****   game->sfx_1_player = pd->sound->sampleplayer->newPlayer();
 930              		.loc 1 128 33 is_stmt 0 view .LVU202
 931 015e 6369     		ldr	r3, [r4, #20]	@ pd_14->sound, pd_14->sound
 932              	@ src/pdantler/lifecycle.c:128:   game->music_player = pd->sound->sampleplayer->newPlayer();
 128:src/pdantler/lifecycle.c ****   game->sfx_1_player = pd->sound->sampleplayer->newPlayer();
 933              		.loc 1 128 47 view .LVU203
 934 0160 DB68     		ldr	r3, [r3, #12]	@ _15->sampleplayer, _15->sampleplayer
 935              	@ src/pdantler/lifecycle.c:128:   game->music_player = pd->sound->sampleplayer->newPlayer();
 128:src/pdantler/lifecycle.c ****   game->sfx_1_player = pd->sound->sampleplayer->newPlayer();
 936              		.loc 1 128 24 view .LVU204
 937 0162 1B68     		ldr	r3, [r3]	@ _16->newPlayer, _16->newPlayer
 938 0164 9847     		blx	r3		@ _16->newPlayer
 939              	.LVL64:
 940              	@ src/pdantler/lifecycle.c:129:   game->sfx_1_player = pd->sound->sampleplayer->newPlayer();
 129:src/pdantler/lifecycle.c ****   game->sfx_2_player = pd->sound->sampleplayer->newPlayer();
 941              		.loc 1 129 33 view .LVU205
 942 0166 6369     		ldr	r3, [r4, #20]	@ pd_14->sound, pd_14->sound
 943              	@ src/pdantler/lifecycle.c:128:   game->music_player = pd->sound->sampleplayer->newPlayer();
 128:src/pdantler/lifecycle.c ****   game->sfx_1_player = pd->sound->sampleplayer->newPlayer();
 944              		.loc 1 128 22 view .LVU206
 945 0168 F061     		str	r0, [r6, #28]	@ tmp306, game_5(D)->music_player
 129:src/pdantler/lifecycle.c ****   game->sfx_2_player = pd->sound->sampleplayer->newPlayer();
 946              		.loc 1 129 3 is_stmt 1 view .LVU207
 947              	@ src/pdantler/lifecycle.c:129:   game->sfx_1_player = pd->sound->sampleplayer->newPlayer();
 129:src/pdantler/lifecycle.c ****   game->sfx_2_player = pd->sound->sampleplayer->newPlayer();
 948              		.loc 1 129 47 is_stmt 0 view .LVU208
 949 016a DB68     		ldr	r3, [r3, #12]	@ _19->sampleplayer, _19->sampleplayer
 950              	@ src/pdantler/lifecycle.c:129:   game->sfx_1_player = pd->sound->sampleplayer->newPlayer();
 129:src/pdantler/lifecycle.c ****   game->sfx_2_player = pd->sound->sampleplayer->newPlayer();
 951              		.loc 1 129 24 view .LVU209
 952 016c 1B68     		ldr	r3, [r3]	@ _20->newPlayer, _20->newPlayer
 953 016e 9847     		blx	r3		@ _20->newPlayer
 954              	.LVL65:
 955              	@ src/pdantler/lifecycle.c:130:   game->sfx_2_player = pd->sound->sampleplayer->newPlayer();
 130:src/pdantler/lifecycle.c **** }
 956              		.loc 1 130 33 view .LVU210
 957 0170 6369     		ldr	r3, [r4, #20]	@ pd_14->sound, pd_14->sound
 958              	@ src/pdantler/lifecycle.c:129:   game->sfx_1_player = pd->sound->sampleplayer->newPlayer();
 129:src/pdantler/lifecycle.c ****   game->sfx_2_player = pd->sound->sampleplayer->newPlayer();
 959              		.loc 1 129 22 view .LVU211
 960 0172 3062     		str	r0, [r6, #32]	@ tmp307, game_5(D)->sfx_1_player
 130:src/pdantler/lifecycle.c **** }
 961              		.loc 1 130 3 is_stmt 1 view .LVU212
 962              	@ src/pdantler/lifecycle.c:130:   game->sfx_2_player = pd->sound->sampleplayer->newPlayer();
 130:src/pdantler/lifecycle.c **** }
 963              		.loc 1 130 47 is_stmt 0 view .LVU213
 964 0174 DB68     		ldr	r3, [r3, #12]	@ _23->sampleplayer, _23->sampleplayer
 965              	@ src/pdantler/lifecycle.c:130:   game->sfx_2_player = pd->sound->sampleplayer->newPlayer();
 130:src/pdantler/lifecycle.c **** }
 966              		.loc 1 130 24 view .LVU214
 967 0176 1B68     		ldr	r3, [r3]	@ _24->newPlayer, _24->newPlayer
ARM GAS  /tmp/ccsJuLey.s 			page 29


 968 0178 9847     		blx	r3		@ _24->newPlayer
 969              	.LVL66:
 970              	.LBE51:
 971              	.LBE55:
 972              	@ src/pdantler/lifecycle.c:178:   pdantler_switch_to_scene(game, SCENE_GAME);
 177:src/pdantler/lifecycle.c **** 
 178:src/pdantler/lifecycle.c ****   pdantler_switch_to_scene(game, SCENE_GAME);
 973              		.loc 1 178 3 view .LVU215
 974 017a 2946     		mov	r1, r5	@, tmp285
 975              	.LBB56:
 976              	.LBB52:
 977              	@ src/pdantler/lifecycle.c:130:   game->sfx_2_player = pd->sound->sampleplayer->newPlayer();
 130:src/pdantler/lifecycle.c **** }
 978              		.loc 1 130 24 view .LVU216
 979 017c 0346     		mov	r3, r0	@ tmp308,
 980              	.LBE52:
 981              	.LBE56:
 982              	@ src/pdantler/lifecycle.c:178:   pdantler_switch_to_scene(game, SCENE_GAME);
 983              		.loc 1 178 3 view .LVU217
 984 017e 3046     		mov	r0, r6	@, game
 985              	.LBB57:
 986              	.LBB53:
 987              	@ src/pdantler/lifecycle.c:130:   game->sfx_2_player = pd->sound->sampleplayer->newPlayer();
 130:src/pdantler/lifecycle.c **** }
 988              		.loc 1 130 22 view .LVU218
 989 0180 7362     		str	r3, [r6, #36]	@ tmp308, game_5(D)->sfx_2_player
 990              	.LVL67:
 130:src/pdantler/lifecycle.c **** }
 991              		.loc 1 130 22 view .LVU219
 992              	.LBE53:
 993              	.LBE57:
 994              		.loc 1 178 3 is_stmt 1 view .LVU220
 995              	@ src/pdantler/lifecycle.c:179: }
 179:src/pdantler/lifecycle.c **** }...
 996              		.loc 1 179 1 is_stmt 0 view .LVU221
 997 0182 02B0     		add	sp, sp, #8	@,,
 998              	.LCFI8:
 999              		.cfi_remember_state
 1000              		.cfi_def_cfa_offset 16
 1001              		@ sp needed	@
 1002 0184 BDE87040 		pop	{r4, r5, r6, lr}	@
 1003              	.LCFI9:
 1004              		.cfi_restore 14
 1005              		.cfi_restore 6
 1006              		.cfi_restore 5
 1007              		.cfi_restore 4
 1008              		.cfi_def_cfa_offset 0
 1009              	.LVL68:
 1010              	@ src/pdantler/lifecycle.c:178:   pdantler_switch_to_scene(game, SCENE_GAME);
 178:src/pdantler/lifecycle.c ****   pdantler_switch_to_scene(game, SCENE_GAME);
 1011              		.loc 1 178 3 view .LVU222
 1012 0188 FFF7FEBF 		b	pdantler_switch_to_scene		@
 1013              	.LVL69:
 1014              	.L29:
 1015              	.LCFI10:
 1016              		.cfi_restore_state
 1017              	.LBB58:
ARM GAS  /tmp/ccsJuLey.s 			page 30


 1018              	.LBB45:
  28:src/pdantler/lifecycle.c ****     pdlogger_error("init_game_game: image background loaded as null.");
 1019              		.loc 1 28 5 is_stmt 1 view .LVU223
 1020 018c 0D48     		ldr	r0, .L32+32	@,
 1021 018e FFF7FEFF 		bl	pdlogger_error		@
 1022              	.LVL70:
 1023 0192 65E7     		b	.L15		@
 1024              	.L30:
  49:src/pdantler/lifecycle.c ****     pdlogger_error("init_game_game: image bird loaded as null.");
 1025              		.loc 1 49 5 view .LVU224
 1026 0194 0C48     		ldr	r0, .L32+36	@,
 1027 0196 FFF7FEFF 		bl	pdlogger_error		@
 1028              	.LVL71:
 1029 019a 8FE7     		b	.L17		@
 1030              	.L31:
  67:src/pdantler/lifecycle.c ****     pdlogger_error("init_game_game: image speech_bubble loaded as null.");
 1031              		.loc 1 67 5 view .LVU225
 1032 019c 0B48     		ldr	r0, .L32+40	@,
 1033 019e FFF7FEFF 		bl	pdlogger_error		@
 1034              	.LVL72:
 1035 01a2 B4E7     		b	.L18		@
 1036              	.L33:
 1037              		.align	2
 1038              	.L32:
 1039 01a4 00000000 		.word	.LC10
 1040 01a8 1C000000 		.word	.LC11
 1041 01ac 58000000 		.word	.LC12
 1042 01b0 70000000 		.word	.LC13
 1043 01b4 0000F042 		.word	1123024896
 1044 01b8 00004843 		.word	1128792064
 1045 01bc D8000000 		.word	.LC15
 1046 01c0 EC000000 		.word	.LC16
 1047 01c4 A4000000 		.word	.LC14
 1048 01c8 1C010000 		.word	.LC17
 1049 01cc 48010000 		.word	.LC18
 1050              	.LBE45:
 1051              	.LBE58:
 1052              		.cfi_endproc
 1053              	.LFE38:
 1054              		.size	lifecycle_init_game, .-lifecycle_init_game
 1055              		.text
 1056              	.Letext0:
 1057              		.file 3 "/usr/lib/gcc/arm-none-eabi/10.3.1/include/stdint.h"
 1058              		.file 4 "/usr/lib/gcc/arm-none-eabi/10.3.1/include/stddef.h"
 1059              		.file 5 "/home/mchristensen/src/PlaydateSDK-2.2.0/C_API/pd_api/pd_api_gfx.h"
 1060              		.file 6 "/home/mchristensen/src/PlaydateSDK-2.2.0/C_API/pd_api/pd_api_sys.h"
 1061              		.file 7 "/home/mchristensen/src/PlaydateSDK-2.2.0/C_API/pd_api/pd_api_lua.h"
 1062              		.file 8 "/home/mchristensen/src/PlaydateSDK-2.2.0/C_API/pd_api/pd_api_json.h"
 1063              		.file 9 "/home/mchristensen/src/PlaydateSDK-2.2.0/C_API/pd_api/pd_api_file.h"
 1064              		.file 10 "/home/mchristensen/src/PlaydateSDK-2.2.0/C_API/pd_api/pd_api_sprite.h"
 1065              		.file 11 "/home/mchristensen/src/PlaydateSDK-2.2.0/C_API/pd_api/pd_api_sound.h"
 1066              		.file 12 "/home/mchristensen/src/PlaydateSDK-2.2.0/C_API/pd_api/pd_api_display.h"
 1067              		.file 13 "/home/mchristensen/src/PlaydateSDK-2.2.0/C_API/pd_api/pd_api_scoreboards.h"
 1068              		.file 14 "/home/mchristensen/src/PlaydateSDK-2.2.0/C_API/pd_api.h"
 1069              		.file 15 "src/pdantler/../common.h"
 1070              		.file 16 "./src/scenes/scene_game.h"
 1071              		.file 17 "src/pdantler/../pdantler/pdlogger.h"
ARM GAS  /tmp/ccsJuLey.s 			page 31

