ARM GAS  /tmp/ccHkxRVb.s 			page 1


   1              		.cpu cortex-m7
   2              		.eabi_attribute 27, 1	@ Tag_ABI_HardFP_use
   3              		.eabi_attribute 28, 1	@ Tag_ABI_VFP_args
   4              		.eabi_attribute 20, 1	@ Tag_ABI_FP_denormal
   5              		.eabi_attribute 21, 1	@ Tag_ABI_FP_exceptions
   6              		.eabi_attribute 23, 3	@ Tag_ABI_FP_number_model
   7              		.eabi_attribute 24, 1	@ Tag_ABI_align8_needed
   8              		.eabi_attribute 25, 1	@ Tag_ABI_align8_preserved
   9              		.eabi_attribute 26, 1	@ Tag_ABI_enum_size
  10              		.eabi_attribute 30, 2	@ Tag_ABI_optimization_goals
  11              		.eabi_attribute 34, 1	@ Tag_CPU_unaligned_access
  12              		.eabi_attribute 18, 4	@ Tag_ABI_PCS_wchar_t
  13              		.file	"main.c"
  14              	@ GNU C17 (15:10.3-2021.07-4) version 10.3.1 20210621 (release) (arm-none-eabi)
  15              	@	compiled by GNU C version 11.2.0, GMP version 6.2.1, MPFR version 4.1.0, MPC version 1.2.1, isl v
  16              	
  17              	@ GGC heuristics: --param ggc-min-expand=100 --param ggc-min-heapsize=131072
  18              	@ options passed:  -I . -I .
  19              	@ -I /home/mchristensen/src/PlaydateSDK-2.2.0/C_API
  20              	@ -imultilib thumb/v7e-m+fp/hard -MD build/src/pdantler/main.d
  21              	@ -MF build/dep/main.o.d -MP -MQ build/src/pdantler/main.o
  22              	@ -D__USES_INITFINI__ -D __FPU_USED=1 -D TARGET_PLAYDATE=1
  23              	@ -D TARGET_EXTENSION=1 src/pdantler/main.c -mthumb -mcpu=cortex-m7
  24              	@ -mfloat-abi=hard -mfpu=fpv5-sp-d16 -mword-relocations
  25              	@ -mlibarch=armv7e-m+fpv5 -march=armv7e-m+fpv5
  26              	@ -auxbase-strip build/src/pdantler/main.o -g3 -gdwarf-2 -O2 -Wall
  27              	@ -Wno-unused -Wstrict-prototypes -Wno-unknown-pragmas -Wdouble-promotion
  28              	@ -falign-functions=16 -fomit-frame-pointer -fverbose-asm -fno-common
  29              	@ -ffunction-sections -fdata-sections
  30              	@ options enabled:  -faggressive-loop-optimizations -falign-functions
  31              	@ -falign-jumps -falign-labels -falign-loops -fallocation-dce
  32              	@ -fauto-inc-dec -fbranch-count-reg -fcaller-saves
  33              	@ -fcombine-stack-adjustments -fcompare-elim -fcprop-registers
  34              	@ -fcrossjumping -fcse-follow-jumps -fdata-sections -fdefer-pop
  35              	@ -fdelete-null-pointer-checks -fdevirtualize -fdevirtualize-speculatively
  36              	@ -fdwarf2-cfi-asm -fearly-inlining -feliminate-unused-debug-symbols
  37              	@ -feliminate-unused-debug-types -fexpensive-optimizations
  38              	@ -fforward-propagate -ffp-int-builtin-inexact -ffunction-cse
  39              	@ -ffunction-sections -fgcse -fgcse-lm -fgnu-unique
  40              	@ -fguess-branch-probability -fhoist-adjacent-loads -fident -fif-conversion
  41              	@ -fif-conversion2 -findirect-inlining -finline -finline-atomics
  42              	@ -finline-functions -finline-functions-called-once
  43              	@ -finline-small-functions -fipa-bit-cp -fipa-cp -fipa-icf
  44              	@ -fipa-icf-functions -fipa-icf-variables -fipa-profile -fipa-pure-const
  45              	@ -fipa-ra -fipa-reference -fipa-reference-addressable -fipa-sra
  46              	@ -fipa-stack-alignment -fipa-vrp -fira-hoist-pressure
  47              	@ -fira-share-save-slots -fira-share-spill-slots
  48              	@ -fisolate-erroneous-paths-dereference -fivopts -fkeep-static-consts
  49              	@ -fleading-underscore -flifetime-dse -flra-remat -fmath-errno
  50              	@ -fmerge-constants -fmerge-debug-strings -fmove-loop-invariants
  51              	@ -fomit-frame-pointer -foptimize-sibling-calls -foptimize-strlen
  52              	@ -fpartial-inlining -fpeephole -fpeephole2 -fplt -fprefetch-loop-arrays
  53              	@ -freg-struct-return -freorder-blocks -freorder-functions
  54              	@ -frerun-cse-after-loop -fsched-critical-path-heuristic
  55              	@ -fsched-dep-count-heuristic -fsched-group-heuristic -fsched-interblock
  56              	@ -fsched-last-insn-heuristic -fsched-pressure -fsched-rank-heuristic
  57              	@ -fsched-spec -fsched-spec-insn-heuristic -fsched-stalled-insns-dep
ARM GAS  /tmp/ccHkxRVb.s 			page 2


  58              	@ -fschedule-insns -fschedule-insns2 -fsection-anchors
  59              	@ -fsemantic-interposition -fshow-column -fshrink-wrap
  60              	@ -fshrink-wrap-separate -fsigned-zeros -fsplit-ivs-in-unroller
  61              	@ -fsplit-wide-types -fssa-backprop -fssa-phiopt -fstdarg-opt
  62              	@ -fstore-merging -fstrict-aliasing -fstrict-volatile-bitfields
  63              	@ -fsync-libcalls -fthread-jumps -ftoplevel-reorder -ftrapping-math
  64              	@ -ftree-bit-ccp -ftree-builtin-call-dce -ftree-ccp -ftree-ch
  65              	@ -ftree-coalesce-vars -ftree-copy-prop -ftree-cselim -ftree-dce
  66              	@ -ftree-dominator-opts -ftree-dse -ftree-forwprop -ftree-fre
  67              	@ -ftree-loop-distribute-patterns -ftree-loop-if-convert -ftree-loop-im
  68              	@ -ftree-loop-ivcanon -ftree-loop-optimize -ftree-parallelize-loops=
  69              	@ -ftree-phiprop -ftree-pre -ftree-pta -ftree-reassoc -ftree-scev-cprop
  70              	@ -ftree-sink -ftree-slsr -ftree-sra -ftree-switch-conversion
  71              	@ -ftree-tail-merge -ftree-ter -ftree-vrp -funit-at-a-time -fvar-tracking
  72              	@ -fvar-tracking-assignments -fverbose-asm -fzero-initialized-in-bss
  73              	@ -masm-syntax-unified -mbe32 -mlittle-endian -mpic-data-is-text-relative
  74              	@ -msched-prolog -mthumb -munaligned-access -mvectorize-with-neon-quad
  75              	@ -mword-relocations
  76              	
  77              		.text
  78              	.Ltext0:
  79              		.cfi_sections	.debug_frame
  80              		.section	.text.pd_appender,"ax",%progbits
  81              		.align	1
  82              		.p2align 4,,15
  83              		.global	pd_appender
  84              		.arch armv7e-m
  85              		.syntax unified
  86              		.thumb
  87              		.thumb_func
  88              		.fpu fpv5-sp-d16
  89              		.type	pd_appender, %function
  90              	pd_appender:
  91              	.LVL0:
  92              	.LFB30:
  93              		.file 1 "src/pdantler/main.c"
   1:src/pdantler/main.c **** /** This file is managed by pdantler.
   2:src/pdantler/main.c **** 
   3:src/pdantler/main.c ****     Any changes you make to it will be overwritten next time pdantler is run.
   4:src/pdantler/main.c **** */
   5:src/pdantler/main.c **** 
   6:src/pdantler/main.c **** #include "../build.h"
   7:src/pdantler/main.c **** #include "../common.h"
   8:src/pdantler/main.c **** 
   9:src/pdantler/main.c **** #include "src/scenes/scene_game.h"
  10:src/pdantler/main.c **** 
  11:src/pdantler/main.c **** extern void lifecycle_init_game(GameContext *context);
  12:src/pdantler/main.c **** extern PDButtons pdantler_debounce_input(PlaydateAPI *pd, Debouncer *debouncer);
  13:src/pdantler/main.c **** 
  14:src/pdantler/main.c **** static int update(void *userdata);
  15:src/pdantler/main.c **** 
  16:src/pdantler/main.c **** void pd_appender(const char *p_entry, void *p_udata) {
  94              		.loc 1 16 54 view -0
  95              		.cfi_startproc
  96              		@ args = 0, pretend = 0, frame = 0
  97              		@ frame_needed = 0, uses_anonymous_args = 0
  98              		@ link register save eliminated.
ARM GAS  /tmp/ccHkxRVb.s 			page 3


  17:src/pdantler/main.c ****   PlaydateAPI *pd = (PlaydateAPI *)p_udata;
  99              		.loc 1 17 3 view .LVU1
  18:src/pdantler/main.c ****   pd->system->logToConsole(p_entry);
 100              		.loc 1 18 3 view .LVU2
 101              	@ src/pdantler/main.c:18:   pd->system->logToConsole(p_entry);
 102              		.loc 1 18 13 is_stmt 0 view .LVU3
 103 0000 0B68     		ldr	r3, [r1]	@ MEM[(struct PlaydateAPI *)p_udata_3(D)].system, MEM[(struct PlaydateAPI *)p_udata_3
 104              	@ src/pdantler/main.c:18:   pd->system->logToConsole(p_entry);
 105              		.loc 1 18 3 view .LVU4
 106 0002 9B68     		ldr	r3, [r3, #8]	@ _1->logToConsole, _1->logToConsole
 107 0004 1847     		bx	r3	@ indirect register sibling call	@ _1->logToConsole
 108              	.LVL1:
 109              		.loc 1 18 3 view .LVU5
 110              		.cfi_endproc
 111              	.LFE30:
 112              		.size	pd_appender, .-pd_appender
 113 0006 00BF     		.section	.rodata.update.str1.4,"aMS",%progbits,1
 114              		.align	2
 115              	.LC0:
 116 0000 75706461 		.ascii	"update called with unhandled scene\000"
 116      74652063 
 116      616C6C65 
 116      64207769 
 116      74682075 
 117              		.section	.text.update,"ax",%progbits
 118              		.align	1
 119              		.p2align 4,,15
 120              		.syntax unified
 121              		.thumb
 122              		.thumb_func
 123              		.fpu fpv5-sp-d16
 124              		.type	update, %function
 125              	update:
 126              	.LVL2:
 127              	.LFB32:
  19:src/pdantler/main.c **** }
  20:src/pdantler/main.c **** 
  21:src/pdantler/main.c **** // Called by Playdate whenever there is a system event. Currently used soley for
  22:src/pdantler/main.c **** // initialization.
  23:src/pdantler/main.c **** int eventHandler(PlaydateAPI *pd, PDSystemEvent event, uint32_t arg) {
  24:src/pdantler/main.c ****   (void)arg; // arg is currently only used for event = kEventKeyPressed
  25:src/pdantler/main.c **** 
  26:src/pdantler/main.c ****   if (event == kEventInit) {
  27:src/pdantler/main.c ****     pdlogger_register_appender(&pd_appender, pd);
  28:src/pdantler/main.c ****     pdlogger_info("eventHandler: Starting Heckler build number %s",
  29:src/pdantler/main.c ****                   BUILD_NUMBER);
  30:src/pdantler/main.c **** 
  31:src/pdantler/main.c ****     PlaydateMRLMemCtx *mem_ctx =
  32:src/pdantler/main.c ****         pd->system->realloc(NULL, sizeof(PlaydateMRLMemCtx));
  33:src/pdantler/main.c ****     mem_ctx->realloc = pd->system->realloc;
  34:src/pdantler/main.c **** 
  35:src/pdantler/main.c ****     GameContext *game = MLIB_CALLOC(1, sizeof(GameContext), mem_ctx);
  36:src/pdantler/main.c ****     game->pd = pd;
  37:src/pdantler/main.c ****     game->mem_ctx = mem_ctx;
  38:src/pdantler/main.c ****     game->current_scene = NO_SCENE;
  39:src/pdantler/main.c ****     game->last_tick_time = pd->system->getCurrentTimeMilliseconds();
  40:src/pdantler/main.c ****     lifecycle_init_game(game);
ARM GAS  /tmp/ccHkxRVb.s 			page 4


  41:src/pdantler/main.c **** 
  42:src/pdantler/main.c ****     // Setting update callback will skip Lua callback and stay in C
  43:src/pdantler/main.c ****     pd->system->setUpdateCallback(update, game);
  44:src/pdantler/main.c ****   }
  45:src/pdantler/main.c **** 
  46:src/pdantler/main.c ****   return 0;
  47:src/pdantler/main.c **** }
  48:src/pdantler/main.c **** 
  49:src/pdantler/main.c **** static int update(void *userdata) {
 128              		.loc 1 49 35 is_stmt 1 view -0
 129              		.cfi_startproc
 130              		@ args = 0, pretend = 0, frame = 0
 131              		@ frame_needed = 0, uses_anonymous_args = 0
  50:src/pdantler/main.c ****   GameContext *game = (GameContext *)userdata;
 132              		.loc 1 50 3 view .LVU7
 133              	@ src/pdantler/main.c:49: static int update(void *userdata) {
  49:src/pdantler/main.c ****   GameContext *game = (GameContext *)userdata;
 134              		.loc 1 49 35 is_stmt 0 view .LVU8
 135 0000 F8B5     		push	{r3, r4, r5, r6, r7, lr}	@
 136              	.LCFI0:
 137              		.cfi_def_cfa_offset 24
 138              		.cfi_offset 3, -24
 139              		.cfi_offset 4, -20
 140              		.cfi_offset 5, -16
 141              		.cfi_offset 6, -12
 142              		.cfi_offset 7, -8
 143              		.cfi_offset 14, -4
 144              	@ src/pdantler/main.c:51:   PlaydateAPI *pd = game->pd;
  51:src/pdantler/main.c ****   PlaydateAPI *pd = game->pd;
 145              		.loc 1 51 16 view .LVU9
 146 0002 0568     		ldr	r5, [r0]	@ pd, MEM[(struct GameContext *)userdata_16(D)].pd
 147              	@ src/pdantler/main.c:49: static int update(void *userdata) {
  49:src/pdantler/main.c ****   GameContext *game = (GameContext *)userdata;
 148              		.loc 1 49 35 view .LVU10
 149 0004 0446     		mov	r4, r0	@ userdata, tmp148
 150              	.LVL3:
 151              		.loc 1 51 3 is_stmt 1 view .LVU11
  52:src/pdantler/main.c **** 
  53:src/pdantler/main.c ****   unsigned int delta =
 152              		.loc 1 53 3 view .LVU12
 153              	@ src/pdantler/main.c:54:       pd->system->getCurrentTimeMilliseconds() - game->last_tick_time;
  54:src/pdantler/main.c ****       pd->system->getCurrentTimeMilliseconds() - game->last_tick_time;
 154              		.loc 1 54 17 is_stmt 0 view .LVU13
 155 0006 2B68     		ldr	r3, [r5]	@ pd_18->system, pd_18->system
 156              	@ src/pdantler/main.c:54:       pd->system->getCurrentTimeMilliseconds() - game->last_tick_time;
 157              		.loc 1 54 7 view .LVU14
 158 0008 5B69     		ldr	r3, [r3, #20]	@ _1->getCurrentTimeMilliseconds, _1->getCurrentTimeMilliseconds
 159 000a 9847     		blx	r3		@ _1->getCurrentTimeMilliseconds
 160              	.LVL4:
 161              	@ src/pdantler/main.c:55:   game->last_tick_time = pd->system->getCurrentTimeMilliseconds();
  55:src/pdantler/main.c ****   game->last_tick_time = pd->system->getCurrentTimeMilliseconds();
 162              		.loc 1 55 36 view .LVU15
 163 000c 2B68     		ldr	r3, [r5]	@ pd_18->system, pd_18->system
 164              	@ src/pdantler/main.c:54:       pd->system->getCurrentTimeMilliseconds() - game->last_tick_time;
  54:src/pdantler/main.c ****       pd->system->getCurrentTimeMilliseconds() - game->last_tick_time;
 165              		.loc 1 54 54 view .LVU16
 166 000e E768     		ldr	r7, [r4, #12]	@ _4, MEM[(struct GameContext *)userdata_16(D)].last_tick_time
ARM GAS  /tmp/ccHkxRVb.s 			page 5


 167              	@ src/pdantler/main.c:54:       pd->system->getCurrentTimeMilliseconds() - game->last_tick_time;
  54:src/pdantler/main.c ****       pd->system->getCurrentTimeMilliseconds() - game->last_tick_time;
 168              		.loc 1 54 7 view .LVU17
 169 0010 0646     		mov	r6, r0	@ _3, tmp149
 170              	.LVL5:
 171              		.loc 1 55 3 is_stmt 1 view .LVU18
 172              	@ src/pdantler/main.c:55:   game->last_tick_time = pd->system->getCurrentTimeMilliseconds();
 173              		.loc 1 55 26 is_stmt 0 view .LVU19
 174 0012 5B69     		ldr	r3, [r3, #20]	@ _5->getCurrentTimeMilliseconds, _5->getCurrentTimeMilliseconds
 175 0014 9847     		blx	r3		@ _5->getCurrentTimeMilliseconds
 176              	.LVL6:
 177              	@ src/pdantler/main.c:57:   PDButtons debounced_buttons = pdantler_debounce_input(pd, &game->deboun
  56:src/pdantler/main.c **** 
  57:src/pdantler/main.c ****   PDButtons debounced_buttons = pdantler_debounce_input(pd, &game->debouncer);
 178              		.loc 1 57 33 view .LVU20
 179 0016 04F11001 		add	r1, r4, #16	@, userdata,
 180              	@ src/pdantler/main.c:55:   game->last_tick_time = pd->system->getCurrentTimeMilliseconds();
  55:src/pdantler/main.c ****   game->last_tick_time = pd->system->getCurrentTimeMilliseconds();
 181              		.loc 1 55 24 view .LVU21
 182 001a E060     		str	r0, [r4, #12]	@ tmp150, MEM[(struct GameContext *)userdata_16(D)].last_tick_time
 183              		.loc 1 57 3 is_stmt 1 view .LVU22
 184              	@ src/pdantler/main.c:57:   PDButtons debounced_buttons = pdantler_debounce_input(pd, &game->deboun
 185              		.loc 1 57 33 is_stmt 0 view .LVU23
 186 001c 2846     		mov	r0, r5	@, pd
 187 001e FFF7FEFF 		bl	pdantler_debounce_input		@
 188              	.LVL7:
  58:src/pdantler/main.c **** 
  59:src/pdantler/main.c ****   GameScene next_scene = NO_SCENE;
 189              		.loc 1 59 3 is_stmt 1 view .LVU24
  60:src/pdantler/main.c **** 
  61:src/pdantler/main.c ****   switch (game->current_scene) {
 190              		.loc 1 61 3 view .LVU25
 191 0022 237A     		ldrb	r3, [r4, #8]	@ zero_extendqisi2	@ MEM[(struct GameContext *)userdata_16(D)].current_scene, ME
 192 0024 012B     		cmp	r3, #1	@ MEM[(struct GameContext *)userdata_16(D)].current_scene,
 193 0026 07D0     		beq	.L8		@,
  62:src/pdantler/main.c **** 
  63:src/pdantler/main.c ****   case SCENE_GAME:
  64:src/pdantler/main.c ****     next_scene = tick_game(game, (GameAssets *)game->game_assets,
  65:src/pdantler/main.c ****                            debounced_buttons, delta);
  66:src/pdantler/main.c ****     break;
  67:src/pdantler/main.c ****   default:
  68:src/pdantler/main.c ****     pdlogger_error("update called with unhandled scene");
 194              		.loc 1 68 5 view .LVU26
 195 0028 0B48     		ldr	r0, .L9	@,
 196              	.LVL8:
 197              		.loc 1 68 5 is_stmt 0 view .LVU27
 198 002a FFF7FEFF 		bl	pdlogger_error		@
 199              	.LVL9:
  69:src/pdantler/main.c ****   }
  70:src/pdantler/main.c **** 
  71:src/pdantler/main.c ****   if (next_scene != NO_SCENE && next_scene != game->current_scene) {
 200              		.loc 1 71 3 is_stmt 1 view .LVU28
 201              	.L6:
  72:src/pdantler/main.c ****     pdantler_switch_to_scene(game, next_scene);
  73:src/pdantler/main.c ****   }
  74:src/pdantler/main.c **** 
  75:src/pdantler/main.c ****   pd->sprite->updateAndDrawSprites();
ARM GAS  /tmp/ccHkxRVb.s 			page 6


 202              		.loc 1 75 3 view .LVU29
 203              	@ src/pdantler/main.c:75:   pd->sprite->updateAndDrawSprites();
 204              		.loc 1 75 13 is_stmt 0 view .LVU30
 205 002e EB68     		ldr	r3, [r5, #12]	@ pd_18->sprite, pd_18->sprite
 206              	@ src/pdantler/main.c:75:   pd->sprite->updateAndDrawSprites();
 207              		.loc 1 75 3 view .LVU31
 208 0030 DB68     		ldr	r3, [r3, #12]	@ _13->updateAndDrawSprites, _13->updateAndDrawSprites
 209 0032 9847     		blx	r3		@ _13->updateAndDrawSprites
 210              	.LVL10:
  76:src/pdantler/main.c **** 
  77:src/pdantler/main.c ****   return 1;
 211              		.loc 1 77 3 is_stmt 1 view .LVU32
 212              	@ src/pdantler/main.c:78: }
  78:src/pdantler/main.c **** }...
 213              		.loc 1 78 1 is_stmt 0 view .LVU33
 214 0034 0120     		movs	r0, #1	@,
 215 0036 F8BD     		pop	{r3, r4, r5, r6, r7, pc}	@
 216              	.LVL11:
 217              	.L8:
  64:src/pdantler/main.c ****     next_scene = tick_game(game, (GameAssets *)game->game_assets,
 218              		.loc 1 64 5 is_stmt 1 view .LVU34
 219              	@ src/pdantler/main.c:64:     next_scene = tick_game(game, (GameAssets *)game->game_assets,
  64:src/pdantler/main.c ****     next_scene = tick_game(game, (GameAssets *)game->game_assets,
 220              		.loc 1 64 18 is_stmt 0 view .LVU35
 221 0038 0246     		mov	r2, r0	@, tmp138
 222 003a F31B     		subs	r3, r6, r7	@, _3, _4
 223 003c E16A     		ldr	r1, [r4, #44]	@, MEM[(struct GameContext *)userdata_16(D)].game_assets
 224 003e 2046     		mov	r0, r4	@, userdata
 225              	.LVL12:
  64:src/pdantler/main.c ****     next_scene = tick_game(game, (GameAssets *)game->game_assets,
 226              		.loc 1 64 18 view .LVU36
 227 0040 FFF7FEFF 		bl	tick_game		@
 228              	.LVL13:
  66:src/pdantler/main.c ****     break;
 229              		.loc 1 66 5 is_stmt 1 view .LVU37
  71:src/pdantler/main.c ****   if (next_scene != NO_SCENE && next_scene != game->current_scene) {
 230              		.loc 1 71 3 view .LVU38
 231              	@ src/pdantler/main.c:71:   if (next_scene != NO_SCENE && next_scene != game->current_scene) {
  71:src/pdantler/main.c ****   if (next_scene != NO_SCENE && next_scene != game->current_scene) {
 232              		.loc 1 71 6 is_stmt 0 view .LVU39
 233 0044 0028     		cmp	r0, #0	@ tmp142
 234 0046 F2D0     		beq	.L6	@
 235              	@ src/pdantler/main.c:71:   if (next_scene != NO_SCENE && next_scene != game->current_scene) {
  71:src/pdantler/main.c ****   if (next_scene != NO_SCENE && next_scene != game->current_scene) {
 236              		.loc 1 71 30 discriminator 1 view .LVU40
 237 0048 237A     		ldrb	r3, [r4, #8]	@ zero_extendqisi2	@ MEM[(struct GameContext *)userdata_16(D)].current_scene, ME
 238 004a 8342     		cmp	r3, r0	@ MEM[(struct GameContext *)userdata_16(D)].current_scene, tmp142
 239 004c EFD0     		beq	.L6		@,
  72:src/pdantler/main.c ****     pdantler_switch_to_scene(game, next_scene);
 240              		.loc 1 72 5 is_stmt 1 view .LVU41
 241 004e 0146     		mov	r1, r0	@, tmp142
 242 0050 2046     		mov	r0, r4	@, userdata
 243              	.LVL14:
  72:src/pdantler/main.c ****     pdantler_switch_to_scene(game, next_scene);
 244              		.loc 1 72 5 is_stmt 0 view .LVU42
 245 0052 FFF7FEFF 		bl	pdantler_switch_to_scene		@
 246              	.LVL15:
ARM GAS  /tmp/ccHkxRVb.s 			page 7


 247 0056 EAE7     		b	.L6		@
 248              	.L10:
 249              		.align	2
 250              	.L9:
 251 0058 00000000 		.word	.LC0
 252              		.cfi_endproc
 253              	.LFE32:
 254              		.size	update, .-update
 255              		.section	.rodata.eventHandler.str1.4,"aMS",%progbits,1
 256              		.align	2
 257              	.LC1:
 258 0000 32303234 		.ascii	"2024-01-28T09:48:31.052983\000"
 258      2D30312D 
 258      32385430 
 258      393A3438 
 258      3A33312E 
 259 001b 00       		.align	2
 260              	.LC2:
 261 001c 6576656E 		.ascii	"eventHandler: Starting Heckler build number %s\000"
 261      7448616E 
 261      646C6572 
 261      3A205374 
 261      61727469 
 262              		.section	.text.eventHandler,"ax",%progbits
 263              		.align	1
 264              		.p2align 4,,15
 265              		.global	eventHandler
 266              		.syntax unified
 267              		.thumb
 268              		.thumb_func
 269              		.fpu fpv5-sp-d16
 270              		.type	eventHandler, %function
 271              	eventHandler:
 272              	.LVL16:
 273              	.LFB31:
  23:src/pdantler/main.c **** int eventHandler(PlaydateAPI *pd, PDSystemEvent event, uint32_t arg) {
 274              		.loc 1 23 70 is_stmt 1 view -0
 275              		.cfi_startproc
 276              		@ args = 0, pretend = 0, frame = 0
 277              		@ frame_needed = 0, uses_anonymous_args = 0
  24:src/pdantler/main.c ****   (void)arg; // arg is currently only used for event = kEventKeyPressed
 278              		.loc 1 24 3 view .LVU44
  26:src/pdantler/main.c ****   if (event == kEventInit) {
 279              		.loc 1 26 3 view .LVU45
 280              	@ src/pdantler/main.c:26:   if (event == kEventInit) {
  26:src/pdantler/main.c ****   if (event == kEventInit) {
 281              		.loc 1 26 6 is_stmt 0 view .LVU46
 282 0000 09B1     		cbz	r1, .L17	@ event,
  46:src/pdantler/main.c ****   return 0;
 283              		.loc 1 46 3 is_stmt 1 view .LVU47
 284              	@ src/pdantler/main.c:47: }
  47:src/pdantler/main.c **** }
 285              		.loc 1 47 1 is_stmt 0 view .LVU48
 286 0002 0020     		movs	r0, #0	@,
 287              	.LVL17:
  47:src/pdantler/main.c **** }
 288              		.loc 1 47 1 view .LVU49
ARM GAS  /tmp/ccHkxRVb.s 			page 8


 289 0004 7047     		bx	lr	@
 290              	.LVL18:
 291              	.L17:
 292              	.LBB7:
  27:src/pdantler/main.c ****     pdlogger_register_appender(&pd_appender, pd);
 293              		.loc 1 27 5 is_stmt 1 view .LVU50
 294              	.LBE7:
 295              	@ src/pdantler/main.c:23: int eventHandler(PlaydateAPI *pd, PDSystemEvent event, uint32_t arg) {
  23:src/pdantler/main.c **** int eventHandler(PlaydateAPI *pd, PDSystemEvent event, uint32_t arg) {
 296              		.loc 1 23 70 is_stmt 0 view .LVU51
 297 0006 70B5     		push	{r4, r5, r6, lr}	@
 298              	.LCFI1:
 299              		.cfi_def_cfa_offset 16
 300              		.cfi_offset 4, -16
 301              		.cfi_offset 5, -12
 302              		.cfi_offset 6, -8
 303              		.cfi_offset 14, -4
 304 0008 0546     		mov	r5, r0	@ pd, tmp145
 305 000a 0C46     		mov	r4, r1	@ event, tmp146
 306              	.LBB14:
 307              	@ src/pdantler/main.c:27:     pdlogger_register_appender(&pd_appender, pd);
  27:src/pdantler/main.c ****     pdlogger_register_appender(&pd_appender, pd);
 308              		.loc 1 27 5 view .LVU52
 309 000c 0146     		mov	r1, r0	@, pd
 310              	.LVL19:
  27:src/pdantler/main.c ****     pdlogger_register_appender(&pd_appender, pd);
 311              		.loc 1 27 5 view .LVU53
 312 000e 1548     		ldr	r0, .L18	@,
 313              	.LVL20:
  27:src/pdantler/main.c ****     pdlogger_register_appender(&pd_appender, pd);
 314              		.loc 1 27 5 view .LVU54
 315 0010 FFF7FEFF 		bl	pdlogger_register_appender		@
 316              	.LVL21:
  28:src/pdantler/main.c ****     pdlogger_info("eventHandler: Starting Heckler build number %s",
 317              		.loc 1 28 5 is_stmt 1 view .LVU55
 318 0014 1449     		ldr	r1, .L18+4	@,
 319 0016 1548     		ldr	r0, .L18+8	@,
 320 0018 FFF7FEFF 		bl	pdlogger_info		@
 321              	.LVL22:
  31:src/pdantler/main.c ****     PlaydateMRLMemCtx *mem_ctx =
 322              		.loc 1 31 5 view .LVU56
 323              	@ src/pdantler/main.c:32:         pd->system->realloc(NULL, sizeof(PlaydateMRLMemCtx));
  32:src/pdantler/main.c ****         pd->system->realloc(NULL, sizeof(PlaydateMRLMemCtx));
 324              		.loc 1 32 19 is_stmt 0 view .LVU57
 325 001c 2B68     		ldr	r3, [r5]	@ pd_13(D)->system, pd_13(D)->system
 326              	@ src/pdantler/main.c:32:         pd->system->realloc(NULL, sizeof(PlaydateMRLMemCtx));
  32:src/pdantler/main.c ****         pd->system->realloc(NULL, sizeof(PlaydateMRLMemCtx));
 327              		.loc 1 32 9 view .LVU58
 328 001e 0421     		movs	r1, #4	@,
 329 0020 2046     		mov	r0, r4	@, event
 330 0022 1B68     		ldr	r3, [r3]	@ _1->realloc, _1->realloc
 331 0024 9847     		blx	r3		@ _1->realloc
 332              	.LVL23:
 333              	@ src/pdantler/main.c:33:     mem_ctx->realloc = pd->system->realloc;
  33:src/pdantler/main.c ****     mem_ctx->realloc = pd->system->realloc;
 334              		.loc 1 33 34 view .LVU59
 335 0026 2B68     		ldr	r3, [r5]	@ pd_13(D)->system, pd_13(D)->system
ARM GAS  /tmp/ccHkxRVb.s 			page 9


 336              	@ src/pdantler/main.c:32:         pd->system->realloc(NULL, sizeof(PlaydateMRLMemCtx));
  32:src/pdantler/main.c ****         pd->system->realloc(NULL, sizeof(PlaydateMRLMemCtx));
 337              		.loc 1 32 9 view .LVU60
 338 0028 0646     		mov	r6, r0	@ mem_ctx, tmp147
 339              	.LVL24:
  33:src/pdantler/main.c ****     mem_ctx->realloc = pd->system->realloc;
 340              		.loc 1 33 5 is_stmt 1 view .LVU61
 341              	.LBB8:
 342              	.LBB9:
 343              	@ src/pdantler/../pdantler/mooselib.h:185:   void *p = MLIB_MALLOC(nitems * size, mem_ctx);
 344              		.file 2 "src/pdantler/../pdantler/mooselib.h"
   1:src/pdantler/../pdantler/mooselib.h **** /** This file is managed by pdantler.
   2:src/pdantler/../pdantler/mooselib.h **** 
   3:src/pdantler/../pdantler/mooselib.h ****     Any changes you make to it directly will be overwritten next time pdantler
   4:src/pdantler/../pdantler/mooselib.h ****    runs
   5:src/pdantler/../pdantler/mooselib.h **** */
   6:src/pdantler/../pdantler/mooselib.h **** 
   7:src/pdantler/../pdantler/mooselib.h **** // Playdate-compatable stdlib replacement. Also includes some common
   8:src/pdantler/../pdantler/mooselib.h **** // structs/functions for working with points, etc
   9:src/pdantler/../pdantler/mooselib.h **** 
  10:src/pdantler/../pdantler/mooselib.h **** // If compiling for playdate, be sure to define MOOSELIB_PLAYDATE before
  11:src/pdantler/../pdantler/mooselib.h **** // including
  12:src/pdantler/../pdantler/mooselib.h **** 
  13:src/pdantler/../pdantler/mooselib.h **** #ifndef MOOSELIB_INCLUDE
  14:src/pdantler/../pdantler/mooselib.h **** #define MOOSELIB_INCLUDE
  15:src/pdantler/../pdantler/mooselib.h **** #include <math.h>
  16:src/pdantler/../pdantler/mooselib.h **** #include <stdbool.h>
  17:src/pdantler/../pdantler/mooselib.h **** 
  18:src/pdantler/../pdantler/mooselib.h **** //
  19:src/pdantler/../pdantler/mooselib.h **** // Graphic-related shared structs
  20:src/pdantler/../pdantler/mooselib.h **** //
  21:src/pdantler/../pdantler/mooselib.h **** 
  22:src/pdantler/../pdantler/mooselib.h **** typedef struct {
  23:src/pdantler/../pdantler/mooselib.h ****   int width;
  24:src/pdantler/../pdantler/mooselib.h ****   int height;
  25:src/pdantler/../pdantler/mooselib.h **** } MLIBSize;
  26:src/pdantler/../pdantler/mooselib.h **** 
  27:src/pdantler/../pdantler/mooselib.h **** static inline MLIBSize MLIBSIZE_CREATE(int width, int height) {
  28:src/pdantler/../pdantler/mooselib.h ****   return (MLIBSize){width, height};
  29:src/pdantler/../pdantler/mooselib.h **** }
  30:src/pdantler/../pdantler/mooselib.h **** 
  31:src/pdantler/../pdantler/mooselib.h **** typedef struct {
  32:src/pdantler/../pdantler/mooselib.h ****   int x;
  33:src/pdantler/../pdantler/mooselib.h ****   int y;
  34:src/pdantler/../pdantler/mooselib.h **** } MLIBPoint;
  35:src/pdantler/../pdantler/mooselib.h **** 
  36:src/pdantler/../pdantler/mooselib.h **** static inline MLIBPoint MLIBPOINT_CREATE(int x, int y) {
  37:src/pdantler/../pdantler/mooselib.h ****   return (MLIBPoint){x, y};
  38:src/pdantler/../pdantler/mooselib.h **** }
  39:src/pdantler/../pdantler/mooselib.h **** 
  40:src/pdantler/../pdantler/mooselib.h **** typedef struct {
  41:src/pdantler/../pdantler/mooselib.h ****   float x;
  42:src/pdantler/../pdantler/mooselib.h ****   float y;
  43:src/pdantler/../pdantler/mooselib.h **** } MLIBFPoint;
  44:src/pdantler/../pdantler/mooselib.h **** 
  45:src/pdantler/../pdantler/mooselib.h **** static inline MLIBFPoint MLIBFPOINT_CREATE(float x, float y) {
  46:src/pdantler/../pdantler/mooselib.h ****   return (MLIBFPoint){x, y};
ARM GAS  /tmp/ccHkxRVb.s 			page 10


  47:src/pdantler/../pdantler/mooselib.h **** }
  48:src/pdantler/../pdantler/mooselib.h **** 
  49:src/pdantler/../pdantler/mooselib.h **** typedef struct {
  50:src/pdantler/../pdantler/mooselib.h ****   int x;
  51:src/pdantler/../pdantler/mooselib.h ****   int y;
  52:src/pdantler/../pdantler/mooselib.h ****   int width;
  53:src/pdantler/../pdantler/mooselib.h ****   int height;
  54:src/pdantler/../pdantler/mooselib.h **** } MLIBRect;
  55:src/pdantler/../pdantler/mooselib.h **** 
  56:src/pdantler/../pdantler/mooselib.h **** static inline MLIBRect MLIBRECT_CREATE(int x, int y, int width, int height) {
  57:src/pdantler/../pdantler/mooselib.h ****   return (MLIBRect){x, y, width, height};
  58:src/pdantler/../pdantler/mooselib.h **** }
  59:src/pdantler/../pdantler/mooselib.h **** 
  60:src/pdantler/../pdantler/mooselib.h **** static inline MLIBRect MLIBRECT_TRANSLATE(MLIBRect r, int x, int y) {
  61:src/pdantler/../pdantler/mooselib.h ****   return MLIBRECT_CREATE(r.x + x, r.y + y, r.width, r.height);
  62:src/pdantler/../pdantler/mooselib.h **** }
  63:src/pdantler/../pdantler/mooselib.h **** 
  64:src/pdantler/../pdantler/mooselib.h **** static inline MLIBPoint MLIBRECT_CENTER(MLIBRect r) {
  65:src/pdantler/../pdantler/mooselib.h ****   return MLIBPOINT_CREATE(r.x + r.width / 2, r.y + r.height / 2);
  66:src/pdantler/../pdantler/mooselib.h **** }
  67:src/pdantler/../pdantler/mooselib.h **** 
  68:src/pdantler/../pdantler/mooselib.h **** //
  69:src/pdantler/../pdantler/mooselib.h **** // Debug macros
  70:src/pdantler/../pdantler/mooselib.h **** //
  71:src/pdantler/../pdantler/mooselib.h **** 
  72:src/pdantler/../pdantler/mooselib.h **** #define MLIBPOINT_EXPAND(p) (p.x), (p.y)
  73:src/pdantler/../pdantler/mooselib.h **** #define MLIBSIZE_EXPAND(s) (s.width), (s.height)
  74:src/pdantler/../pdantler/mooselib.h **** #define MLIBRECT_EXPAND(r) (r.x), (r.y), (r.width), (r.height)
  75:src/pdantler/../pdantler/mooselib.h **** //
  76:src/pdantler/../pdantler/mooselib.h **** // Utility functions
  77:src/pdantler/../pdantler/mooselib.h **** //
  78:src/pdantler/../pdantler/mooselib.h **** 
  79:src/pdantler/../pdantler/mooselib.h **** // Make sure v is in range min to max (inclusive). if < min, return max,
  80:src/pdantler/../pdantler/mooselib.h **** // if > max, return min
  81:src/pdantler/../pdantler/mooselib.h **** static inline int MLIB_CLAMP_TO_RANGE_MOD(int v, int min, int max) {
  82:src/pdantler/../pdantler/mooselib.h ****   if (v < min) {
  83:src/pdantler/../pdantler/mooselib.h ****     return max;
  84:src/pdantler/../pdantler/mooselib.h ****   }
  85:src/pdantler/../pdantler/mooselib.h ****   if (v > max) {
  86:src/pdantler/../pdantler/mooselib.h ****     return min;
  87:src/pdantler/../pdantler/mooselib.h ****   }
  88:src/pdantler/../pdantler/mooselib.h ****   return v;
  89:src/pdantler/../pdantler/mooselib.h **** }
  90:src/pdantler/../pdantler/mooselib.h **** 
  91:src/pdantler/../pdantler/mooselib.h **** // Make sure v is in range min to max (inclusive). If < min, return min
  92:src/pdantler/../pdantler/mooselib.h **** // if > max, return max
  93:src/pdantler/../pdantler/mooselib.h **** static inline int MLIB_CLAMP_TO_RANGE(int v, int min, int max) {
  94:src/pdantler/../pdantler/mooselib.h ****   if (v < min) {
  95:src/pdantler/../pdantler/mooselib.h ****     return min;
  96:src/pdantler/../pdantler/mooselib.h ****   }
  97:src/pdantler/../pdantler/mooselib.h ****   if (v > max) {
  98:src/pdantler/../pdantler/mooselib.h ****     return max;
  99:src/pdantler/../pdantler/mooselib.h ****   }
 100:src/pdantler/../pdantler/mooselib.h ****   return v;
 101:src/pdantler/../pdantler/mooselib.h **** }
 102:src/pdantler/../pdantler/mooselib.h **** 
 103:src/pdantler/../pdantler/mooselib.h **** // Return if point is fully contained in a rect
ARM GAS  /tmp/ccHkxRVb.s 			page 11


 104:src/pdantler/../pdantler/mooselib.h **** static inline bool MLIB_POINT_IN_RECT(MLIBPoint p, MLIBRect rect) {
 105:src/pdantler/../pdantler/mooselib.h ****   return (p.x >= rect.x && p.y >= rect.y && p.x < rect.x + rect.width &&
 106:src/pdantler/../pdantler/mooselib.h ****           p.y < rect.y + rect.height);
 107:src/pdantler/../pdantler/mooselib.h **** }
 108:src/pdantler/../pdantler/mooselib.h **** 
 109:src/pdantler/../pdantler/mooselib.h **** // Return a translated version of the point
 110:src/pdantler/../pdantler/mooselib.h **** static inline MLIBPoint MLIB_POINT_TRANSLATE(MLIBPoint p, int x, int y) {
 111:src/pdantler/../pdantler/mooselib.h ****   return MLIBPOINT_CREATE(p.x + x, p.y + y);
 112:src/pdantler/../pdantler/mooselib.h **** }
 113:src/pdantler/../pdantler/mooselib.h **** 
 114:src/pdantler/../pdantler/mooselib.h **** static inline int MLIB_ABS(int x) {
 115:src/pdantler/../pdantler/mooselib.h ****   if (x < 0) {
 116:src/pdantler/../pdantler/mooselib.h ****     return x * -1;
 117:src/pdantler/../pdantler/mooselib.h ****   }
 118:src/pdantler/../pdantler/mooselib.h **** 
 119:src/pdantler/../pdantler/mooselib.h ****   return x;
 120:src/pdantler/../pdantler/mooselib.h **** }
 121:src/pdantler/../pdantler/mooselib.h **** 
 122:src/pdantler/../pdantler/mooselib.h **** // Return the maximum of two values
 123:src/pdantler/../pdantler/mooselib.h **** static inline int MLIB_MAX(int x, int y) {
 124:src/pdantler/../pdantler/mooselib.h ****   if (x > y) {
 125:src/pdantler/../pdantler/mooselib.h ****     return x;
 126:src/pdantler/../pdantler/mooselib.h ****   }
 127:src/pdantler/../pdantler/mooselib.h **** 
 128:src/pdantler/../pdantler/mooselib.h ****   return y;
 129:src/pdantler/../pdantler/mooselib.h **** }
 130:src/pdantler/../pdantler/mooselib.h **** 
 131:src/pdantler/../pdantler/mooselib.h **** // Return the magnitude of a size vector
 132:src/pdantler/../pdantler/mooselib.h **** static inline int MLIB_MAGNITUDE(MLIBSize s) {
 133:src/pdantler/../pdantler/mooselib.h ****   return MLIB_ABS(s.width) * MLIB_ABS(s.height);
 134:src/pdantler/../pdantler/mooselib.h **** }
 135:src/pdantler/../pdantler/mooselib.h **** 
 136:src/pdantler/../pdantler/mooselib.h **** // Return the CHEBYSHEV distance between two points, not the geometric distance
 137:src/pdantler/../pdantler/mooselib.h **** // Diagonals shouldn't be longer
 138:src/pdantler/../pdantler/mooselib.h **** // https://en.wikipedia.org/wiki/Chebyshev_distance
 139:src/pdantler/../pdantler/mooselib.h **** static inline int MLIB_DISTANCE(MLIBPoint p1, MLIBPoint p2) {
 140:src/pdantler/../pdantler/mooselib.h ****   int dx = MLIB_ABS(p1.x - p2.x);
 141:src/pdantler/../pdantler/mooselib.h ****   int dy = MLIB_ABS(p1.y - p2.y);
 142:src/pdantler/../pdantler/mooselib.h **** 
 143:src/pdantler/../pdantler/mooselib.h ****   return MLIB_MAX(dx, dy);
 144:src/pdantler/../pdantler/mooselib.h **** }
 145:src/pdantler/../pdantler/mooselib.h **** 
 146:src/pdantler/../pdantler/mooselib.h **** // Copy the string from source to destination. If max length is reached,
 147:src/pdantler/../pdantler/mooselib.h **** // destination will have a valid null-terminated string of length
 148:src/pdantler/../pdantler/mooselib.h **** // max_buffer_length-1
 149:src/pdantler/../pdantler/mooselib.h **** extern void mlib_strcpy(char *destination, const char *source,
 150:src/pdantler/../pdantler/mooselib.h ****                         int max_buffer_length);
 151:src/pdantler/../pdantler/mooselib.h **** 
 152:src/pdantler/../pdantler/mooselib.h **** // Return true if two strings are equal, false otherwise
 153:src/pdantler/../pdantler/mooselib.h **** extern bool mlib_streq(const char *s1, const char *s2);
 154:src/pdantler/../pdantler/mooselib.h **** 
 155:src/pdantler/../pdantler/mooselib.h **** //
 156:src/pdantler/../pdantler/mooselib.h **** // Replace assert with something that works both in tests
 157:src/pdantler/../pdantler/mooselib.h **** // and uses playdate error for playadte
 158:src/pdantler/../pdantler/mooselib.h **** //
 159:src/pdantler/../pdantler/mooselib.h **** #ifndef MOOSELIB_PLAYDATE
 160:src/pdantler/../pdantler/mooselib.h **** #include <assert.h>
ARM GAS  /tmp/ccHkxRVb.s 			page 12


 161:src/pdantler/../pdantler/mooselib.h **** #endif
 162:src/pdantler/../pdantler/mooselib.h **** 
 163:src/pdantler/../pdantler/mooselib.h **** #ifdef MOOSELIB_PLAYDATE
 164:src/pdantler/../pdantler/mooselib.h **** #define MLIB_ASSERT(context, condition, ...)                                   \
 165:src/pdantler/../pdantler/mooselib.h ****   if (!(condition)) {                                                          \
 166:src/pdantler/../pdantler/mooselib.h ****     (context)->system->error(__VA_ARGS__);                                     \
 167:src/pdantler/../pdantler/mooselib.h ****   }
 168:src/pdantler/../pdantler/mooselib.h **** #endif
 169:src/pdantler/../pdantler/mooselib.h **** 
 170:src/pdantler/../pdantler/mooselib.h **** #ifndef MOOSELIB_PLAYDATE
 171:src/pdantler/../pdantler/mooselib.h **** #define MLIB_ASSERT(context, condition, ...) assert((condition))
 172:src/pdantler/../pdantler/mooselib.h **** #endif
 173:src/pdantler/../pdantler/mooselib.h **** 
 174:src/pdantler/../pdantler/mooselib.h **** // Wrappers for allocators. This allows overriding for systems like the playdate
 175:src/pdantler/../pdantler/mooselib.h **** // with dedicated allocators
 176:src/pdantler/../pdantler/mooselib.h **** #if !defined(MLIB_MALLOC) || !defined(MLIB_REALLOC) || !defined(MLIB_FREE)
 177:src/pdantler/../pdantler/mooselib.h **** #include <stdlib.h>
 178:src/pdantler/../pdantler/mooselib.h **** #define MLIB_MALLOC(size, ctx) (malloc(size))
 179:src/pdantler/../pdantler/mooselib.h **** #define MLIB_REALLOC(ptr, size, ctx) (realloc(ptr, size))
 180:src/pdantler/../pdantler/mooselib.h **** #define MLIB_FREE(ptr, ctx) (free(ptr))
 181:src/pdantler/../pdantler/mooselib.h **** #endif
 182:src/pdantler/../pdantler/mooselib.h **** 
 183:src/pdantler/../pdantler/mooselib.h **** // Custom variant of calloc that uses wrapper functions to allow for allocator
 184:src/pdantler/../pdantler/mooselib.h **** static inline void *MLIB_CALLOC(size_t nitems, size_t size, void *mem_ctx) {
 185:src/pdantler/../pdantler/mooselib.h ****   void *p = MLIB_MALLOC(nitems * size, mem_ctx);
 345              		.loc 2 185 13 is_stmt 0 view .LVU62
 346 002a 3821     		movs	r1, #56	@,
 347              	.LBE9:
 348              	.LBE8:
 349              	@ src/pdantler/main.c:33:     mem_ctx->realloc = pd->system->realloc;
  33:src/pdantler/main.c ****     mem_ctx->realloc = pd->system->realloc;
 350              		.loc 1 33 34 view .LVU63
 351 002c 1B68     		ldr	r3, [r3]	@ _4, _3->realloc
 352              	@ src/pdantler/main.c:33:     mem_ctx->realloc = pd->system->realloc;
  33:src/pdantler/main.c ****     mem_ctx->realloc = pd->system->realloc;
 353              		.loc 1 33 22 view .LVU64
 354 002e 0360     		str	r3, [r0]	@ _4, mem_ctx_17->realloc
  35:src/pdantler/main.c ****     GameContext *game = MLIB_CALLOC(1, sizeof(GameContext), mem_ctx);
 355              		.loc 1 35 5 is_stmt 1 view .LVU65
 356              	.LVL25:
 357              	.LBB13:
 358              	.LBI8:
 184:src/pdantler/../pdantler/mooselib.h ****   void *p = MLIB_MALLOC(nitems * size, mem_ctx);
 359              		.loc 2 184 21 view .LVU66
 360              	.LBB12:
 361              		.loc 2 185 3 view .LVU67
 362              	@ src/pdantler/../pdantler/mooselib.h:185:   void *p = MLIB_MALLOC(nitems * size, mem_ctx);
 363              		.loc 2 185 13 is_stmt 0 view .LVU68
 364 0030 2046     		mov	r0, r4	@, event
 365              	.LVL26:
 366              		.loc 2 185 13 view .LVU69
 367 0032 9847     		blx	r3		@ _4
 368              	.LVL27:
 369              	.LBB10:
 370              	@ src/pdantler/../pdantler/mooselib.h:189:     ((char *)p)[i] = 0;
 186:src/pdantler/../pdantler/mooselib.h **** 
 187:src/pdantler/../pdantler/mooselib.h ****   // This should probably be replaced with a memcpy
ARM GAS  /tmp/ccHkxRVb.s 			page 13


 188:src/pdantler/../pdantler/mooselib.h ****   for (size_t i = 0; i < nitems * size; i++) {
 189:src/pdantler/../pdantler/mooselib.h ****     ((char *)p)[i] = 0;
 371              		.loc 2 189 20 view .LVU70
 372 0034 2146     		mov	r1, r4	@, event
 373 0036 3022     		movs	r2, #48	@,
 374              	.LBE10:
 375              	@ src/pdantler/../pdantler/mooselib.h:185:   void *p = MLIB_MALLOC(nitems * size, mem_ctx);
 185:src/pdantler/../pdantler/mooselib.h **** 
 376              		.loc 2 185 13 view .LVU71
 377 0038 0446     		mov	r4, r0	@ p, tmp148
 378              	.LVL28:
 185:src/pdantler/../pdantler/mooselib.h **** 
 379              		.loc 2 185 48 is_stmt 1 view .LVU72
 188:src/pdantler/../pdantler/mooselib.h ****     ((char *)p)[i] = 0;
 380              		.loc 2 188 3 view .LVU73
 381              	.LBB11:
 188:src/pdantler/../pdantler/mooselib.h ****     ((char *)p)[i] = 0;
 382              		.loc 2 188 8 view .LVU74
 188:src/pdantler/../pdantler/mooselib.h ****     ((char *)p)[i] = 0;
 383              		.loc 2 188 22 view .LVU75
 384              	@ src/pdantler/../pdantler/mooselib.h:189:     ((char *)p)[i] = 0;
 385              		.loc 2 189 20 is_stmt 0 view .LVU76
 386 003a 0830     		adds	r0, r0, #8	@, p,
 387              	.LVL29:
 388              		.loc 2 189 20 view .LVU77
 389 003c FFF7FEFF 		bl	memset		@
 390              	.LVL30:
 391              		.loc 2 189 20 view .LVU78
 392              	.LBE11:
 190:src/pdantler/../pdantler/mooselib.h ****   }
 191:src/pdantler/../pdantler/mooselib.h **** 
 192:src/pdantler/../pdantler/mooselib.h ****   return p;
 393              		.loc 2 192 3 is_stmt 1 view .LVU79
 394              		.loc 2 192 3 is_stmt 0 view .LVU80
 395              	.LBE12:
 396              	.LBE13:
  36:src/pdantler/main.c ****     game->pd = pd;
 397              		.loc 1 36 5 is_stmt 1 view .LVU81
 398              	@ src/pdantler/main.c:39:     game->last_tick_time = pd->system->getCurrentTimeMilliseconds();
  39:src/pdantler/main.c ****     game->last_tick_time = pd->system->getCurrentTimeMilliseconds();
 399              		.loc 1 39 38 is_stmt 0 view .LVU82
 400 0040 2B68     		ldr	r3, [r5]	@ pd_13(D)->system, pd_13(D)->system
 401              	@ src/pdantler/main.c:37:     game->mem_ctx = mem_ctx;
  37:src/pdantler/main.c ****     game->mem_ctx = mem_ctx;
 402              		.loc 1 37 19 view .LVU83
 403 0042 C4E90056 		strd	r5, r6, [r4]	@ pd, mem_ctx, p
  38:src/pdantler/main.c ****     game->current_scene = NO_SCENE;
 404              		.loc 1 38 5 is_stmt 1 view .LVU84
  39:src/pdantler/main.c ****     game->last_tick_time = pd->system->getCurrentTimeMilliseconds();
 405              		.loc 1 39 5 view .LVU85
 406              	@ src/pdantler/main.c:39:     game->last_tick_time = pd->system->getCurrentTimeMilliseconds();
  39:src/pdantler/main.c ****     game->last_tick_time = pd->system->getCurrentTimeMilliseconds();
 407              		.loc 1 39 28 is_stmt 0 view .LVU86
 408 0046 5B69     		ldr	r3, [r3, #20]	@ _5->getCurrentTimeMilliseconds, _5->getCurrentTimeMilliseconds
 409 0048 9847     		blx	r3		@ _5->getCurrentTimeMilliseconds
 410              	.LVL31:
 411 004a 0346     		mov	r3, r0	@ tmp149,
ARM GAS  /tmp/ccHkxRVb.s 			page 14


 412              	@ src/pdantler/main.c:40:     lifecycle_init_game(game);
  40:src/pdantler/main.c ****     lifecycle_init_game(game);
 413              		.loc 1 40 5 view .LVU87
 414 004c 2046     		mov	r0, r4	@, p
 415              	@ src/pdantler/main.c:39:     game->last_tick_time = pd->system->getCurrentTimeMilliseconds();
  39:src/pdantler/main.c ****     game->last_tick_time = pd->system->getCurrentTimeMilliseconds();
 416              		.loc 1 39 26 view .LVU88
 417 004e E360     		str	r3, [r4, #12]	@ tmp149, MEM[(struct GameContext *)p_30].last_tick_time
  40:src/pdantler/main.c ****     lifecycle_init_game(game);
 418              		.loc 1 40 5 is_stmt 1 view .LVU89
 419 0050 FFF7FEFF 		bl	lifecycle_init_game		@
 420              	.LVL32:
  43:src/pdantler/main.c ****     pd->system->setUpdateCallback(update, game);
 421              		.loc 1 43 5 view .LVU90
 422              	@ src/pdantler/main.c:43:     pd->system->setUpdateCallback(update, game);
  43:src/pdantler/main.c ****     pd->system->setUpdateCallback(update, game);
 423              		.loc 1 43 15 is_stmt 0 view .LVU91
 424 0054 2B68     		ldr	r3, [r5]	@ pd_13(D)->system, pd_13(D)->system
 425              	@ src/pdantler/main.c:43:     pd->system->setUpdateCallback(update, game);
  43:src/pdantler/main.c ****     pd->system->setUpdateCallback(update, game);
 426              		.loc 1 43 5 view .LVU92
 427 0056 2146     		mov	r1, r4	@, p
 428 0058 0548     		ldr	r0, .L18+12	@,
 429 005a 1B6A     		ldr	r3, [r3, #32]	@ _8->setUpdateCallback, _8->setUpdateCallback
 430 005c 9847     		blx	r3		@ _8->setUpdateCallback
 431              	.LVL33:
 432              	.LBE14:
  46:src/pdantler/main.c ****   return 0;
 433              		.loc 1 46 3 is_stmt 1 view .LVU93
 434              	@ src/pdantler/main.c:47: }
  47:src/pdantler/main.c **** }
 435              		.loc 1 47 1 is_stmt 0 view .LVU94
 436 005e 0020     		movs	r0, #0	@,
 437 0060 70BD     		pop	{r4, r5, r6, pc}	@
 438              	.LVL34:
 439              	.L19:
  47:src/pdantler/main.c **** }
 440              		.loc 1 47 1 view .LVU95
 441 0062 00BF     		.align	2
 442              	.L18:
 443 0064 00000000 		.word	pd_appender
 444 0068 00000000 		.word	.LC1
 445 006c 1C000000 		.word	.LC2
 446 0070 00000000 		.word	update
 447              		.cfi_endproc
 448              	.LFE31:
 449              		.size	eventHandler, .-eventHandler
 450              		.text
 451              	.Letext0:
 452              		.file 3 "/usr/lib/gcc/arm-none-eabi/10.3.1/include/stdint.h"
 453              		.file 4 "/usr/lib/gcc/arm-none-eabi/10.3.1/include/stddef.h"
 454              		.file 5 "/home/mchristensen/src/PlaydateSDK-2.2.0/C_API/pd_api/pd_api_gfx.h"
 455              		.file 6 "/home/mchristensen/src/PlaydateSDK-2.2.0/C_API/pd_api/pd_api_sys.h"
 456              		.file 7 "/home/mchristensen/src/PlaydateSDK-2.2.0/C_API/pd_api/pd_api_lua.h"
 457              		.file 8 "/home/mchristensen/src/PlaydateSDK-2.2.0/C_API/pd_api/pd_api_json.h"
 458              		.file 9 "/home/mchristensen/src/PlaydateSDK-2.2.0/C_API/pd_api/pd_api_file.h"
 459              		.file 10 "/home/mchristensen/src/PlaydateSDK-2.2.0/C_API/pd_api/pd_api_sprite.h"
ARM GAS  /tmp/ccHkxRVb.s 			page 15


 460              		.file 11 "/home/mchristensen/src/PlaydateSDK-2.2.0/C_API/pd_api/pd_api_sound.h"
 461              		.file 12 "/home/mchristensen/src/PlaydateSDK-2.2.0/C_API/pd_api/pd_api_display.h"
 462              		.file 13 "/home/mchristensen/src/PlaydateSDK-2.2.0/C_API/pd_api/pd_api_scoreboards.h"
 463              		.file 14 "/home/mchristensen/src/PlaydateSDK-2.2.0/C_API/pd_api.h"
 464              		.file 15 "src/pdantler/../common.h"
 465              		.file 16 "./src/scenes/scene_game.h"
 466              		.file 17 "src/pdantler/../pdantler/pdlogger.h"
 467              		.file 18 "<built-in>"