ARM GAS  /tmp/ccS8T3ln.s 			page 1


   1              		.cpu cortex-m7
   2              		.eabi_attribute 27, 1	@ Tag_ABI_HardFP_use
   3              		.eabi_attribute 28, 1	@ Tag_ABI_VFP_args
   4              		.eabi_attribute 20, 1	@ Tag_ABI_FP_denormal
   5              		.eabi_attribute 21, 1	@ Tag_ABI_FP_exceptions
   6              		.eabi_attribute 23, 3	@ Tag_ABI_FP_number_model
   7              		.eabi_attribute 24, 1	@ Tag_ABI_align8_needed
   8              		.eabi_attribute 25, 1	@ Tag_ABI_align8_preserved
   9              		.eabi_attribute 26, 1	@ Tag_ABI_enum_size
  10              		.eabi_attribute 30, 2	@ Tag_ABI_optimization_goals
  11              		.eabi_attribute 34, 1	@ Tag_CPU_unaligned_access
  12              		.eabi_attribute 18, 4	@ Tag_ABI_PCS_wchar_t
  13              		.file	"pdlogger.c"
  14              	@ GNU C17 (15:10.3-2021.07-4) version 10.3.1 20210621 (release) (arm-none-eabi)
  15              	@	compiled by GNU C version 11.2.0, GMP version 6.2.1, MPFR version 4.1.0, MPC version 1.2.1, isl v
  16              	
  17              	@ GGC heuristics: --param ggc-min-expand=100 --param ggc-min-heapsize=131072
  18              	@ options passed:  -I . -I .
  19              	@ -I /home/mchristensen/src/PlaydateSDK-2.2.0/C_API
  20              	@ -imultilib thumb/v7e-m+fp/hard -MD build/src/pdantler/pdlogger.d
  21              	@ -MF build/dep/pdlogger.o.d -MP -MQ build/src/pdantler/pdlogger.o
  22              	@ -D__USES_INITFINI__ -D __FPU_USED=1 -D TARGET_PLAYDATE=1
  23              	@ -D TARGET_EXTENSION=1 src/pdantler/pdlogger.c -mthumb -mcpu=cortex-m7
  24              	@ -mfloat-abi=hard -mfpu=fpv5-sp-d16 -mword-relocations
  25              	@ -mlibarch=armv7e-m+fpv5 -march=armv7e-m+fpv5
  26              	@ -auxbase-strip build/src/pdantler/pdlogger.o -g3 -gdwarf-2 -O2 -Wall
  27              	@ -Wno-unused -Wstrict-prototypes -Wno-unknown-pragmas -Wdouble-promotion
  28              	@ -falign-functions=16 -fomit-frame-pointer -fverbose-asm -fno-common
  29              	@ -ffunction-sections -fdata-sections
  30              	@ options enabled:  -faggressive-loop-optimizations -falign-functions
  31              	@ -falign-jumps -falign-labels -falign-loops -fallocation-dce
  32              	@ -fauto-inc-dec -fbranch-count-reg -fcaller-saves
  33              	@ -fcombine-stack-adjustments -fcompare-elim -fcprop-registers
  34              	@ -fcrossjumping -fcse-follow-jumps -fdata-sections -fdefer-pop
  35              	@ -fdelete-null-pointer-checks -fdevirtualize -fdevirtualize-speculatively
  36              	@ -fdwarf2-cfi-asm -fearly-inlining -feliminate-unused-debug-symbols
  37              	@ -feliminate-unused-debug-types -fexpensive-optimizations
  38              	@ -fforward-propagate -ffp-int-builtin-inexact -ffunction-cse
  39              	@ -ffunction-sections -fgcse -fgcse-lm -fgnu-unique
  40              	@ -fguess-branch-probability -fhoist-adjacent-loads -fident -fif-conversion
  41              	@ -fif-conversion2 -findirect-inlining -finline -finline-atomics
  42              	@ -finline-functions -finline-functions-called-once
  43              	@ -finline-small-functions -fipa-bit-cp -fipa-cp -fipa-icf
  44              	@ -fipa-icf-functions -fipa-icf-variables -fipa-profile -fipa-pure-const
  45              	@ -fipa-ra -fipa-reference -fipa-reference-addressable -fipa-sra
  46              	@ -fipa-stack-alignment -fipa-vrp -fira-hoist-pressure
  47              	@ -fira-share-save-slots -fira-share-spill-slots
  48              	@ -fisolate-erroneous-paths-dereference -fivopts -fkeep-static-consts
  49              	@ -fleading-underscore -flifetime-dse -flra-remat -fmath-errno
  50              	@ -fmerge-constants -fmerge-debug-strings -fmove-loop-invariants
  51              	@ -fomit-frame-pointer -foptimize-sibling-calls -foptimize-strlen
  52              	@ -fpartial-inlining -fpeephole -fpeephole2 -fplt -fprefetch-loop-arrays
  53              	@ -freg-struct-return -freorder-blocks -freorder-functions
  54              	@ -frerun-cse-after-loop -fsched-critical-path-heuristic
  55              	@ -fsched-dep-count-heuristic -fsched-group-heuristic -fsched-interblock
  56              	@ -fsched-last-insn-heuristic -fsched-pressure -fsched-rank-heuristic
  57              	@ -fsched-spec -fsched-spec-insn-heuristic -fsched-stalled-insns-dep
ARM GAS  /tmp/ccS8T3ln.s 			page 2


  58              	@ -fschedule-insns -fschedule-insns2 -fsection-anchors
  59              	@ -fsemantic-interposition -fshow-column -fshrink-wrap
  60              	@ -fshrink-wrap-separate -fsigned-zeros -fsplit-ivs-in-unroller
  61              	@ -fsplit-wide-types -fssa-backprop -fssa-phiopt -fstdarg-opt
  62              	@ -fstore-merging -fstrict-aliasing -fstrict-volatile-bitfields
  63              	@ -fsync-libcalls -fthread-jumps -ftoplevel-reorder -ftrapping-math
  64              	@ -ftree-bit-ccp -ftree-builtin-call-dce -ftree-ccp -ftree-ch
  65              	@ -ftree-coalesce-vars -ftree-copy-prop -ftree-cselim -ftree-dce
  66              	@ -ftree-dominator-opts -ftree-dse -ftree-forwprop -ftree-fre
  67              	@ -ftree-loop-distribute-patterns -ftree-loop-if-convert -ftree-loop-im
  68              	@ -ftree-loop-ivcanon -ftree-loop-optimize -ftree-parallelize-loops=
  69              	@ -ftree-phiprop -ftree-pre -ftree-pta -ftree-reassoc -ftree-scev-cprop
  70              	@ -ftree-sink -ftree-slsr -ftree-sra -ftree-switch-conversion
  71              	@ -ftree-tail-merge -ftree-ter -ftree-vrp -funit-at-a-time -fvar-tracking
  72              	@ -fvar-tracking-assignments -fverbose-asm -fzero-initialized-in-bss
  73              	@ -masm-syntax-unified -mbe32 -mlittle-endian -mpic-data-is-text-relative
  74              	@ -msched-prolog -mthumb -munaligned-access -mvectorize-with-neon-quad
  75              	@ -mword-relocations
  76              	
  77              		.text
  78              	.Ltext0:
  79              		.cfi_sections	.debug_frame
  80              		.section	.text.pdlogger_register_appender,"ax",%progbits
  81              		.align	1
  82              		.p2align 4,,15
  83              		.global	pdlogger_register_appender
  84              		.arch armv7e-m
  85              		.syntax unified
  86              		.thumb
  87              		.thumb_func
  88              		.fpu fpv5-sp-d16
  89              		.type	pdlogger_register_appender, %function
  90              	pdlogger_register_appender:
  91              	.LVL0:
  92              	.LFB0:
  93              		.file 1 "src/pdantler/pdlogger.c"
   1:src/pdantler/pdlogger.c **** /** This file is managed by pdantler.
   2:src/pdantler/pdlogger.c **** 
   3:src/pdantler/pdlogger.c ****     Any changes you make to it will be overwritten next time pdantler is run.
   4:src/pdantler/pdlogger.c **** 
   5:src/pdantler/pdlogger.c ****     Logger for logging on Playdate that can also handle logging in a
   6:src/pdantler/pdlogger.c ****    non-playdate setup (eg offline tests)
   7:src/pdantler/pdlogger.c **** 
   8:src/pdantler/pdlogger.c ****     Inspired by https://github.com/empyreanx/pico_headers but simplified and
   9:src/pdantler/pdlogger.c ****    adapted for Playdate
  10:src/pdantler/pdlogger.c ****  */
  11:src/pdantler/pdlogger.c **** 
  12:src/pdantler/pdlogger.c **** #ifndef PDLOGGER_INCLUDE
  13:src/pdantler/pdlogger.c **** #define PDLOGGER_INCLUDE
  14:src/pdantler/pdlogger.c **** #include "pdlogger.h"
  15:src/pdantler/pdlogger.c **** #include "printf.h"
  16:src/pdantler/pdlogger.c **** 
  17:src/pdantler/pdlogger.c **** static struct Logger {
  18:src/pdantler/pdlogger.c ****   void (*log_appender_fn)(const char *entry, void *userdata);
  19:src/pdantler/pdlogger.c ****   void *userdata;
  20:src/pdantler/pdlogger.c **** } logger;
  21:src/pdantler/pdlogger.c **** 
ARM GAS  /tmp/ccS8T3ln.s 			page 3


  22:src/pdantler/pdlogger.c **** void pdlogger_register_appender(log_appender_fn appender_fn, void *userdata) {
  94              		.loc 1 22 78 view -0
  95              		.cfi_startproc
  96              		@ args = 0, pretend = 0, frame = 0
  97              		@ frame_needed = 0, uses_anonymous_args = 0
  98              		@ link register save eliminated.
  23:src/pdantler/pdlogger.c ****   logger.log_appender_fn = appender_fn;
  99              		.loc 1 23 3 view .LVU1
 100              	@ src/pdantler/pdlogger.c:23:   logger.log_appender_fn = appender_fn;
 101              		.loc 1 23 26 is_stmt 0 view .LVU2
 102 0000 014B     		ldr	r3, .L3	@ tmp115,
 103              	@ src/pdantler/pdlogger.c:24:   logger.userdata = userdata;
  24:src/pdantler/pdlogger.c ****   logger.userdata = userdata;
 104              		.loc 1 24 19 view .LVU3
 105 0002 C3E90001 		strd	r0, r1, [r3]	@ tmp117, tmp118, tmp115
 106              	@ src/pdantler/pdlogger.c:25: }
  25:src/pdantler/pdlogger.c **** }
 107              		.loc 1 25 1 view .LVU4
 108 0006 7047     		bx	lr	@
 109              	.L4:
 110              		.align	2
 111              	.L3:
 112 0008 00000000 		.word	.LANCHOR0
 113              		.cfi_endproc
 114              	.LFE0:
 115              		.size	pdlogger_register_appender, .-pdlogger_register_appender
 116              		.section	.text.pdlogger_info,"ax",%progbits
 117              		.align	1
 118              		.p2align 4,,15
 119              		.global	pdlogger_info
 120              		.syntax unified
 121              		.thumb
 122              		.thumb_func
 123              		.fpu fpv5-sp-d16
 124              		.type	pdlogger_info, %function
 125              	pdlogger_info:
 126              	.LVL1:
 127              	.LFB1:
  26:src/pdantler/pdlogger.c **** 
  27:src/pdantler/pdlogger.c **** void pdlogger_info(const char *message, ...) {
 128              		.loc 1 27 46 is_stmt 1 view -0
 129              		.cfi_startproc
 130              		@ args = 4, pretend = 16, frame = 408
 131              		@ frame_needed = 0, uses_anonymous_args = 1
  28:src/pdantler/pdlogger.c ****   if (logger.log_appender_fn) {
 132              		.loc 1 28 3 view .LVU6
 133              	@ src/pdantler/pdlogger.c:27: void pdlogger_info(const char *message, ...) {
  27:src/pdantler/pdlogger.c ****   if (logger.log_appender_fn) {
 134              		.loc 1 27 46 is_stmt 0 view .LVU7
 135 0000 0FB4     		push	{r0, r1, r2, r3}	@
 136              	.LCFI0:
 137              		.cfi_def_cfa_offset 16
 138              		.cfi_offset 0, -16
 139              		.cfi_offset 1, -12
 140              		.cfi_offset 2, -8
 141              		.cfi_offset 3, -4
 142 0002 10B5     		push	{r4, lr}	@
ARM GAS  /tmp/ccS8T3ln.s 			page 4


 143              	.LCFI1:
 144              		.cfi_def_cfa_offset 24
 145              		.cfi_offset 4, -24
 146              		.cfi_offset 14, -20
 147              	@ src/pdantler/pdlogger.c:28:   if (logger.log_appender_fn) {
 148              		.loc 1 28 13 view .LVU8
 149 0004 104C     		ldr	r4, .L11	@ tmp117,
 150              	@ src/pdantler/pdlogger.c:27: void pdlogger_info(const char *message, ...) {
  27:src/pdantler/pdlogger.c ****   if (logger.log_appender_fn) {
 151              		.loc 1 27 46 view .LVU9
 152 0006 E6B0     		sub	sp, sp, #408	@,,
 153              	.LCFI2:
 154              		.cfi_def_cfa_offset 432
 155              	@ src/pdantler/pdlogger.c:28:   if (logger.log_appender_fn) {
 156              		.loc 1 28 6 view .LVU10
 157 0008 2368     		ldr	r3, [r4]	@ logger.log_appender_fn, logger.log_appender_fn
 158 000a BBB1     		cbz	r3, .L5	@ logger.log_appender_fn,
 159              	.LBB2:
  29:src/pdantler/pdlogger.c ****     char log_buffer[LOG_BUFFER_SIZE] = "[INFO ] ";
 160              		.loc 1 29 5 is_stmt 1 view .LVU11
 161              	@ src/pdantler/pdlogger.c:29:     char log_buffer[LOG_BUFFER_SIZE] = "[INFO ] ";
 162              		.loc 1 29 10 is_stmt 0 view .LVU12
 163 000c 0F4A     		ldr	r2, .L11+4	@ tmp122,
 164 000e 02AB     		add	r3, sp, #8	@ tmp144,,
 165 0010 07CA     		ldm	r2, {r0, r1, r2}	@ tmp122,,,
 166 0012 03C3     		stmia	r3!, {r0, r1}	@ tmp123,,
 167 0014 0021     		movs	r1, #0	@,
 168 0016 1A70     		strb	r2, [r3]	@, log_buffer
 169 0018 0DF11100 		add	r0, sp, #17	@,,
 170 001c 40F28712 		movw	r2, #391	@,
 171 0020 FFF7FEFF 		bl	memset		@
 172              	.LVL2:
  30:src/pdantler/pdlogger.c ****     va_list va;
 173              		.loc 1 30 5 is_stmt 1 view .LVU13
  31:src/pdantler/pdlogger.c ****     va_start(va, message);
 174              		.loc 1 31 5 view .LVU14
 175 0024 69AB     		add	r3, sp, #420	@ tmp128,,
 176              	@ src/pdantler/pdlogger.c:32:     vsnprintf(log_buffer + LOG_BUFFER_PREFIX_SIZE,
  32:src/pdantler/pdlogger.c ****     vsnprintf(log_buffer + LOG_BUFFER_PREFIX_SIZE,
 177              		.loc 1 32 5 is_stmt 0 view .LVU15
 178 0026 4FF4C471 		mov	r1, #392	@,
 179 002a 689A     		ldr	r2, [sp, #416]	@, message
 180 002c 04A8     		add	r0, sp, #16	@,,
 181              	@ src/pdantler/pdlogger.c:31:     va_start(va, message);
  31:src/pdantler/pdlogger.c ****     va_start(va, message);
 182              		.loc 1 31 5 view .LVU16
 183 002e 0193     		str	r3, [sp, #4]	@ tmp128, MEM[(struct  *)&va].__ap
 184              		.loc 1 32 5 is_stmt 1 view .LVU17
 185 0030 FFF7FEFF 		bl	vsnprintf_		@
 186              	.LVL3:
  33:src/pdantler/pdlogger.c ****               LOG_BUFFER_SIZE - LOG_BUFFER_PREFIX_SIZE, message, va);
  34:src/pdantler/pdlogger.c ****     logger.log_appender_fn(log_buffer, logger.userdata);
 187              		.loc 1 34 5 view .LVU18
 188 0034 02A8     		add	r0, sp, #8	@ tmp145,,
 189 0036 D4E90031 		ldrd	r3, r1, [r4]	@ logger.log_appender_fn,, tmp117
 190 003a 9847     		blx	r3		@ logger.log_appender_fn
 191              	.LVL4:
ARM GAS  /tmp/ccS8T3ln.s 			page 5


  35:src/pdantler/pdlogger.c ****     va_end(va);
 192              		.loc 1 35 5 view .LVU19
 193              	.L5:
 194              	.LBE2:
 195              	@ src/pdantler/pdlogger.c:37: }
  36:src/pdantler/pdlogger.c ****   }
  37:src/pdantler/pdlogger.c **** }
 196              		.loc 1 37 1 is_stmt 0 view .LVU20
 197 003c 66B0     		add	sp, sp, #408	@,,
 198              	.LCFI3:
 199              		.cfi_def_cfa_offset 24
 200              		@ sp needed	@
 201 003e BDE81040 		pop	{r4, lr}	@
 202              	.LCFI4:
 203              		.cfi_restore 14
 204              		.cfi_restore 4
 205              		.cfi_def_cfa_offset 16
 206 0042 04B0     		add	sp, sp, #16	@,,
 207              	.LCFI5:
 208              		.cfi_restore 3
 209              		.cfi_restore 2
 210              		.cfi_restore 1
 211              		.cfi_restore 0
 212              		.cfi_def_cfa_offset 0
 213 0044 7047     		bx	lr	@
 214              	.L12:
 215 0046 00BF     		.align	2
 216              	.L11:
 217 0048 00000000 		.word	.LANCHOR0
 218 004c 00000000 		.word	.LANCHOR1
 219              		.cfi_endproc
 220              	.LFE1:
 221              		.size	pdlogger_info, .-pdlogger_info
 222              		.section	.text.pdlogger_error,"ax",%progbits
 223              		.align	1
 224              		.p2align 4,,15
 225              		.global	pdlogger_error
 226              		.syntax unified
 227              		.thumb
 228              		.thumb_func
 229              		.fpu fpv5-sp-d16
 230              		.type	pdlogger_error, %function
 231              	pdlogger_error:
 232              	.LVL5:
 233              	.LFB2:
  38:src/pdantler/pdlogger.c **** 
  39:src/pdantler/pdlogger.c **** void pdlogger_error(const char *message, ...) {
 234              		.loc 1 39 47 is_stmt 1 view -0
 235              		.cfi_startproc
 236              		@ args = 4, pretend = 16, frame = 408
 237              		@ frame_needed = 0, uses_anonymous_args = 1
  40:src/pdantler/pdlogger.c ****   if (logger.log_appender_fn) {
 238              		.loc 1 40 3 view .LVU22
 239              	@ src/pdantler/pdlogger.c:39: void pdlogger_error(const char *message, ...) {
  39:src/pdantler/pdlogger.c ****   if (logger.log_appender_fn) {
 240              		.loc 1 39 47 is_stmt 0 view .LVU23
 241 0000 0FB4     		push	{r0, r1, r2, r3}	@
ARM GAS  /tmp/ccS8T3ln.s 			page 6


 242              	.LCFI6:
 243              		.cfi_def_cfa_offset 16
 244              		.cfi_offset 0, -16
 245              		.cfi_offset 1, -12
 246              		.cfi_offset 2, -8
 247              		.cfi_offset 3, -4
 248 0002 10B5     		push	{r4, lr}	@
 249              	.LCFI7:
 250              		.cfi_def_cfa_offset 24
 251              		.cfi_offset 4, -24
 252              		.cfi_offset 14, -20
 253              	@ src/pdantler/pdlogger.c:40:   if (logger.log_appender_fn) {
 254              		.loc 1 40 13 view .LVU24
 255 0004 124C     		ldr	r4, .L19	@ tmp119,
 256              	@ src/pdantler/pdlogger.c:39: void pdlogger_error(const char *message, ...) {
  39:src/pdantler/pdlogger.c ****   if (logger.log_appender_fn) {
 257              		.loc 1 39 47 view .LVU25
 258 0006 E6B0     		sub	sp, sp, #408	@,,
 259              	.LCFI8:
 260              		.cfi_def_cfa_offset 432
 261              	@ src/pdantler/pdlogger.c:40:   if (logger.log_appender_fn) {
 262              		.loc 1 40 6 view .LVU26
 263 0008 2368     		ldr	r3, [r4]	@ logger.log_appender_fn, logger.log_appender_fn
 264 000a DBB1     		cbz	r3, .L13	@ logger.log_appender_fn,
 265              	.LBB3:
  41:src/pdantler/pdlogger.c ****     char log_buffer[LOG_BUFFER_SIZE] = "[ERROR] ";
 266              		.loc 1 41 5 is_stmt 1 view .LVU27
 267              	@ src/pdantler/pdlogger.c:41:     char log_buffer[LOG_BUFFER_SIZE] = "[ERROR] ";
 268              		.loc 1 41 10 is_stmt 0 view .LVU28
 269 000c 114A     		ldr	r2, .L19+4	@ tmp126,
 270 000e 02AB     		add	r3, sp, #8	@ tmp150,,
 271 0010 07CA     		ldm	r2, {r0, r1, r2}	@ tmp126,,,
 272 0012 03C3     		stmia	r3!, {r0, r1}	@ tmp125,,
 273 0014 0021     		movs	r1, #0	@,
 274 0016 1A70     		strb	r2, [r3]	@, log_buffer
 275 0018 0DF11100 		add	r0, sp, #17	@,,
 276 001c 40F28712 		movw	r2, #391	@,
 277 0020 FFF7FEFF 		bl	memset		@
 278              	.LVL6:
  42:src/pdantler/pdlogger.c ****     va_list va;
 279              		.loc 1 42 5 is_stmt 1 view .LVU29
  43:src/pdantler/pdlogger.c ****     va_start(va, message);
 280              		.loc 1 43 5 view .LVU30
 281 0024 69AB     		add	r3, sp, #420	@ tmp130,,
 282              	@ src/pdantler/pdlogger.c:44:     vsnprintf(log_buffer + LOG_BUFFER_PREFIX_SIZE,
  44:src/pdantler/pdlogger.c ****     vsnprintf(log_buffer + LOG_BUFFER_PREFIX_SIZE,
 283              		.loc 1 44 5 is_stmt 0 view .LVU31
 284 0026 689A     		ldr	r2, [sp, #416]	@, message
 285 0028 4FF4C471 		mov	r1, #392	@,
 286 002c 04A8     		add	r0, sp, #16	@,,
 287              	@ src/pdantler/pdlogger.c:43:     va_start(va, message);
  43:src/pdantler/pdlogger.c ****     va_start(va, message);
 288              		.loc 1 43 5 view .LVU32
 289 002e 0193     		str	r3, [sp, #4]	@ tmp130, MEM[(struct  *)&va].__ap
 290              		.loc 1 44 5 is_stmt 1 view .LVU33
 291 0030 FFF7FEFF 		bl	vsnprintf_		@
 292              	.LVL7:
ARM GAS  /tmp/ccS8T3ln.s 			page 7


  45:src/pdantler/pdlogger.c ****               LOG_BUFFER_SIZE - LOG_BUFFER_PREFIX_SIZE, message, va);
  46:src/pdantler/pdlogger.c ****     logger.log_appender_fn(log_buffer, logger.userdata);
 293              		.loc 1 46 5 view .LVU34
 294 0034 6168     		ldr	r1, [r4, #4]	@, logger.userdata
 295 0036 02A8     		add	r0, sp, #8	@ tmp151,,
 296 0038 2368     		ldr	r3, [r4]	@ logger.log_appender_fn, logger.log_appender_fn
 297 003a 9847     		blx	r3		@ logger.log_appender_fn
 298              	.LVL8:
  47:src/pdantler/pdlogger.c ****     va_end(va);
 299              		.loc 1 47 5 view .LVU35
  48:src/pdantler/pdlogger.c ****     logger.log_appender_fn(message, logger.userdata);
 300              		.loc 1 48 5 view .LVU36
 301 003c 6898     		ldr	r0, [sp, #416]	@, message
 302 003e D4E90031 		ldrd	r3, r1, [r4]	@ logger.log_appender_fn,, tmp119
 303 0042 9847     		blx	r3		@ logger.log_appender_fn
 304              	.LVL9:
 305              	.L13:
 306              	.LBE3:
 307              	@ src/pdantler/pdlogger.c:50: }
  49:src/pdantler/pdlogger.c ****   }
  50:src/pdantler/pdlogger.c **** }
 308              		.loc 1 50 1 is_stmt 0 view .LVU37
 309 0044 66B0     		add	sp, sp, #408	@,,
 310              	.LCFI9:
 311              		.cfi_def_cfa_offset 24
 312              		@ sp needed	@
 313 0046 BDE81040 		pop	{r4, lr}	@
 314              	.LCFI10:
 315              		.cfi_restore 14
 316              		.cfi_restore 4
 317              		.cfi_def_cfa_offset 16
 318 004a 04B0     		add	sp, sp, #16	@,,
 319              	.LCFI11:
 320              		.cfi_restore 3
 321              		.cfi_restore 2
 322              		.cfi_restore 1
 323              		.cfi_restore 0
 324              		.cfi_def_cfa_offset 0
 325 004c 7047     		bx	lr	@
 326              	.L20:
 327 004e 00BF     		.align	2
 328              	.L19:
 329 0050 00000000 		.word	.LANCHOR0
 330 0054 90010000 		.word	.LANCHOR1+400
 331              		.cfi_endproc
 332              	.LFE2:
 333              		.size	pdlogger_error, .-pdlogger_error
 334              		.section	.text._putchar,"ax",%progbits
 335              		.align	1
 336              		.p2align 4,,15
 337              		.global	_putchar
 338              		.syntax unified
 339              		.thumb
 340              		.thumb_func
 341              		.fpu fpv5-sp-d16
 342              		.type	_putchar, %function
 343              	_putchar:
ARM GAS  /tmp/ccS8T3ln.s 			page 8


 344              	.LVL10:
 345              	.LFB3:
  51:src/pdantler/pdlogger.c **** 
  52:src/pdantler/pdlogger.c **** // For use with printf.h
  53:src/pdantler/pdlogger.c **** // The printf functions are unused so this can be a stub
  54:src/pdantler/pdlogger.c **** void _putchar(char character) {}
 346              		.loc 1 54 31 is_stmt 1 view -0
 347              		.cfi_startproc
 348              		@ args = 0, pretend = 0, frame = 0
 349              		@ frame_needed = 0, uses_anonymous_args = 0
 350              		@ link register save eliminated.
 351              		.loc 1 54 32 view .LVU39
 352 0000 7047     		bx	lr	@
 353              		.cfi_endproc
 354              	.LFE3:
 355              		.size	_putchar, .-_putchar
 356 0002 00BF     		.section	.rodata
 357              		.align	2
 358              		.set	.LANCHOR1,. + 0
 359              	.LC0:
 360 0000 5B494E46 		.ascii	"[INFO ] \000"
 360      4F205D20 
 360      00
 361 0009 00000000 		.space	391
 361      00000000 
 361      00000000 
 361      00000000 
 361      00000000 
 362              	.LC1:
 363 0190 5B455252 		.ascii	"[ERROR] \000"
 363      4F525D20 
 363      00
 364 0199 00000000 		.space	391
 364      00000000 
 364      00000000 
 364      00000000 
 364      00000000 
 365              		.section	.bss.logger,"aw",%nobits
 366              		.align	2
 367              		.set	.LANCHOR0,. + 0
 368              		.type	logger, %object
 369              		.size	logger, 8
 370              	logger:
 371 0000 00000000 		.space	8
 371      00000000 
 372              		.text
 373              	.Letext0:
 374              		.file 2 "src/pdantler/pdlogger.h"
 375              		.file 3 "/usr/lib/gcc/arm-none-eabi/10.3.1/include/stdarg.h"
 376              		.file 4 "<built-in>"
 377              		.file 5 "src/pdantler/printf.h"
 378              		.section	.debug_info,"",%progbits
 379              	.Ldebug_info0:
 380 0000 E2020000 		.4byte	0x2e2
 381 0004 0200     		.2byte	0x2
 382 0006 00000000 		.4byte	.Ldebug_abbrev0
 383 000a 04       		.byte	0x4
ARM GAS  /tmp/ccS8T3ln.s 			page 9


 384 000b 01       		.uleb128 0x1
 385 000c DC0B0000 		.4byte	.LASF539
 386 0010 0C       		.byte	0xc
 387 0011 C3110000 		.4byte	.LASF540
 388 0015 611D0000 		.4byte	.LASF541
 389 0019 00000000 		.4byte	.Ldebug_ranges0+0
 390 001d 00000000 		.4byte	0
 391 0021 00000000 		.4byte	0
 392 0025 00000000 		.4byte	.Ldebug_line0
 393 0029 00000000 		.4byte	.Ldebug_macro0
 394 002d 02       		.uleb128 0x2
 395 002e 72170000 		.4byte	.LASF522
 396 0032 02       		.byte	0x2
 397 0033 09       		.byte	0x9
 398 0034 10       		.byte	0x10
 399 0035 39000000 		.4byte	0x39
 400 0039 03       		.uleb128 0x3
 401 003a 04       		.byte	0x4
 402 003b 3F000000 		.4byte	0x3f
 403 003f 04       		.uleb128 0x4
 404 0040 01       		.byte	0x1
 405 0041 50000000 		.4byte	0x50
 406 0045 05       		.uleb128 0x5
 407 0046 50000000 		.4byte	0x50
 408 004a 05       		.uleb128 0x5
 409 004b 62000000 		.4byte	0x62
 410 004f 00       		.byte	0
 411 0050 03       		.uleb128 0x3
 412 0051 04       		.byte	0x4
 413 0052 5D000000 		.4byte	0x5d
 414 0056 06       		.uleb128 0x6
 415 0057 01       		.byte	0x1
 416 0058 08       		.byte	0x8
 417 0059 8E010000 		.4byte	.LASF525
 418 005d 07       		.uleb128 0x7
 419 005e 56000000 		.4byte	0x56
 420 0062 08       		.uleb128 0x8
 421 0063 04       		.byte	0x4
 422 0064 02       		.uleb128 0x2
 423 0065 DB110000 		.4byte	.LASF523
 424 0069 03       		.byte	0x3
 425 006a 28       		.byte	0x28
 426 006b 1B       		.byte	0x1b
 427 006c 70000000 		.4byte	0x70
 428 0070 09       		.uleb128 0x9
 429 0071 1E280000 		.4byte	.LASF542
 430 0075 04       		.byte	0x4
 431 0076 04       		.byte	0x4
 432 0077 00       		.byte	0
 433 0078 8A000000 		.4byte	0x8a
 434 007c 0A       		.uleb128 0xa
 435 007d 802C0000 		.4byte	.LASF543
 436 0081 62000000 		.4byte	0x62
 437 0085 02       		.byte	0x2
 438 0086 23       		.byte	0x23
 439 0087 00       		.uleb128 0
 440 0088 01       		.byte	0x1
ARM GAS  /tmp/ccS8T3ln.s 			page 10


 441 0089 00       		.byte	0
 442 008a 02       		.uleb128 0x2
 443 008b 94190000 		.4byte	.LASF524
 444 008f 03       		.byte	0x3
 445 0090 63       		.byte	0x63
 446 0091 18       		.byte	0x18
 447 0092 64000000 		.4byte	0x64
 448 0096 0B       		.uleb128 0xb
 449 0097 04       		.byte	0x4
 450 0098 05       		.byte	0x5
 451 0099 696E7400 		.ascii	"int\000"
 452 009d 06       		.uleb128 0x6
 453 009e 04       		.byte	0x4
 454 009f 07       		.byte	0x7
 455 00a0 B3030000 		.4byte	.LASF526
 456 00a4 06       		.uleb128 0x6
 457 00a5 08       		.byte	0x8
 458 00a6 05       		.byte	0x5
 459 00a7 DD190000 		.4byte	.LASF527
 460 00ab 06       		.uleb128 0x6
 461 00ac 08       		.byte	0x8
 462 00ad 04       		.byte	0x4
 463 00ae 89200000 		.4byte	.LASF528
 464 00b2 0C       		.uleb128 0xc
 465 00b3 FA190000 		.4byte	.LASF544
 466 00b7 08       		.byte	0x8
 467 00b8 01       		.byte	0x1
 468 00b9 11       		.byte	0x11
 469 00ba 0F       		.byte	0xf
 470 00bb DE000000 		.4byte	0xde
 471 00bf 0D       		.uleb128 0xd
 472 00c0 72170000 		.4byte	.LASF522
 473 00c4 01       		.byte	0x1
 474 00c5 12       		.byte	0x12
 475 00c6 0A       		.byte	0xa
 476 00c7 39000000 		.4byte	0x39
 477 00cb 02       		.byte	0x2
 478 00cc 23       		.byte	0x23
 479 00cd 00       		.uleb128 0
 480 00ce 0D       		.uleb128 0xd
 481 00cf 83140000 		.4byte	.LASF529
 482 00d3 01       		.byte	0x1
 483 00d4 13       		.byte	0x13
 484 00d5 09       		.byte	0x9
 485 00d6 62000000 		.4byte	0x62
 486 00da 02       		.byte	0x2
 487 00db 23       		.byte	0x23
 488 00dc 04       		.uleb128 0x4
 489 00dd 00       		.byte	0
 490 00de 0E       		.uleb128 0xe
 491 00df 78090000 		.4byte	.LASF534
 492 00e3 01       		.byte	0x1
 493 00e4 14       		.byte	0x14
 494 00e5 03       		.byte	0x3
 495 00e6 B2000000 		.4byte	0xb2
 496 00ea 05       		.byte	0x5
 497 00eb 03       		.byte	0x3
ARM GAS  /tmp/ccS8T3ln.s 			page 11


 498 00ec 00000000 		.4byte	logger
 499 00f0 0F       		.uleb128 0xf
 500 00f1 01       		.byte	0x1
 501 00f2 451F0000 		.4byte	.LASF530
 502 00f6 01       		.byte	0x1
 503 00f7 36       		.byte	0x36
 504 00f8 06       		.byte	0x6
 505 00f9 01       		.byte	0x1
 506 00fa 00000000 		.4byte	.LFB3
 507 00fe 02000000 		.4byte	.LFE3
 508 0102 02       		.byte	0x2
 509 0103 7D       		.byte	0x7d
 510 0104 00       		.sleb128 0
 511 0105 01       		.byte	0x1
 512 0106 19010000 		.4byte	0x119
 513 010a 10       		.uleb128 0x10
 514 010b 81120000 		.4byte	.LASF532
 515 010f 01       		.byte	0x1
 516 0110 36       		.byte	0x36
 517 0111 14       		.byte	0x14
 518 0112 56000000 		.4byte	0x56
 519 0116 01       		.byte	0x1
 520 0117 50       		.byte	0x50
 521 0118 00       		.byte	0
 522 0119 11       		.uleb128 0x11
 523 011a 01       		.byte	0x1
 524 011b 13160000 		.4byte	.LASF531
 525 011f 01       		.byte	0x1
 526 0120 27       		.byte	0x27
 527 0121 06       		.byte	0x6
 528 0122 01       		.byte	0x1
 529 0123 00000000 		.4byte	.LFB2
 530 0127 58000000 		.4byte	.LFE2
 531 012b 00000000 		.4byte	.LLST1
 532 012f 01       		.byte	0x1
 533 0130 D6010000 		.4byte	0x1d6
 534 0134 10       		.uleb128 0x10
 535 0135 64020000 		.4byte	.LASF533
 536 0139 01       		.byte	0x1
 537 013a 27       		.byte	0x27
 538 013b 21       		.byte	0x21
 539 013c 50000000 		.4byte	0x50
 540 0140 02       		.byte	0x2
 541 0141 91       		.byte	0x91
 542 0142 70       		.sleb128 -16
 543 0143 12       		.uleb128 0x12
 544 0144 13       		.uleb128 0x13
 545 0145 0C000000 		.4byte	.LBB3
 546 0149 44000000 		.4byte	.LBE3
 547 014d 0E       		.uleb128 0xe
 548 014e A82F0000 		.4byte	.LASF535
 549 0152 01       		.byte	0x1
 550 0153 29       		.byte	0x29
 551 0154 0A       		.byte	0xa
 552 0155 D6010000 		.4byte	0x1d6
 553 0159 03       		.byte	0x3
 554 015a 91       		.byte	0x91
ARM GAS  /tmp/ccS8T3ln.s 			page 12


 555 015b D87C     		.sleb128 -424
 556 015d 14       		.uleb128 0x14
 557 015e 766100   		.ascii	"va\000"
 558 0161 01       		.byte	0x1
 559 0162 2A       		.byte	0x2a
 560 0163 0D       		.byte	0xd
 561 0164 8A000000 		.4byte	0x8a
 562 0168 03       		.byte	0x3
 563 0169 91       		.byte	0x91
 564 016a D47C     		.sleb128 -428
 565 016c 15       		.uleb128 0x15
 566 016d 24000000 		.4byte	.LVL6
 567 0171 CA020000 		.4byte	0x2ca
 568 0175 8D010000 		.4byte	0x18d
 569 0179 16       		.uleb128 0x16
 570 017a 01       		.byte	0x1
 571 017b 50       		.byte	0x50
 572 017c 03       		.byte	0x3
 573 017d 91       		.byte	0x91
 574 017e C17C     		.sleb128 -447
 575 0180 16       		.uleb128 0x16
 576 0181 01       		.byte	0x1
 577 0182 51       		.byte	0x51
 578 0183 01       		.byte	0x1
 579 0184 30       		.byte	0x30
 580 0185 16       		.uleb128 0x16
 581 0186 01       		.byte	0x1
 582 0187 52       		.byte	0x52
 583 0188 03       		.byte	0x3
 584 0189 0A       		.byte	0xa
 585 018a 8701     		.2byte	0x187
 586 018c 00       		.byte	0
 587 018d 15       		.uleb128 0x15
 588 018e 34000000 		.4byte	.LVL7
 589 0192 D7020000 		.4byte	0x2d7
 590 0196 B6010000 		.4byte	0x1b6
 591 019a 16       		.uleb128 0x16
 592 019b 01       		.byte	0x1
 593 019c 50       		.byte	0x50
 594 019d 03       		.byte	0x3
 595 019e 91       		.byte	0x91
 596 019f C07C     		.sleb128 -448
 597 01a1 16       		.uleb128 0x16
 598 01a2 01       		.byte	0x1
 599 01a3 51       		.byte	0x51
 600 01a4 03       		.byte	0x3
 601 01a5 0A       		.byte	0xa
 602 01a6 8801     		.2byte	0x188
 603 01a8 16       		.uleb128 0x16
 604 01a9 01       		.byte	0x1
 605 01aa 52       		.byte	0x52
 606 01ab 03       		.byte	0x3
 607 01ac 91       		.byte	0x91
 608 01ad 50       		.sleb128 -48
 609 01ae 06       		.byte	0x6
 610 01af 16       		.uleb128 0x16
 611 01b0 01       		.byte	0x1
ARM GAS  /tmp/ccS8T3ln.s 			page 13


 612 01b1 53       		.byte	0x53
 613 01b2 02       		.byte	0x2
 614 01b3 91       		.byte	0x91
 615 01b4 54       		.sleb128 -44
 616 01b5 00       		.byte	0
 617 01b6 17       		.uleb128 0x17
 618 01b7 3C000000 		.4byte	.LVL8
 619 01bb C7010000 		.4byte	0x1c7
 620 01bf 16       		.uleb128 0x16
 621 01c0 01       		.byte	0x1
 622 01c1 50       		.byte	0x50
 623 01c2 03       		.byte	0x3
 624 01c3 91       		.byte	0x91
 625 01c4 B87C     		.sleb128 -456
 626 01c6 00       		.byte	0
 627 01c7 18       		.uleb128 0x18
 628 01c8 44000000 		.4byte	.LVL9
 629 01cc 16       		.uleb128 0x16
 630 01cd 01       		.byte	0x1
 631 01ce 50       		.byte	0x50
 632 01cf 03       		.byte	0x3
 633 01d0 91       		.byte	0x91
 634 01d1 50       		.sleb128 -48
 635 01d2 06       		.byte	0x6
 636 01d3 00       		.byte	0
 637 01d4 00       		.byte	0
 638 01d5 00       		.byte	0
 639 01d6 19       		.uleb128 0x19
 640 01d7 56000000 		.4byte	0x56
 641 01db E7010000 		.4byte	0x1e7
 642 01df 1A       		.uleb128 0x1a
 643 01e0 9D000000 		.4byte	0x9d
 644 01e4 8F01     		.2byte	0x18f
 645 01e6 00       		.byte	0
 646 01e7 11       		.uleb128 0x11
 647 01e8 01       		.byte	0x1
 648 01e9 4A1C0000 		.4byte	.LASF536
 649 01ed 01       		.byte	0x1
 650 01ee 1B       		.byte	0x1b
 651 01ef 06       		.byte	0x6
 652 01f0 01       		.byte	0x1
 653 01f1 00000000 		.4byte	.LFB1
 654 01f5 50000000 		.4byte	.LFE1
 655 01f9 5D000000 		.4byte	.LLST0
 656 01fd 01       		.byte	0x1
 657 01fe 93020000 		.4byte	0x293
 658 0202 10       		.uleb128 0x10
 659 0203 64020000 		.4byte	.LASF533
 660 0207 01       		.byte	0x1
 661 0208 1B       		.byte	0x1b
 662 0209 20       		.byte	0x20
 663 020a 50000000 		.4byte	0x50
 664 020e 02       		.byte	0x2
 665 020f 91       		.byte	0x91
 666 0210 70       		.sleb128 -16
 667 0211 12       		.uleb128 0x12
 668 0212 13       		.uleb128 0x13
ARM GAS  /tmp/ccS8T3ln.s 			page 14


 669 0213 0C000000 		.4byte	.LBB2
 670 0217 3C000000 		.4byte	.LBE2
 671 021b 0E       		.uleb128 0xe
 672 021c A82F0000 		.4byte	.LASF535
 673 0220 01       		.byte	0x1
 674 0221 1D       		.byte	0x1d
 675 0222 0A       		.byte	0xa
 676 0223 D6010000 		.4byte	0x1d6
 677 0227 03       		.byte	0x3
 678 0228 91       		.byte	0x91
 679 0229 D87C     		.sleb128 -424
 680 022b 14       		.uleb128 0x14
 681 022c 766100   		.ascii	"va\000"
 682 022f 01       		.byte	0x1
 683 0230 1E       		.byte	0x1e
 684 0231 0D       		.byte	0xd
 685 0232 8A000000 		.4byte	0x8a
 686 0236 03       		.byte	0x3
 687 0237 91       		.byte	0x91
 688 0238 D47C     		.sleb128 -428
 689 023a 15       		.uleb128 0x15
 690 023b 24000000 		.4byte	.LVL2
 691 023f CA020000 		.4byte	0x2ca
 692 0243 5B020000 		.4byte	0x25b
 693 0247 16       		.uleb128 0x16
 694 0248 01       		.byte	0x1
 695 0249 50       		.byte	0x50
 696 024a 03       		.byte	0x3
 697 024b 91       		.byte	0x91
 698 024c C17C     		.sleb128 -447
 699 024e 16       		.uleb128 0x16
 700 024f 01       		.byte	0x1
 701 0250 51       		.byte	0x51
 702 0251 01       		.byte	0x1
 703 0252 30       		.byte	0x30
 704 0253 16       		.uleb128 0x16
 705 0254 01       		.byte	0x1
 706 0255 52       		.byte	0x52
 707 0256 03       		.byte	0x3
 708 0257 0A       		.byte	0xa
 709 0258 8701     		.2byte	0x187
 710 025a 00       		.byte	0
 711 025b 15       		.uleb128 0x15
 712 025c 34000000 		.4byte	.LVL3
 713 0260 D7020000 		.4byte	0x2d7
 714 0264 84020000 		.4byte	0x284
 715 0268 16       		.uleb128 0x16
 716 0269 01       		.byte	0x1
 717 026a 50       		.byte	0x50
 718 026b 03       		.byte	0x3
 719 026c 91       		.byte	0x91
 720 026d C07C     		.sleb128 -448
 721 026f 16       		.uleb128 0x16
 722 0270 01       		.byte	0x1
 723 0271 51       		.byte	0x51
 724 0272 03       		.byte	0x3
 725 0273 0A       		.byte	0xa
ARM GAS  /tmp/ccS8T3ln.s 			page 15


 726 0274 8801     		.2byte	0x188
 727 0276 16       		.uleb128 0x16
 728 0277 01       		.byte	0x1
 729 0278 52       		.byte	0x52
 730 0279 03       		.byte	0x3
 731 027a 91       		.byte	0x91
 732 027b 50       		.sleb128 -48
 733 027c 06       		.byte	0x6
 734 027d 16       		.uleb128 0x16
 735 027e 01       		.byte	0x1
 736 027f 53       		.byte	0x53
 737 0280 02       		.byte	0x2
 738 0281 91       		.byte	0x91
 739 0282 54       		.sleb128 -44
 740 0283 00       		.byte	0
 741 0284 18       		.uleb128 0x18
 742 0285 3C000000 		.4byte	.LVL4
 743 0289 16       		.uleb128 0x16
 744 028a 01       		.byte	0x1
 745 028b 50       		.byte	0x50
 746 028c 03       		.byte	0x3
 747 028d 91       		.byte	0x91
 748 028e B87C     		.sleb128 -456
 749 0290 00       		.byte	0
 750 0291 00       		.byte	0
 751 0292 00       		.byte	0
 752 0293 0F       		.uleb128 0xf
 753 0294 01       		.byte	0x1
 754 0295 84080000 		.4byte	.LASF537
 755 0299 01       		.byte	0x1
 756 029a 16       		.byte	0x16
 757 029b 06       		.byte	0x6
 758 029c 01       		.byte	0x1
 759 029d 00000000 		.4byte	.LFB0
 760 02a1 0C000000 		.4byte	.LFE0
 761 02a5 02       		.byte	0x2
 762 02a6 7D       		.byte	0x7d
 763 02a7 00       		.sleb128 0
 764 02a8 01       		.byte	0x1
 765 02a9 CA020000 		.4byte	0x2ca
 766 02ad 10       		.uleb128 0x10
 767 02ae 88110000 		.4byte	.LASF538
 768 02b2 01       		.byte	0x1
 769 02b3 16       		.byte	0x16
 770 02b4 31       		.byte	0x31
 771 02b5 2D000000 		.4byte	0x2d
 772 02b9 01       		.byte	0x1
 773 02ba 50       		.byte	0x50
 774 02bb 10       		.uleb128 0x10
 775 02bc 83140000 		.4byte	.LASF529
 776 02c0 01       		.byte	0x1
 777 02c1 16       		.byte	0x16
 778 02c2 44       		.byte	0x44
 779 02c3 62000000 		.4byte	0x62
 780 02c7 01       		.byte	0x1
 781 02c8 51       		.byte	0x51
 782 02c9 00       		.byte	0
ARM GAS  /tmp/ccS8T3ln.s 			page 16


 783 02ca 1B       		.uleb128 0x1b
 784 02cb 01       		.byte	0x1
 785 02cc 01       		.byte	0x1
 786 02cd 431C0000 		.4byte	.LASF545
 787 02d1 52270000 		.4byte	.LASF546
 788 02d5 04       		.byte	0x4
 789 02d6 00       		.byte	0
 790 02d7 1C       		.uleb128 0x1c
 791 02d8 01       		.byte	0x1
 792 02d9 01       		.byte	0x1
 793 02da 5D0F0000 		.4byte	.LASF547
 794 02de 5D0F0000 		.4byte	.LASF547
 795 02e2 05       		.byte	0x5
 796 02e3 58       		.byte	0x58
 797 02e4 05       		.byte	0x5
 798 02e5 00       		.byte	0
 799              		.section	.debug_abbrev,"",%progbits
 800              	.Ldebug_abbrev0:
 801 0000 01       		.uleb128 0x1
 802 0001 11       		.uleb128 0x11
 803 0002 01       		.byte	0x1
 804 0003 25       		.uleb128 0x25
 805 0004 0E       		.uleb128 0xe
 806 0005 13       		.uleb128 0x13
 807 0006 0B       		.uleb128 0xb
 808 0007 03       		.uleb128 0x3
 809 0008 0E       		.uleb128 0xe
 810 0009 1B       		.uleb128 0x1b
 811 000a 0E       		.uleb128 0xe
 812 000b 55       		.uleb128 0x55
 813 000c 06       		.uleb128 0x6
 814 000d 11       		.uleb128 0x11
 815 000e 01       		.uleb128 0x1
 816 000f 52       		.uleb128 0x52
 817 0010 01       		.uleb128 0x1
 818 0011 10       		.uleb128 0x10
 819 0012 06       		.uleb128 0x6
 820 0013 9942     		.uleb128 0x2119
 821 0015 06       		.uleb128 0x6
 822 0016 00       		.byte	0
 823 0017 00       		.byte	0
 824 0018 02       		.uleb128 0x2
 825 0019 16       		.uleb128 0x16
 826 001a 00       		.byte	0
 827 001b 03       		.uleb128 0x3
 828 001c 0E       		.uleb128 0xe
 829 001d 3A       		.uleb128 0x3a
 830 001e 0B       		.uleb128 0xb
 831 001f 3B       		.uleb128 0x3b
 832 0020 0B       		.uleb128 0xb
 833 0021 39       		.uleb128 0x39
 834 0022 0B       		.uleb128 0xb
 835 0023 49       		.uleb128 0x49
 836 0024 13       		.uleb128 0x13
 837 0025 00       		.byte	0
 838 0026 00       		.byte	0
 839 0027 03       		.uleb128 0x3
ARM GAS  /tmp/ccS8T3ln.s 			page 17


 840 0028 0F       		.uleb128 0xf
 841 0029 00       		.byte	0
 842 002a 0B       		.uleb128 0xb
 843 002b 0B       		.uleb128 0xb
 844 002c 49       		.uleb128 0x49
 845 002d 13       		.uleb128 0x13
 846 002e 00       		.byte	0
 847 002f 00       		.byte	0
 848 0030 04       		.uleb128 0x4
 849 0031 15       		.uleb128 0x15
 850 0032 01       		.byte	0x1
 851 0033 27       		.uleb128 0x27
 852 0034 0C       		.uleb128 0xc
 853 0035 01       		.uleb128 0x1
 854 0036 13       		.uleb128 0x13
 855 0037 00       		.byte	0
 856 0038 00       		.byte	0
 857 0039 05       		.uleb128 0x5
 858 003a 05       		.uleb128 0x5
 859 003b 00       		.byte	0
 860 003c 49       		.uleb128 0x49
 861 003d 13       		.uleb128 0x13
 862 003e 00       		.byte	0
 863 003f 00       		.byte	0
 864 0040 06       		.uleb128 0x6
 865 0041 24       		.uleb128 0x24
 866 0042 00       		.byte	0
 867 0043 0B       		.uleb128 0xb
 868 0044 0B       		.uleb128 0xb
 869 0045 3E       		.uleb128 0x3e
 870 0046 0B       		.uleb128 0xb
 871 0047 03       		.uleb128 0x3
 872 0048 0E       		.uleb128 0xe
 873 0049 00       		.byte	0
 874 004a 00       		.byte	0
 875 004b 07       		.uleb128 0x7
 876 004c 26       		.uleb128 0x26
 877 004d 00       		.byte	0
 878 004e 49       		.uleb128 0x49
 879 004f 13       		.uleb128 0x13
 880 0050 00       		.byte	0
 881 0051 00       		.byte	0
 882 0052 08       		.uleb128 0x8
 883 0053 0F       		.uleb128 0xf
 884 0054 00       		.byte	0
 885 0055 0B       		.uleb128 0xb
 886 0056 0B       		.uleb128 0xb
 887 0057 00       		.byte	0
 888 0058 00       		.byte	0
 889 0059 09       		.uleb128 0x9
 890 005a 13       		.uleb128 0x13
 891 005b 01       		.byte	0x1
 892 005c 03       		.uleb128 0x3
 893 005d 0E       		.uleb128 0xe
 894 005e 0B       		.uleb128 0xb
 895 005f 0B       		.uleb128 0xb
 896 0060 3A       		.uleb128 0x3a
ARM GAS  /tmp/ccS8T3ln.s 			page 18


 897 0061 0B       		.uleb128 0xb
 898 0062 3B       		.uleb128 0x3b
 899 0063 0B       		.uleb128 0xb
 900 0064 01       		.uleb128 0x1
 901 0065 13       		.uleb128 0x13
 902 0066 00       		.byte	0
 903 0067 00       		.byte	0
 904 0068 0A       		.uleb128 0xa
 905 0069 0D       		.uleb128 0xd
 906 006a 00       		.byte	0
 907 006b 03       		.uleb128 0x3
 908 006c 0E       		.uleb128 0xe
 909 006d 49       		.uleb128 0x49
 910 006e 13       		.uleb128 0x13
 911 006f 38       		.uleb128 0x38
 912 0070 0A       		.uleb128 0xa
 913 0071 34       		.uleb128 0x34
 914 0072 0C       		.uleb128 0xc
 915 0073 00       		.byte	0
 916 0074 00       		.byte	0
 917 0075 0B       		.uleb128 0xb
 918 0076 24       		.uleb128 0x24
 919 0077 00       		.byte	0
 920 0078 0B       		.uleb128 0xb
 921 0079 0B       		.uleb128 0xb
 922 007a 3E       		.uleb128 0x3e
 923 007b 0B       		.uleb128 0xb
 924 007c 03       		.uleb128 0x3
 925 007d 08       		.uleb128 0x8
 926 007e 00       		.byte	0
 927 007f 00       		.byte	0
 928 0080 0C       		.uleb128 0xc
 929 0081 13       		.uleb128 0x13
 930 0082 01       		.byte	0x1
 931 0083 03       		.uleb128 0x3
 932 0084 0E       		.uleb128 0xe
 933 0085 0B       		.uleb128 0xb
 934 0086 0B       		.uleb128 0xb
 935 0087 3A       		.uleb128 0x3a
 936 0088 0B       		.uleb128 0xb
 937 0089 3B       		.uleb128 0x3b
 938 008a 0B       		.uleb128 0xb
 939 008b 39       		.uleb128 0x39
 940 008c 0B       		.uleb128 0xb
 941 008d 01       		.uleb128 0x1
 942 008e 13       		.uleb128 0x13
 943 008f 00       		.byte	0
 944 0090 00       		.byte	0
 945 0091 0D       		.uleb128 0xd
 946 0092 0D       		.uleb128 0xd
 947 0093 00       		.byte	0
 948 0094 03       		.uleb128 0x3
 949 0095 0E       		.uleb128 0xe
 950 0096 3A       		.uleb128 0x3a
 951 0097 0B       		.uleb128 0xb
 952 0098 3B       		.uleb128 0x3b
 953 0099 0B       		.uleb128 0xb
ARM GAS  /tmp/ccS8T3ln.s 			page 19


 954 009a 39       		.uleb128 0x39
 955 009b 0B       		.uleb128 0xb
 956 009c 49       		.uleb128 0x49
 957 009d 13       		.uleb128 0x13
 958 009e 38       		.uleb128 0x38
 959 009f 0A       		.uleb128 0xa
 960 00a0 00       		.byte	0
 961 00a1 00       		.byte	0
 962 00a2 0E       		.uleb128 0xe
 963 00a3 34       		.uleb128 0x34
 964 00a4 00       		.byte	0
 965 00a5 03       		.uleb128 0x3
 966 00a6 0E       		.uleb128 0xe
 967 00a7 3A       		.uleb128 0x3a
 968 00a8 0B       		.uleb128 0xb
 969 00a9 3B       		.uleb128 0x3b
 970 00aa 0B       		.uleb128 0xb
 971 00ab 39       		.uleb128 0x39
 972 00ac 0B       		.uleb128 0xb
 973 00ad 49       		.uleb128 0x49
 974 00ae 13       		.uleb128 0x13
 975 00af 02       		.uleb128 0x2
 976 00b0 0A       		.uleb128 0xa
 977 00b1 00       		.byte	0
 978 00b2 00       		.byte	0
 979 00b3 0F       		.uleb128 0xf
 980 00b4 2E       		.uleb128 0x2e
 981 00b5 01       		.byte	0x1
 982 00b6 3F       		.uleb128 0x3f
 983 00b7 0C       		.uleb128 0xc
 984 00b8 03       		.uleb128 0x3
 985 00b9 0E       		.uleb128 0xe
 986 00ba 3A       		.uleb128 0x3a
 987 00bb 0B       		.uleb128 0xb
 988 00bc 3B       		.uleb128 0x3b
 989 00bd 0B       		.uleb128 0xb
 990 00be 39       		.uleb128 0x39
 991 00bf 0B       		.uleb128 0xb
 992 00c0 27       		.uleb128 0x27
 993 00c1 0C       		.uleb128 0xc
 994 00c2 11       		.uleb128 0x11
 995 00c3 01       		.uleb128 0x1
 996 00c4 12       		.uleb128 0x12
 997 00c5 01       		.uleb128 0x1
 998 00c6 40       		.uleb128 0x40
 999 00c7 0A       		.uleb128 0xa
 1000 00c8 9742     		.uleb128 0x2117
 1001 00ca 0C       		.uleb128 0xc
 1002 00cb 01       		.uleb128 0x1
 1003 00cc 13       		.uleb128 0x13
 1004 00cd 00       		.byte	0
 1005 00ce 00       		.byte	0
 1006 00cf 10       		.uleb128 0x10
 1007 00d0 05       		.uleb128 0x5
 1008 00d1 00       		.byte	0
 1009 00d2 03       		.uleb128 0x3
 1010 00d3 0E       		.uleb128 0xe
ARM GAS  /tmp/ccS8T3ln.s 			page 20


 1011 00d4 3A       		.uleb128 0x3a
 1012 00d5 0B       		.uleb128 0xb
 1013 00d6 3B       		.uleb128 0x3b
 1014 00d7 0B       		.uleb128 0xb
 1015 00d8 39       		.uleb128 0x39
 1016 00d9 0B       		.uleb128 0xb
 1017 00da 49       		.uleb128 0x49
 1018 00db 13       		.uleb128 0x13
 1019 00dc 02       		.uleb128 0x2
 1020 00dd 0A       		.uleb128 0xa
 1021 00de 00       		.byte	0
 1022 00df 00       		.byte	0
 1023 00e0 11       		.uleb128 0x11
 1024 00e1 2E       		.uleb128 0x2e
 1025 00e2 01       		.byte	0x1
 1026 00e3 3F       		.uleb128 0x3f
 1027 00e4 0C       		.uleb128 0xc
 1028 00e5 03       		.uleb128 0x3
 1029 00e6 0E       		.uleb128 0xe
 1030 00e7 3A       		.uleb128 0x3a
 1031 00e8 0B       		.uleb128 0xb
 1032 00e9 3B       		.uleb128 0x3b
 1033 00ea 0B       		.uleb128 0xb
 1034 00eb 39       		.uleb128 0x39
 1035 00ec 0B       		.uleb128 0xb
 1036 00ed 27       		.uleb128 0x27
 1037 00ee 0C       		.uleb128 0xc
 1038 00ef 11       		.uleb128 0x11
 1039 00f0 01       		.uleb128 0x1
 1040 00f1 12       		.uleb128 0x12
 1041 00f2 01       		.uleb128 0x1
 1042 00f3 40       		.uleb128 0x40
 1043 00f4 06       		.uleb128 0x6
 1044 00f5 9742     		.uleb128 0x2117
 1045 00f7 0C       		.uleb128 0xc
 1046 00f8 01       		.uleb128 0x1
 1047 00f9 13       		.uleb128 0x13
 1048 00fa 00       		.byte	0
 1049 00fb 00       		.byte	0
 1050 00fc 12       		.uleb128 0x12
 1051 00fd 18       		.uleb128 0x18
 1052 00fe 00       		.byte	0
 1053 00ff 00       		.byte	0
 1054 0100 00       		.byte	0
 1055 0101 13       		.uleb128 0x13
 1056 0102 0B       		.uleb128 0xb
 1057 0103 01       		.byte	0x1
 1058 0104 11       		.uleb128 0x11
 1059 0105 01       		.uleb128 0x1
 1060 0106 12       		.uleb128 0x12
 1061 0107 01       		.uleb128 0x1
 1062 0108 00       		.byte	0
 1063 0109 00       		.byte	0
 1064 010a 14       		.uleb128 0x14
 1065 010b 34       		.uleb128 0x34
 1066 010c 00       		.byte	0
 1067 010d 03       		.uleb128 0x3
ARM GAS  /tmp/ccS8T3ln.s 			page 21


 1068 010e 08       		.uleb128 0x8
 1069 010f 3A       		.uleb128 0x3a
 1070 0110 0B       		.uleb128 0xb
 1071 0111 3B       		.uleb128 0x3b
 1072 0112 0B       		.uleb128 0xb
 1073 0113 39       		.uleb128 0x39
 1074 0114 0B       		.uleb128 0xb
 1075 0115 49       		.uleb128 0x49
 1076 0116 13       		.uleb128 0x13
 1077 0117 02       		.uleb128 0x2
 1078 0118 0A       		.uleb128 0xa
 1079 0119 00       		.byte	0
 1080 011a 00       		.byte	0
 1081 011b 15       		.uleb128 0x15
 1082 011c 898201   		.uleb128 0x4109
 1083 011f 01       		.byte	0x1
 1084 0120 11       		.uleb128 0x11
 1085 0121 01       		.uleb128 0x1
 1086 0122 31       		.uleb128 0x31
 1087 0123 13       		.uleb128 0x13
 1088 0124 01       		.uleb128 0x1
 1089 0125 13       		.uleb128 0x13
 1090 0126 00       		.byte	0
 1091 0127 00       		.byte	0
 1092 0128 16       		.uleb128 0x16
 1093 0129 8A8201   		.uleb128 0x410a
 1094 012c 00       		.byte	0
 1095 012d 02       		.uleb128 0x2
 1096 012e 0A       		.uleb128 0xa
 1097 012f 9142     		.uleb128 0x2111
 1098 0131 0A       		.uleb128 0xa
 1099 0132 00       		.byte	0
 1100 0133 00       		.byte	0
 1101 0134 17       		.uleb128 0x17
 1102 0135 898201   		.uleb128 0x4109
 1103 0138 01       		.byte	0x1
 1104 0139 11       		.uleb128 0x11
 1105 013a 01       		.uleb128 0x1
 1106 013b 01       		.uleb128 0x1
 1107 013c 13       		.uleb128 0x13
 1108 013d 00       		.byte	0
 1109 013e 00       		.byte	0
 1110 013f 18       		.uleb128 0x18
 1111 0140 898201   		.uleb128 0x4109
 1112 0143 01       		.byte	0x1
 1113 0144 11       		.uleb128 0x11
 1114 0145 01       		.uleb128 0x1
 1115 0146 00       		.byte	0
 1116 0147 00       		.byte	0
 1117 0148 19       		.uleb128 0x19
 1118 0149 01       		.uleb128 0x1
 1119 014a 01       		.byte	0x1
 1120 014b 49       		.uleb128 0x49
 1121 014c 13       		.uleb128 0x13
 1122 014d 01       		.uleb128 0x1
 1123 014e 13       		.uleb128 0x13
 1124 014f 00       		.byte	0
ARM GAS  /tmp/ccS8T3ln.s 			page 22


 1125 0150 00       		.byte	0
 1126 0151 1A       		.uleb128 0x1a
 1127 0152 21       		.uleb128 0x21
 1128 0153 00       		.byte	0
 1129 0154 49       		.uleb128 0x49
 1130 0155 13       		.uleb128 0x13
 1131 0156 2F       		.uleb128 0x2f
 1132 0157 05       		.uleb128 0x5
 1133 0158 00       		.byte	0
 1134 0159 00       		.byte	0
 1135 015a 1B       		.uleb128 0x1b
 1136 015b 2E       		.uleb128 0x2e
 1137 015c 00       		.byte	0
 1138 015d 3F       		.uleb128 0x3f
 1139 015e 0C       		.uleb128 0xc
 1140 015f 3C       		.uleb128 0x3c
 1141 0160 0C       		.uleb128 0xc
 1142 0161 8740     		.uleb128 0x2007
 1143 0163 0E       		.uleb128 0xe
 1144 0164 03       		.uleb128 0x3
 1145 0165 0E       		.uleb128 0xe
 1146 0166 3A       		.uleb128 0x3a
 1147 0167 0B       		.uleb128 0xb
 1148 0168 3B       		.uleb128 0x3b
 1149 0169 0B       		.uleb128 0xb
 1150 016a 00       		.byte	0
 1151 016b 00       		.byte	0
 1152 016c 1C       		.uleb128 0x1c
 1153 016d 2E       		.uleb128 0x2e
 1154 016e 00       		.byte	0
 1155 016f 3F       		.uleb128 0x3f
 1156 0170 0C       		.uleb128 0xc
 1157 0171 3C       		.uleb128 0x3c
 1158 0172 0C       		.uleb128 0xc
 1159 0173 8740     		.uleb128 0x2007
 1160 0175 0E       		.uleb128 0xe
 1161 0176 03       		.uleb128 0x3
 1162 0177 0E       		.uleb128 0xe
 1163 0178 3A       		.uleb128 0x3a
 1164 0179 0B       		.uleb128 0xb
 1165 017a 3B       		.uleb128 0x3b
 1166 017b 0B       		.uleb128 0xb
 1167 017c 39       		.uleb128 0x39
 1168 017d 0B       		.uleb128 0xb
 1169 017e 00       		.byte	0
 1170 017f 00       		.byte	0
 1171 0180 00       		.byte	0
 1172              		.section	.debug_loc,"",%progbits
 1173              	.Ldebug_loc0:
 1174              	.LLST1:
 1175 0000 00000000 		.4byte	.LFB2
 1176 0004 02000000 		.4byte	.LCFI6
 1177 0008 0200     		.2byte	0x2
 1178 000a 7D       		.byte	0x7d
 1179 000b 00       		.sleb128 0
 1180 000c 02000000 		.4byte	.LCFI6
 1181 0010 04000000 		.4byte	.LCFI7
ARM GAS  /tmp/ccS8T3ln.s 			page 23


 1182 0014 0200     		.2byte	0x2
 1183 0016 7D       		.byte	0x7d
 1184 0017 10       		.sleb128 16
 1185 0018 04000000 		.4byte	.LCFI7
 1186 001c 08000000 		.4byte	.LCFI8
 1187 0020 0200     		.2byte	0x2
 1188 0022 7D       		.byte	0x7d
 1189 0023 18       		.sleb128 24
 1190 0024 08000000 		.4byte	.LCFI8
 1191 0028 46000000 		.4byte	.LCFI9
 1192 002c 0300     		.2byte	0x3
 1193 002e 7D       		.byte	0x7d
 1194 002f B003     		.sleb128 432
 1195 0031 46000000 		.4byte	.LCFI9
 1196 0035 4A000000 		.4byte	.LCFI10
 1197 0039 0200     		.2byte	0x2
 1198 003b 7D       		.byte	0x7d
 1199 003c 18       		.sleb128 24
 1200 003d 4A000000 		.4byte	.LCFI10
 1201 0041 4C000000 		.4byte	.LCFI11
 1202 0045 0200     		.2byte	0x2
 1203 0047 7D       		.byte	0x7d
 1204 0048 10       		.sleb128 16
 1205 0049 4C000000 		.4byte	.LCFI11
 1206 004d 58000000 		.4byte	.LFE2
 1207 0051 0200     		.2byte	0x2
 1208 0053 7D       		.byte	0x7d
 1209 0054 00       		.sleb128 0
 1210 0055 00000000 		.4byte	0
 1211 0059 00000000 		.4byte	0
 1212              	.LLST0:
 1213 005d 00000000 		.4byte	.LFB1
 1214 0061 02000000 		.4byte	.LCFI0
 1215 0065 0200     		.2byte	0x2
 1216 0067 7D       		.byte	0x7d
 1217 0068 00       		.sleb128 0
 1218 0069 02000000 		.4byte	.LCFI0
 1219 006d 04000000 		.4byte	.LCFI1
 1220 0071 0200     		.2byte	0x2
 1221 0073 7D       		.byte	0x7d
 1222 0074 10       		.sleb128 16
 1223 0075 04000000 		.4byte	.LCFI1
 1224 0079 08000000 		.4byte	.LCFI2
 1225 007d 0200     		.2byte	0x2
 1226 007f 7D       		.byte	0x7d
 1227 0080 18       		.sleb128 24
 1228 0081 08000000 		.4byte	.LCFI2
 1229 0085 3E000000 		.4byte	.LCFI3
 1230 0089 0300     		.2byte	0x3
 1231 008b 7D       		.byte	0x7d
 1232 008c B003     		.sleb128 432
 1233 008e 3E000000 		.4byte	.LCFI3
 1234 0092 42000000 		.4byte	.LCFI4
 1235 0096 0200     		.2byte	0x2
 1236 0098 7D       		.byte	0x7d
 1237 0099 18       		.sleb128 24
 1238 009a 42000000 		.4byte	.LCFI4
ARM GAS  /tmp/ccS8T3ln.s 			page 24


 1239 009e 44000000 		.4byte	.LCFI5
 1240 00a2 0200     		.2byte	0x2
 1241 00a4 7D       		.byte	0x7d
 1242 00a5 10       		.sleb128 16
 1243 00a6 44000000 		.4byte	.LCFI5
 1244 00aa 50000000 		.4byte	.LFE1
 1245 00ae 0200     		.2byte	0x2
 1246 00b0 7D       		.byte	0x7d
 1247 00b1 00       		.sleb128 0
 1248 00b2 00000000 		.4byte	0
 1249 00b6 00000000 		.4byte	0
 1250              		.section	.debug_aranges,"",%progbits
 1251 0000 34000000 		.4byte	0x34
 1252 0004 0200     		.2byte	0x2
 1253 0006 00000000 		.4byte	.Ldebug_info0
 1254 000a 04       		.byte	0x4
 1255 000b 00       		.byte	0
 1256 000c 0000     		.2byte	0
 1257 000e 0000     		.2byte	0
 1258 0010 00000000 		.4byte	.LFB0
 1259 0014 0C000000 		.4byte	.LFE0-.LFB0
 1260 0018 00000000 		.4byte	.LFB1
 1261 001c 50000000 		.4byte	.LFE1-.LFB1
 1262 0020 00000000 		.4byte	.LFB2
 1263 0024 58000000 		.4byte	.LFE2-.LFB2
 1264 0028 00000000 		.4byte	.LFB3
 1265 002c 02000000 		.4byte	.LFE3-.LFB3
 1266 0030 00000000 		.4byte	0
 1267 0034 00000000 		.4byte	0
 1268              		.section	.debug_ranges,"",%progbits
 1269              	.Ldebug_ranges0:
 1270 0000 00000000 		.4byte	.LFB0
 1271 0004 0C000000 		.4byte	.LFE0
 1272 0008 00000000 		.4byte	.LFB1
 1273 000c 50000000 		.4byte	.LFE1
 1274 0010 00000000 		.4byte	.LFB2
 1275 0014 58000000 		.4byte	.LFE2
 1276 0018 00000000 		.4byte	.LFB3
 1277 001c 02000000 		.4byte	.LFE3
 1278 0020 00000000 		.4byte	0
 1279 0024 00000000 		.4byte	0
 1280              		.section	.debug_macro,"",%progbits
 1281              	.Ldebug_macro0:
 1282 0000 0400     		.2byte	0x4
 1283 0002 02       		.byte	0x2
 1284 0003 00000000 		.4byte	.Ldebug_line0
 1285 0007 07       		.byte	0x7
 1286 0008 00000000 		.4byte	.Ldebug_macro2
 1287 000c 03       		.byte	0x3
 1288 000d 00       		.uleb128 0
 1289 000e 01       		.uleb128 0x1
 1290 000f 05       		.byte	0x5
 1291 0010 0D       		.uleb128 0xd
 1292 0011 41130000 		.4byte	.LASF446
 1293 0015 03       		.byte	0x3
 1294 0016 0E       		.uleb128 0xe
 1295 0017 02       		.uleb128 0x2
ARM GAS  /tmp/ccS8T3ln.s 			page 25


 1296 0018 07       		.byte	0x7
 1297 0019 00000000 		.4byte	.Ldebug_macro3
 1298 001d 04       		.byte	0x4
 1299 001e 03       		.byte	0x3
 1300 001f 0F       		.uleb128 0xf
 1301 0020 05       		.uleb128 0x5
 1302 0021 05       		.byte	0x5
 1303 0022 22       		.uleb128 0x22
 1304 0023 10310000 		.4byte	.LASF449
 1305 0027 03       		.byte	0x3
 1306 0028 24       		.uleb128 0x24
 1307 0029 03       		.uleb128 0x3
 1308 002a 07       		.byte	0x7
 1309 002b 00000000 		.4byte	.Ldebug_macro4
 1310 002f 04       		.byte	0x4
 1311              		.file 6 "/usr/lib/gcc/arm-none-eabi/10.3.1/include/stddef.h"
 1312 0030 03       		.byte	0x3
 1313 0031 25       		.uleb128 0x25
 1314 0032 06       		.uleb128 0x6
 1315 0033 07       		.byte	0x7
 1316 0034 00000000 		.4byte	.Ldebug_macro5
 1317 0038 04       		.byte	0x4
 1318 0039 07       		.byte	0x7
 1319 003a 00000000 		.4byte	.Ldebug_macro6
 1320 003e 04       		.byte	0x4
 1321 003f 04       		.byte	0x4
 1322 0040 00       		.byte	0
 1323              		.section	.debug_macro,"G",%progbits,wm4.0.007990e38b48ed7e6b618cf8f1acad11,comdat
 1324              	.Ldebug_macro2:
 1325 0000 0400     		.2byte	0x4
 1326 0002 00       		.byte	0
 1327 0003 05       		.byte	0x5
 1328 0004 00       		.uleb128 0
 1329 0005 381C0000 		.4byte	.LASF0
 1330 0009 05       		.byte	0x5
 1331 000a 00       		.uleb128 0
 1332 000b 63280000 		.4byte	.LASF1
 1333 000f 05       		.byte	0x5
 1334 0010 00       		.uleb128 0
 1335 0011 501E0000 		.4byte	.LASF2
 1336 0015 05       		.byte	0x5
 1337 0016 00       		.uleb128 0
 1338 0017 38070000 		.4byte	.LASF3
 1339 001b 05       		.byte	0x5
 1340 001c 00       		.uleb128 0
 1341 001d D4280000 		.4byte	.LASF4
 1342 0021 05       		.byte	0x5
 1343 0022 00       		.uleb128 0
 1344 0023 710D0000 		.4byte	.LASF5
 1345 0027 05       		.byte	0x5
 1346 0028 00       		.uleb128 0
 1347 0029 85030000 		.4byte	.LASF6
 1348 002d 05       		.byte	0x5
 1349 002e 00       		.uleb128 0
 1350 002f 991D0000 		.4byte	.LASF7
 1351 0033 05       		.byte	0x5
 1352 0034 00       		.uleb128 0
ARM GAS  /tmp/ccS8T3ln.s 			page 26


 1353 0035 1E2B0000 		.4byte	.LASF8
 1354 0039 05       		.byte	0x5
 1355 003a 00       		.uleb128 0
 1356 003b CF070000 		.4byte	.LASF9
 1357 003f 05       		.byte	0x5
 1358 0040 00       		.uleb128 0
 1359 0041 2E060000 		.4byte	.LASF10
 1360 0045 05       		.byte	0x5
 1361 0046 00       		.uleb128 0
 1362 0047 0D1C0000 		.4byte	.LASF11
 1363 004b 05       		.byte	0x5
 1364 004c 00       		.uleb128 0
 1365 004d 59050000 		.4byte	.LASF12
 1366 0051 05       		.byte	0x5
 1367 0052 00       		.uleb128 0
 1368 0053 AA290000 		.4byte	.LASF13
 1369 0057 05       		.byte	0x5
 1370 0058 00       		.uleb128 0
 1371 0059 771C0000 		.4byte	.LASF14
 1372 005d 05       		.byte	0x5
 1373 005e 00       		.uleb128 0
 1374 005f 53130000 		.4byte	.LASF15
 1375 0063 05       		.byte	0x5
 1376 0064 00       		.uleb128 0
 1377 0065 671A0000 		.4byte	.LASF16
 1378 0069 05       		.byte	0x5
 1379 006a 00       		.uleb128 0
 1380 006b 522D0000 		.4byte	.LASF17
 1381 006f 05       		.byte	0x5
 1382 0070 00       		.uleb128 0
 1383 0071 E0050000 		.4byte	.LASF18
 1384 0075 05       		.byte	0x5
 1385 0076 00       		.uleb128 0
 1386 0077 CD250000 		.4byte	.LASF19
 1387 007b 05       		.byte	0x5
 1388 007c 00       		.uleb128 0
 1389 007d 41060000 		.4byte	.LASF20
 1390 0081 05       		.byte	0x5
 1391 0082 00       		.uleb128 0
 1392 0083 EA110000 		.4byte	.LASF21
 1393 0087 05       		.byte	0x5
 1394 0088 00       		.uleb128 0
 1395 0089 851D0000 		.4byte	.LASF22
 1396 008d 05       		.byte	0x5
 1397 008e 00       		.uleb128 0
 1398 008f 61040000 		.4byte	.LASF23
 1399 0093 05       		.byte	0x5
 1400 0094 00       		.uleb128 0
 1401 0095 2A040000 		.4byte	.LASF24
 1402 0099 05       		.byte	0x5
 1403 009a 00       		.uleb128 0
 1404 009b EB190000 		.4byte	.LASF25
 1405 009f 05       		.byte	0x5
 1406 00a0 00       		.uleb128 0
 1407 00a1 FC020000 		.4byte	.LASF26
 1408 00a5 05       		.byte	0x5
 1409 00a6 00       		.uleb128 0
ARM GAS  /tmp/ccS8T3ln.s 			page 27


 1410 00a7 D8120000 		.4byte	.LASF27
 1411 00ab 05       		.byte	0x5
 1412 00ac 00       		.uleb128 0
 1413 00ad 97040000 		.4byte	.LASF28
 1414 00b1 05       		.byte	0x5
 1415 00b2 00       		.uleb128 0
 1416 00b3 BC210000 		.4byte	.LASF29
 1417 00b7 05       		.byte	0x5
 1418 00b8 00       		.uleb128 0
 1419 00b9 C8060000 		.4byte	.LASF30
 1420 00bd 05       		.byte	0x5
 1421 00be 00       		.uleb128 0
 1422 00bf 4E1F0000 		.4byte	.LASF31
 1423 00c3 05       		.byte	0x5
 1424 00c4 00       		.uleb128 0
 1425 00c5 E0260000 		.4byte	.LASF32
 1426 00c9 05       		.byte	0x5
 1427 00ca 00       		.uleb128 0
 1428 00cb 9B2B0000 		.4byte	.LASF33
 1429 00cf 05       		.byte	0x5
 1430 00d0 00       		.uleb128 0
 1431 00d1 7A050000 		.4byte	.LASF34
 1432 00d5 05       		.byte	0x5
 1433 00d6 00       		.uleb128 0
 1434 00d7 7E1A0000 		.4byte	.LASF35
 1435 00db 05       		.byte	0x5
 1436 00dc 00       		.uleb128 0
 1437 00dd CC1C0000 		.4byte	.LASF36
 1438 00e1 05       		.byte	0x5
 1439 00e2 00       		.uleb128 0
 1440 00e3 632D0000 		.4byte	.LASF37
 1441 00e7 05       		.byte	0x5
 1442 00e8 00       		.uleb128 0
 1443 00e9 F4290000 		.4byte	.LASF38
 1444 00ed 05       		.byte	0x5
 1445 00ee 00       		.uleb128 0
 1446 00ef 3E040000 		.4byte	.LASF39
 1447 00f3 05       		.byte	0x5
 1448 00f4 00       		.uleb128 0
 1449 00f5 4C200000 		.4byte	.LASF40
 1450 00f9 05       		.byte	0x5
 1451 00fa 00       		.uleb128 0
 1452 00fb 9D310000 		.4byte	.LASF41
 1453 00ff 05       		.byte	0x5
 1454 0100 00       		.uleb128 0
 1455 0101 97240000 		.4byte	.LASF42
 1456 0105 05       		.byte	0x5
 1457 0106 00       		.uleb128 0
 1458 0107 A3050000 		.4byte	.LASF43
 1459 010b 05       		.byte	0x5
 1460 010c 00       		.uleb128 0
 1461 010d 0A230000 		.4byte	.LASF44
 1462 0111 05       		.byte	0x5
 1463 0112 00       		.uleb128 0
 1464 0113 FC1D0000 		.4byte	.LASF45
 1465 0117 05       		.byte	0x5
 1466 0118 00       		.uleb128 0
ARM GAS  /tmp/ccS8T3ln.s 			page 28


 1467 0119 E4250000 		.4byte	.LASF46
 1468 011d 05       		.byte	0x5
 1469 011e 00       		.uleb128 0
 1470 011f D9130000 		.4byte	.LASF47
 1471 0123 05       		.byte	0x5
 1472 0124 00       		.uleb128 0
 1473 0125 A3260000 		.4byte	.LASF48
 1474 0129 05       		.byte	0x5
 1475 012a 00       		.uleb128 0
 1476 012b 342E0000 		.4byte	.LASF49
 1477 012f 05       		.byte	0x5
 1478 0130 00       		.uleb128 0
 1479 0131 6C060000 		.4byte	.LASF50
 1480 0135 05       		.byte	0x5
 1481 0136 00       		.uleb128 0
 1482 0137 7A180000 		.4byte	.LASF51
 1483 013b 05       		.byte	0x5
 1484 013c 00       		.uleb128 0
 1485 013d 120E0000 		.4byte	.LASF52
 1486 0141 05       		.byte	0x5
 1487 0142 00       		.uleb128 0
 1488 0143 62260000 		.4byte	.LASF53
 1489 0147 05       		.byte	0x5
 1490 0148 00       		.uleb128 0
 1491 0149 1E1A0000 		.4byte	.LASF54
 1492 014d 05       		.byte	0x5
 1493 014e 00       		.uleb128 0
 1494 014f 8C140000 		.4byte	.LASF55
 1495 0153 05       		.byte	0x5
 1496 0154 00       		.uleb128 0
 1497 0155 BA200000 		.4byte	.LASF56
 1498 0159 05       		.byte	0x5
 1499 015a 00       		.uleb128 0
 1500 015b 15050000 		.4byte	.LASF57
 1501 015f 05       		.byte	0x5
 1502 0160 00       		.uleb128 0
 1503 0161 2D0F0000 		.4byte	.LASF58
 1504 0165 05       		.byte	0x5
 1505 0166 00       		.uleb128 0
 1506 0167 A9130000 		.4byte	.LASF59
 1507 016b 05       		.byte	0x5
 1508 016c 00       		.uleb128 0
 1509 016d 222D0000 		.4byte	.LASF60
 1510 0171 05       		.byte	0x5
 1511 0172 00       		.uleb128 0
 1512 0173 FE080000 		.4byte	.LASF61
 1513 0177 05       		.byte	0x5
 1514 0178 00       		.uleb128 0
 1515 0179 9F000000 		.4byte	.LASF62
 1516 017d 05       		.byte	0x5
 1517 017e 00       		.uleb128 0
 1518 017f 55160000 		.4byte	.LASF63
 1519 0183 05       		.byte	0x5
 1520 0184 00       		.uleb128 0
 1521 0185 64230000 		.4byte	.LASF64
 1522 0189 05       		.byte	0x5
 1523 018a 00       		.uleb128 0
ARM GAS  /tmp/ccS8T3ln.s 			page 29


 1524 018b BD290000 		.4byte	.LASF65
 1525 018f 05       		.byte	0x5
 1526 0190 00       		.uleb128 0
 1527 0191 972A0000 		.4byte	.LASF66
 1528 0195 05       		.byte	0x5
 1529 0196 00       		.uleb128 0
 1530 0197 DF090000 		.4byte	.LASF67
 1531 019b 05       		.byte	0x5
 1532 019c 00       		.uleb128 0
 1533 019d BA160000 		.4byte	.LASF68
 1534 01a1 05       		.byte	0x5
 1535 01a2 00       		.uleb128 0
 1536 01a3 65070000 		.4byte	.LASF69
 1537 01a7 05       		.byte	0x5
 1538 01a8 00       		.uleb128 0
 1539 01a9 77210000 		.4byte	.LASF70
 1540 01ad 05       		.byte	0x5
 1541 01ae 00       		.uleb128 0
 1542 01af 42050000 		.4byte	.LASF71
 1543 01b3 05       		.byte	0x5
 1544 01b4 00       		.uleb128 0
 1545 01b5 0D1D0000 		.4byte	.LASF72
 1546 01b9 05       		.byte	0x5
 1547 01ba 00       		.uleb128 0
 1548 01bb 5C140000 		.4byte	.LASF73
 1549 01bf 05       		.byte	0x5
 1550 01c0 00       		.uleb128 0
 1551 01c1 B3250000 		.4byte	.LASF74
 1552 01c5 05       		.byte	0x5
 1553 01c6 00       		.uleb128 0
 1554 01c7 04240000 		.4byte	.LASF75
 1555 01cb 05       		.byte	0x5
 1556 01cc 00       		.uleb128 0
 1557 01cd B1240000 		.4byte	.LASF76
 1558 01d1 05       		.byte	0x5
 1559 01d2 00       		.uleb128 0
 1560 01d3 5A030000 		.4byte	.LASF77
 1561 01d7 05       		.byte	0x5
 1562 01d8 00       		.uleb128 0
 1563 01d9 FC0C0000 		.4byte	.LASF78
 1564 01dd 05       		.byte	0x5
 1565 01de 00       		.uleb128 0
 1566 01df F9070000 		.4byte	.LASF79
 1567 01e3 05       		.byte	0x5
 1568 01e4 00       		.uleb128 0
 1569 01e5 4F1D0000 		.4byte	.LASF80
 1570 01e9 05       		.byte	0x5
 1571 01ea 00       		.uleb128 0
 1572 01eb 01260000 		.4byte	.LASF81
 1573 01ef 05       		.byte	0x5
 1574 01f0 00       		.uleb128 0
 1575 01f1 C8270000 		.4byte	.LASF82
 1576 01f5 05       		.byte	0x5
 1577 01f6 00       		.uleb128 0
 1578 01f7 28200000 		.4byte	.LASF83
 1579 01fb 05       		.byte	0x5
 1580 01fc 00       		.uleb128 0
ARM GAS  /tmp/ccS8T3ln.s 			page 30


 1581 01fd 4D020000 		.4byte	.LASF84
 1582 0201 05       		.byte	0x5
 1583 0202 00       		.uleb128 0
 1584 0203 FC130000 		.4byte	.LASF85
 1585 0207 05       		.byte	0x5
 1586 0208 00       		.uleb128 0
 1587 0209 41220000 		.4byte	.LASF86
 1588 020d 05       		.byte	0x5
 1589 020e 00       		.uleb128 0
 1590 020f 422C0000 		.4byte	.LASF87
 1591 0213 05       		.byte	0x5
 1592 0214 00       		.uleb128 0
 1593 0215 991F0000 		.4byte	.LASF88
 1594 0219 05       		.byte	0x5
 1595 021a 00       		.uleb128 0
 1596 021b 7A100000 		.4byte	.LASF89
 1597 021f 05       		.byte	0x5
 1598 0220 00       		.uleb128 0
 1599 0221 812D0000 		.4byte	.LASF90
 1600 0225 05       		.byte	0x5
 1601 0226 00       		.uleb128 0
 1602 0227 77310000 		.4byte	.LASF91
 1603 022b 05       		.byte	0x5
 1604 022c 00       		.uleb128 0
 1605 022d B0060000 		.4byte	.LASF92
 1606 0231 05       		.byte	0x5
 1607 0232 00       		.uleb128 0
 1608 0233 41180000 		.4byte	.LASF93
 1609 0237 05       		.byte	0x5
 1610 0238 00       		.uleb128 0
 1611 0239 25000000 		.4byte	.LASF94
 1612 023d 05       		.byte	0x5
 1613 023e 00       		.uleb128 0
 1614 023f CB1F0000 		.4byte	.LASF95
 1615 0243 05       		.byte	0x5
 1616 0244 00       		.uleb128 0
 1617 0245 3A210000 		.4byte	.LASF96
 1618 0249 05       		.byte	0x5
 1619 024a 00       		.uleb128 0
 1620 024b E10D0000 		.4byte	.LASF97
 1621 024f 05       		.byte	0x5
 1622 0250 00       		.uleb128 0
 1623 0251 261D0000 		.4byte	.LASF98
 1624 0255 05       		.byte	0x5
 1625 0256 00       		.uleb128 0
 1626 0257 27220000 		.4byte	.LASF99
 1627 025b 05       		.byte	0x5
 1628 025c 00       		.uleb128 0
 1629 025d BE0D0000 		.4byte	.LASF100
 1630 0261 05       		.byte	0x5
 1631 0262 00       		.uleb128 0
 1632 0263 DD170000 		.4byte	.LASF101
 1633 0267 05       		.byte	0x5
 1634 0268 00       		.uleb128 0
 1635 0269 F0170000 		.4byte	.LASF102
 1636 026d 05       		.byte	0x5
 1637 026e 00       		.uleb128 0
ARM GAS  /tmp/ccS8T3ln.s 			page 31


 1638 026f E61E0000 		.4byte	.LASF103
 1639 0273 05       		.byte	0x5
 1640 0274 00       		.uleb128 0
 1641 0275 841B0000 		.4byte	.LASF104
 1642 0279 05       		.byte	0x5
 1643 027a 00       		.uleb128 0
 1644 027b 54060000 		.4byte	.LASF105
 1645 027f 05       		.byte	0x5
 1646 0280 00       		.uleb128 0
 1647 0281 20090000 		.4byte	.LASF106
 1648 0285 05       		.byte	0x5
 1649 0286 00       		.uleb128 0
 1650 0287 B6170000 		.4byte	.LASF107
 1651 028b 05       		.byte	0x5
 1652 028c 00       		.uleb128 0
 1653 028d 4A070000 		.4byte	.LASF108
 1654 0291 05       		.byte	0x5
 1655 0292 00       		.uleb128 0
 1656 0293 591B0000 		.4byte	.LASF109
 1657 0297 05       		.byte	0x5
 1658 0298 00       		.uleb128 0
 1659 0299 5F090000 		.4byte	.LASF110
 1660 029d 05       		.byte	0x5
 1661 029e 00       		.uleb128 0
 1662 029f 2C310000 		.4byte	.LASF111
 1663 02a3 05       		.byte	0x5
 1664 02a4 00       		.uleb128 0
 1665 02a5 DC2F0000 		.4byte	.LASF112
 1666 02a9 05       		.byte	0x5
 1667 02aa 00       		.uleb128 0
 1668 02ab FB2A0000 		.4byte	.LASF113
 1669 02af 05       		.byte	0x5
 1670 02b0 00       		.uleb128 0
 1671 02b1 37170000 		.4byte	.LASF114
 1672 02b5 05       		.byte	0x5
 1673 02b6 00       		.uleb128 0
 1674 02b7 5F250000 		.4byte	.LASF115
 1675 02bb 05       		.byte	0x5
 1676 02bc 00       		.uleb128 0
 1677 02bd F1220000 		.4byte	.LASF116
 1678 02c1 05       		.byte	0x5
 1679 02c2 00       		.uleb128 0
 1680 02c3 A50D0000 		.4byte	.LASF117
 1681 02c7 05       		.byte	0x5
 1682 02c8 00       		.uleb128 0
 1683 02c9 9F010000 		.4byte	.LASF118
 1684 02cd 05       		.byte	0x5
 1685 02ce 00       		.uleb128 0
 1686 02cf 17320000 		.4byte	.LASF119
 1687 02d3 05       		.byte	0x5
 1688 02d4 00       		.uleb128 0
 1689 02d5 09040000 		.4byte	.LASF120
 1690 02d9 05       		.byte	0x5
 1691 02da 00       		.uleb128 0
 1692 02db 3E240000 		.4byte	.LASF121
 1693 02df 05       		.byte	0x5
 1694 02e0 00       		.uleb128 0
ARM GAS  /tmp/ccS8T3ln.s 			page 32


 1695 02e1 1A120000 		.4byte	.LASF122
 1696 02e5 05       		.byte	0x5
 1697 02e6 00       		.uleb128 0
 1698 02e7 520E0000 		.4byte	.LASF123
 1699 02eb 05       		.byte	0x5
 1700 02ec 00       		.uleb128 0
 1701 02ed FA270000 		.4byte	.LASF124
 1702 02f1 05       		.byte	0x5
 1703 02f2 00       		.uleb128 0
 1704 02f3 7A040000 		.4byte	.LASF125
 1705 02f7 05       		.byte	0x5
 1706 02f8 00       		.uleb128 0
 1707 02f9 532F0000 		.4byte	.LASF126
 1708 02fd 05       		.byte	0x5
 1709 02fe 00       		.uleb128 0
 1710 02ff 85260000 		.4byte	.LASF127
 1711 0303 05       		.byte	0x5
 1712 0304 00       		.uleb128 0
 1713 0305 FC000000 		.4byte	.LASF128
 1714 0309 05       		.byte	0x5
 1715 030a 00       		.uleb128 0
 1716 030b D11B0000 		.4byte	.LASF129
 1717 030f 05       		.byte	0x5
 1718 0310 00       		.uleb128 0
 1719 0311 961C0000 		.4byte	.LASF130
 1720 0315 05       		.byte	0x5
 1721 0316 00       		.uleb128 0
 1722 0317 B50A0000 		.4byte	.LASF131
 1723 031b 05       		.byte	0x5
 1724 031c 00       		.uleb128 0
 1725 031d BB320000 		.4byte	.LASF132
 1726 0321 05       		.byte	0x5
 1727 0322 00       		.uleb128 0
 1728 0323 B9120000 		.4byte	.LASF133
 1729 0327 05       		.byte	0x5
 1730 0328 00       		.uleb128 0
 1731 0329 35160000 		.4byte	.LASF134
 1732 032d 05       		.byte	0x5
 1733 032e 00       		.uleb128 0
 1734 032f 2C250000 		.4byte	.LASF135
 1735 0333 05       		.byte	0x5
 1736 0334 00       		.uleb128 0
 1737 0335 02250000 		.4byte	.LASF136
 1738 0339 05       		.byte	0x5
 1739 033a 00       		.uleb128 0
 1740 033b E6280000 		.4byte	.LASF137
 1741 033f 05       		.byte	0x5
 1742 0340 00       		.uleb128 0
 1743 0341 0A1A0000 		.4byte	.LASF138
 1744 0345 05       		.byte	0x5
 1745 0346 00       		.uleb128 0
 1746 0347 40300000 		.4byte	.LASF139
 1747 034b 05       		.byte	0x5
 1748 034c 00       		.uleb128 0
 1749 034d CC0B0000 		.4byte	.LASF140
 1750 0351 05       		.byte	0x5
 1751 0352 00       		.uleb128 0
ARM GAS  /tmp/ccS8T3ln.s 			page 33


 1752 0353 CE1E0000 		.4byte	.LASF141
 1753 0357 05       		.byte	0x5
 1754 0358 00       		.uleb128 0
 1755 0359 09170000 		.4byte	.LASF142
 1756 035d 05       		.byte	0x5
 1757 035e 00       		.uleb128 0
 1758 035f C62C0000 		.4byte	.LASF143
 1759 0363 05       		.byte	0x5
 1760 0364 00       		.uleb128 0
 1761 0365 BB2A0000 		.4byte	.LASF144
 1762 0369 05       		.byte	0x5
 1763 036a 00       		.uleb128 0
 1764 036b 542B0000 		.4byte	.LASF145
 1765 036f 05       		.byte	0x5
 1766 0370 00       		.uleb128 0
 1767 0371 92270000 		.4byte	.LASF146
 1768 0375 05       		.byte	0x5
 1769 0376 00       		.uleb128 0
 1770 0377 0A0B0000 		.4byte	.LASF147
 1771 037b 05       		.byte	0x5
 1772 037c 00       		.uleb128 0
 1773 037d 6A2F0000 		.4byte	.LASF148
 1774 0381 05       		.byte	0x5
 1775 0382 00       		.uleb128 0
 1776 0383 672C0000 		.4byte	.LASF149
 1777 0387 05       		.byte	0x5
 1778 0388 00       		.uleb128 0
 1779 0389 96290000 		.4byte	.LASF150
 1780 038d 05       		.byte	0x5
 1781 038e 00       		.uleb128 0
 1782 038f B5140000 		.4byte	.LASF151
 1783 0393 05       		.byte	0x5
 1784 0394 00       		.uleb128 0
 1785 0395 11220000 		.4byte	.LASF152
 1786 0399 05       		.byte	0x5
 1787 039a 00       		.uleb128 0
 1788 039b 93220000 		.4byte	.LASF153
 1789 039f 05       		.byte	0x5
 1790 03a0 00       		.uleb128 0
 1791 03a1 BC0E0000 		.4byte	.LASF154
 1792 03a5 05       		.byte	0x5
 1793 03a6 00       		.uleb128 0
 1794 03a7 15190000 		.4byte	.LASF155
 1795 03ab 05       		.byte	0x5
 1796 03ac 00       		.uleb128 0
 1797 03ad 3B260000 		.4byte	.LASF156
 1798 03b1 05       		.byte	0x5
 1799 03b2 00       		.uleb128 0
 1800 03b3 7D0E0000 		.4byte	.LASF157
 1801 03b7 05       		.byte	0x5
 1802 03b8 00       		.uleb128 0
 1803 03b9 A6320000 		.4byte	.LASF158
 1804 03bd 05       		.byte	0x5
 1805 03be 00       		.uleb128 0
 1806 03bf 9F080000 		.4byte	.LASF159
 1807 03c3 05       		.byte	0x5
 1808 03c4 00       		.uleb128 0
ARM GAS  /tmp/ccS8T3ln.s 			page 34


 1809 03c5 3A2D0000 		.4byte	.LASF160
 1810 03c9 05       		.byte	0x5
 1811 03ca 00       		.uleb128 0
 1812 03cb EB0A0000 		.4byte	.LASF161
 1813 03cf 05       		.byte	0x5
 1814 03d0 00       		.uleb128 0
 1815 03d1 01050000 		.4byte	.LASF162
 1816 03d5 05       		.byte	0x5
 1817 03d6 00       		.uleb128 0
 1818 03d7 D2180000 		.4byte	.LASF163
 1819 03db 05       		.byte	0x5
 1820 03dc 00       		.uleb128 0
 1821 03dd 35020000 		.4byte	.LASF164
 1822 03e1 05       		.byte	0x5
 1823 03e2 00       		.uleb128 0
 1824 03e3 8D160000 		.4byte	.LASF165
 1825 03e7 05       		.byte	0x5
 1826 03e8 00       		.uleb128 0
 1827 03e9 581C0000 		.4byte	.LASF166
 1828 03ed 05       		.byte	0x5
 1829 03ee 00       		.uleb128 0
 1830 03ef 762E0000 		.4byte	.LASF167
 1831 03f3 05       		.byte	0x5
 1832 03f4 00       		.uleb128 0
 1833 03f5 EA310000 		.4byte	.LASF168
 1834 03f9 05       		.byte	0x5
 1835 03fa 00       		.uleb128 0
 1836 03fb 14030000 		.4byte	.LASF169
 1837 03ff 05       		.byte	0x5
 1838 0400 00       		.uleb128 0
 1839 0401 D5030000 		.4byte	.LASF170
 1840 0405 05       		.byte	0x5
 1841 0406 00       		.uleb128 0
 1842 0407 D10F0000 		.4byte	.LASF171
 1843 040b 05       		.byte	0x5
 1844 040c 00       		.uleb128 0
 1845 040d 180B0000 		.4byte	.LASF172
 1846 0411 05       		.byte	0x5
 1847 0412 00       		.uleb128 0
 1848 0413 FE2D0000 		.4byte	.LASF173
 1849 0417 05       		.byte	0x5
 1850 0418 00       		.uleb128 0
 1851 0419 5C300000 		.4byte	.LASF174
 1852 041d 05       		.byte	0x5
 1853 041e 00       		.uleb128 0
 1854 041f E72C0000 		.4byte	.LASF175
 1855 0423 05       		.byte	0x5
 1856 0424 00       		.uleb128 0
 1857 0425 E50E0000 		.4byte	.LASF176
 1858 0429 05       		.byte	0x5
 1859 042a 00       		.uleb128 0
 1860 042b A41A0000 		.4byte	.LASF177
 1861 042f 05       		.byte	0x5
 1862 0430 00       		.uleb128 0
 1863 0431 D0050000 		.4byte	.LASF178
 1864 0435 05       		.byte	0x5
 1865 0436 00       		.uleb128 0
ARM GAS  /tmp/ccS8T3ln.s 			page 35


 1866 0437 021F0000 		.4byte	.LASF179
 1867 043b 05       		.byte	0x5
 1868 043c 00       		.uleb128 0
 1869 043d C5260000 		.4byte	.LASF180
 1870 0441 05       		.byte	0x5
 1871 0442 00       		.uleb128 0
 1872 0443 9B230000 		.4byte	.LASF181
 1873 0447 05       		.byte	0x5
 1874 0448 00       		.uleb128 0
 1875 0449 0E300000 		.4byte	.LASF182
 1876 044d 05       		.byte	0x5
 1877 044e 00       		.uleb128 0
 1878 044f B32F0000 		.4byte	.LASF183
 1879 0453 05       		.byte	0x5
 1880 0454 00       		.uleb128 0
 1881 0455 CA240000 		.4byte	.LASF184
 1882 0459 05       		.byte	0x5
 1883 045a 00       		.uleb128 0
 1884 045b 411A0000 		.4byte	.LASF185
 1885 045f 05       		.byte	0x5
 1886 0460 00       		.uleb128 0
 1887 0461 47320000 		.4byte	.LASF186
 1888 0465 05       		.byte	0x5
 1889 0466 00       		.uleb128 0
 1890 0467 7F1E0000 		.4byte	.LASF187
 1891 046b 05       		.byte	0x5
 1892 046c 00       		.uleb128 0
 1893 046d 6E2A0000 		.4byte	.LASF188
 1894 0471 05       		.byte	0x5
 1895 0472 00       		.uleb128 0
 1896 0473 D8100000 		.4byte	.LASF189
 1897 0477 05       		.byte	0x5
 1898 0478 00       		.uleb128 0
 1899 0479 01320000 		.4byte	.LASF190
 1900 047d 05       		.byte	0x5
 1901 047e 00       		.uleb128 0
 1902 047f B61E0000 		.4byte	.LASF191
 1903 0483 05       		.byte	0x5
 1904 0484 00       		.uleb128 0
 1905 0485 7E240000 		.4byte	.LASF192
 1906 0489 05       		.byte	0x5
 1907 048a 00       		.uleb128 0
 1908 048b 78010000 		.4byte	.LASF193
 1909 048f 05       		.byte	0x5
 1910 0490 00       		.uleb128 0
 1911 0491 E2160000 		.4byte	.LASF194
 1912 0495 05       		.byte	0x5
 1913 0496 00       		.uleb128 0
 1914 0497 FA150000 		.4byte	.LASF195
 1915 049b 05       		.byte	0x5
 1916 049c 00       		.uleb128 0
 1917 049d FE060000 		.4byte	.LASF196
 1918 04a1 05       		.byte	0x5
 1919 04a2 00       		.uleb128 0
 1920 04a3 77160000 		.4byte	.LASF197
 1921 04a7 05       		.byte	0x5
 1922 04a8 00       		.uleb128 0
ARM GAS  /tmp/ccS8T3ln.s 			page 36


 1923 04a9 B1300000 		.4byte	.LASF198
 1924 04ad 05       		.byte	0x5
 1925 04ae 00       		.uleb128 0
 1926 04af C1130000 		.4byte	.LASF199
 1927 04b3 05       		.byte	0x5
 1928 04b4 00       		.uleb128 0
 1929 04b5 F2050000 		.4byte	.LASF200
 1930 04b9 05       		.byte	0x5
 1931 04ba 00       		.uleb128 0
 1932 04bb E4210000 		.4byte	.LASF201
 1933 04bf 05       		.byte	0x5
 1934 04c0 00       		.uleb128 0
 1935 04c1 642B0000 		.4byte	.LASF202
 1936 04c5 05       		.byte	0x5
 1937 04c6 00       		.uleb128 0
 1938 04c7 C3080000 		.4byte	.LASF203
 1939 04cb 05       		.byte	0x5
 1940 04cc 00       		.uleb128 0
 1941 04cd 63270000 		.4byte	.LASF204
 1942 04d1 05       		.byte	0x5
 1943 04d2 00       		.uleb128 0
 1944 04d3 100A0000 		.4byte	.LASF205
 1945 04d7 05       		.byte	0x5
 1946 04d8 00       		.uleb128 0
 1947 04d9 75000000 		.4byte	.LASF206
 1948 04dd 05       		.byte	0x5
 1949 04de 00       		.uleb128 0
 1950 04df 170D0000 		.4byte	.LASF207
 1951 04e3 05       		.byte	0x5
 1952 04e4 00       		.uleb128 0
 1953 04e5 2E090000 		.4byte	.LASF208
 1954 04e9 05       		.byte	0x5
 1955 04ea 00       		.uleb128 0
 1956 04eb 8C060000 		.4byte	.LASF209
 1957 04ef 05       		.byte	0x5
 1958 04f0 00       		.uleb128 0
 1959 04f1 BE070000 		.4byte	.LASF210
 1960 04f5 05       		.byte	0x5
 1961 04f6 00       		.uleb128 0
 1962 04f7 F72B0000 		.4byte	.LASF211
 1963 04fb 05       		.byte	0x5
 1964 04fc 00       		.uleb128 0
 1965 04fd 71130000 		.4byte	.LASF212
 1966 0501 05       		.byte	0x5
 1967 0502 00       		.uleb128 0
 1968 0503 C0000000 		.4byte	.LASF213
 1969 0507 05       		.byte	0x5
 1970 0508 00       		.uleb128 0
 1971 0509 05110000 		.4byte	.LASF214
 1972 050d 05       		.byte	0x5
 1973 050e 00       		.uleb128 0
 1974 050f B4150000 		.4byte	.LASF215
 1975 0513 05       		.byte	0x5
 1976 0514 00       		.uleb128 0
 1977 0515 15240000 		.4byte	.LASF216
 1978 0519 05       		.byte	0x5
 1979 051a 00       		.uleb128 0
ARM GAS  /tmp/ccS8T3ln.s 			page 37


 1980 051b B91A0000 		.4byte	.LASF217
 1981 051f 05       		.byte	0x5
 1982 0520 00       		.uleb128 0
 1983 0521 00100000 		.4byte	.LASF218
 1984 0525 05       		.byte	0x5
 1985 0526 00       		.uleb128 0
 1986 0527 26290000 		.4byte	.LASF219
 1987 052b 05       		.byte	0x5
 1988 052c 00       		.uleb128 0
 1989 052d 270A0000 		.4byte	.LASF220
 1990 0531 05       		.byte	0x5
 1991 0532 00       		.uleb128 0
 1992 0533 F2160000 		.4byte	.LASF221
 1993 0537 05       		.byte	0x5
 1994 0538 00       		.uleb128 0
 1995 0539 440F0000 		.4byte	.LASF222
 1996 053d 05       		.byte	0x5
 1997 053e 00       		.uleb128 0
 1998 053f 99180000 		.4byte	.LASF223
 1999 0543 05       		.byte	0x5
 2000 0544 00       		.uleb128 0
 2001 0545 25150000 		.4byte	.LASF224
 2002 0549 05       		.byte	0x5
 2003 054a 00       		.uleb128 0
 2004 054b 57190000 		.4byte	.LASF225
 2005 054f 05       		.byte	0x5
 2006 0550 00       		.uleb128 0
 2007 0551 6A030000 		.4byte	.LASF226
 2008 0555 05       		.byte	0x5
 2009 0556 00       		.uleb128 0
 2010 0557 22230000 		.4byte	.LASF227
 2011 055b 05       		.byte	0x5
 2012 055c 00       		.uleb128 0
 2013 055d E4000000 		.4byte	.LASF228
 2014 0561 05       		.byte	0x5
 2015 0562 00       		.uleb128 0
 2016 0563 26300000 		.4byte	.LASF229
 2017 0567 05       		.byte	0x5
 2018 0568 00       		.uleb128 0
 2019 0569 09020000 		.4byte	.LASF230
 2020 056d 05       		.byte	0x5
 2021 056e 00       		.uleb128 0
 2022 056f 68150000 		.4byte	.LASF231
 2023 0573 05       		.byte	0x5
 2024 0574 00       		.uleb128 0
 2025 0575 3E2A0000 		.4byte	.LASF232
 2026 0579 05       		.byte	0x5
 2027 057a 00       		.uleb128 0
 2028 057b 8D2E0000 		.4byte	.LASF233
 2029 057f 05       		.byte	0x5
 2030 0580 00       		.uleb128 0
 2031 0581 852C0000 		.4byte	.LASF234
 2032 0585 05       		.byte	0x5
 2033 0586 00       		.uleb128 0
 2034 0587 680F0000 		.4byte	.LASF235
 2035 058b 05       		.byte	0x5
 2036 058c 00       		.uleb128 0
ARM GAS  /tmp/ccS8T3ln.s 			page 38


 2037 058d 1F170000 		.4byte	.LASF236
 2038 0591 05       		.byte	0x5
 2039 0592 00       		.uleb128 0
 2040 0593 192F0000 		.4byte	.LASF237
 2041 0597 05       		.byte	0x5
 2042 0598 00       		.uleb128 0
 2043 0599 5B2E0000 		.4byte	.LASF238
 2044 059d 05       		.byte	0x5
 2045 059e 00       		.uleb128 0
 2046 059f 3A200000 		.4byte	.LASF239
 2047 05a3 05       		.byte	0x5
 2048 05a4 00       		.uleb128 0
 2049 05a5 6E200000 		.4byte	.LASF240
 2050 05a9 05       		.byte	0x5
 2051 05aa 00       		.uleb128 0
 2052 05ab 47110000 		.4byte	.LASF241
 2053 05af 05       		.byte	0x5
 2054 05b0 00       		.uleb128 0
 2055 05b1 7D0D0000 		.4byte	.LASF242
 2056 05b5 05       		.byte	0x5
 2057 05b6 00       		.uleb128 0
 2058 05b7 28280000 		.4byte	.LASF243
 2059 05bb 05       		.byte	0x5
 2060 05bc 00       		.uleb128 0
 2061 05bd 4C250000 		.4byte	.LASF244
 2062 05c1 05       		.byte	0x5
 2063 05c2 00       		.uleb128 0
 2064 05c3 E82A0000 		.4byte	.LASF245
 2065 05c7 05       		.byte	0x5
 2066 05c8 00       		.uleb128 0
 2067 05c9 43030000 		.4byte	.LASF246
 2068 05cd 05       		.byte	0x5
 2069 05ce 00       		.uleb128 0
 2070 05cf 9E120000 		.4byte	.LASF247
 2071 05d3 05       		.byte	0x5
 2072 05d4 00       		.uleb128 0
 2073 05d5 EF1B0000 		.4byte	.LASF248
 2074 05d9 05       		.byte	0x5
 2075 05da 00       		.uleb128 0
 2076 05db 112C0000 		.4byte	.LASF249
 2077 05df 05       		.byte	0x5
 2078 05e0 00       		.uleb128 0
 2079 05e1 6E1E0000 		.4byte	.LASF250
 2080 05e5 05       		.byte	0x5
 2081 05e6 00       		.uleb128 0
 2082 05e7 29100000 		.4byte	.LASF251
 2083 05eb 05       		.byte	0x5
 2084 05ec 00       		.uleb128 0
 2085 05ed E21D0000 		.4byte	.LASF252
 2086 05f1 05       		.byte	0x5
 2087 05f2 00       		.uleb128 0
 2088 05f3 B9280000 		.4byte	.LASF253
 2089 05f7 05       		.byte	0x5
 2090 05f8 00       		.uleb128 0
 2091 05f9 35140000 		.4byte	.LASF254
 2092 05fd 05       		.byte	0x5
 2093 05fe 00       		.uleb128 0
ARM GAS  /tmp/ccS8T3ln.s 			page 39


 2094 05ff 63000000 		.4byte	.LASF255
 2095 0603 05       		.byte	0x5
 2096 0604 00       		.uleb128 0
 2097 0605 2D1E0000 		.4byte	.LASF256
 2098 0609 05       		.byte	0x5
 2099 060a 00       		.uleb128 0
 2100 060b D3320000 		.4byte	.LASF257
 2101 060f 05       		.byte	0x5
 2102 0610 00       		.uleb128 0
 2103 0611 B7220000 		.4byte	.LASF258
 2104 0615 05       		.byte	0x5
 2105 0616 00       		.uleb128 0
 2106 0617 67180000 		.4byte	.LASF259
 2107 061b 05       		.byte	0x5
 2108 061c 00       		.uleb128 0
 2109 061d 19070000 		.4byte	.LASF260
 2110 0621 05       		.byte	0x5
 2111 0622 00       		.uleb128 0
 2112 0623 E6230000 		.4byte	.LASF261
 2113 0627 05       		.byte	0x5
 2114 0628 00       		.uleb128 0
 2115 0629 DD300000 		.4byte	.LASF262
 2116 062d 05       		.byte	0x5
 2117 062e 00       		.uleb128 0
 2118 062f EC010000 		.4byte	.LASF263
 2119 0633 05       		.byte	0x5
 2120 0634 00       		.uleb128 0
 2121 0635 3B1D0000 		.4byte	.LASF264
 2122 0639 05       		.byte	0x5
 2123 063a 00       		.uleb128 0
 2124 063b 300E0000 		.4byte	.LASF265
 2125 063f 05       		.byte	0x5
 2126 0640 00       		.uleb128 0
 2127 0641 51150000 		.4byte	.LASF266
 2128 0645 05       		.byte	0x5
 2129 0646 00       		.uleb128 0
 2130 0647 22270000 		.4byte	.LASF267
 2131 064b 05       		.byte	0x5
 2132 064c 00       		.uleb128 0
 2133 064d F30D0000 		.4byte	.LASF268
 2134 0651 05       		.byte	0x5
 2135 0652 00       		.uleb128 0
 2136 0653 A2170000 		.4byte	.LASF269
 2137 0657 05       		.byte	0x5
 2138 0658 00       		.uleb128 0
 2139 0659 75110000 		.4byte	.LASF270
 2140 065d 05       		.byte	0x5
 2141 065e 00       		.uleb128 0
 2142 065f B5310000 		.4byte	.LASF271
 2143 0663 05       		.byte	0x5
 2144 0664 00       		.uleb128 0
 2145 0665 8B0A0000 		.4byte	.LASF272
 2146 0669 05       		.byte	0x5
 2147 066a 00       		.uleb128 0
 2148 066b F81F0000 		.4byte	.LASF273
 2149 066f 05       		.byte	0x5
 2150 0670 00       		.uleb128 0
ARM GAS  /tmp/ccS8T3ln.s 			page 40


 2151 0671 1B1F0000 		.4byte	.LASF274
 2152 0675 05       		.byte	0x5
 2153 0676 00       		.uleb128 0
 2154 0677 AA070000 		.4byte	.LASF275
 2155 067b 05       		.byte	0x5
 2156 067c 00       		.uleb128 0
 2157 067d 44100000 		.4byte	.LASF276
 2158 0681 05       		.byte	0x5
 2159 0682 00       		.uleb128 0
 2160 0683 B1040000 		.4byte	.LASF277
 2161 0687 05       		.byte	0x5
 2162 0688 00       		.uleb128 0
 2163 0689 93150000 		.4byte	.LASF278
 2164 068d 05       		.byte	0x5
 2165 068e 00       		.uleb128 0
 2166 068f BF0F0000 		.4byte	.LASF279
 2167 0693 05       		.byte	0x5
 2168 0694 00       		.uleb128 0
 2169 0695 1E110000 		.4byte	.LASF280
 2170 0699 05       		.byte	0x5
 2171 069a 00       		.uleb128 0
 2172 069b A6270000 		.4byte	.LASF281
 2173 069f 05       		.byte	0x5
 2174 06a0 00       		.uleb128 0
 2175 06a1 120F0000 		.4byte	.LASF282
 2176 06a5 05       		.byte	0x5
 2177 06a6 00       		.uleb128 0
 2178 06a7 8D130000 		.4byte	.LASF283
 2179 06ab 05       		.byte	0x5
 2180 06ac 00       		.uleb128 0
 2181 06ad 93320000 		.4byte	.LASF284
 2182 06b1 05       		.byte	0x5
 2183 06b2 00       		.uleb128 0
 2184 06b3 A7160000 		.4byte	.LASF285
 2185 06b7 05       		.byte	0x5
 2186 06b8 00       		.uleb128 0
 2187 06b9 D12A0000 		.4byte	.LASF286
 2188 06bd 05       		.byte	0x5
 2189 06be 00       		.uleb128 0
 2190 06bf FD110000 		.4byte	.LASF287
 2191 06c3 05       		.byte	0x5
 2192 06c4 00       		.uleb128 0
 2193 06c5 CD0C0000 		.4byte	.LASF288
 2194 06c9 05       		.byte	0x5
 2195 06ca 00       		.uleb128 0
 2196 06cb 60170000 		.4byte	.LASF289
 2197 06cf 05       		.byte	0x5
 2198 06d0 00       		.uleb128 0
 2199 06d1 C6100000 		.4byte	.LASF290
 2200 06d5 05       		.byte	0x5
 2201 06d6 00       		.uleb128 0
 2202 06d7 DD2D0000 		.4byte	.LASF291
 2203 06db 05       		.byte	0x5
 2204 06dc 00       		.uleb128 0
 2205 06dd 7B1F0000 		.4byte	.LASF292
 2206 06e1 05       		.byte	0x5
 2207 06e2 00       		.uleb128 0
ARM GAS  /tmp/ccS8T3ln.s 			page 41


 2208 06e3 69190000 		.4byte	.LASF293
 2209 06e7 05       		.byte	0x5
 2210 06e8 00       		.uleb128 0
 2211 06e9 0F180000 		.4byte	.LASF294
 2212 06ed 05       		.byte	0x5
 2213 06ee 00       		.uleb128 0
 2214 06ef 22160000 		.4byte	.LASF295
 2215 06f3 05       		.byte	0x5
 2216 06f4 00       		.uleb128 0
 2217 06f5 FD0E0000 		.4byte	.LASF296
 2218 06f9 05       		.byte	0x5
 2219 06fa 00       		.uleb128 0
 2220 06fb F5260000 		.4byte	.LASF297
 2221 06ff 05       		.byte	0x5
 2222 0700 00       		.uleb128 0
 2223 0701 9E100000 		.4byte	.LASF298
 2224 0705 05       		.byte	0x5
 2225 0706 00       		.uleb128 0
 2226 0707 02190000 		.4byte	.LASF299
 2227 070b 05       		.byte	0x5
 2228 070c 00       		.uleb128 0
 2229 070d 8B120000 		.4byte	.LASF300
 2230 0711 05       		.byte	0x5
 2231 0712 00       		.uleb128 0
 2232 0713 12080000 		.4byte	.LASF301
 2233 0717 05       		.byte	0x5
 2234 0718 00       		.uleb128 0
 2235 0719 A91B0000 		.4byte	.LASF302
 2236 071d 05       		.byte	0x5
 2237 071e 00       		.uleb128 0
 2238 071f D4220000 		.4byte	.LASF303
 2239 0723 05       		.byte	0x5
 2240 0724 00       		.uleb128 0
 2241 0725 191E0000 		.4byte	.LASF304
 2242 0729 05       		.byte	0x5
 2243 072a 00       		.uleb128 0
 2244 072b 82170000 		.4byte	.LASF305
 2245 072f 05       		.byte	0x5
 2246 0730 00       		.uleb128 0
 2247 0731 62080000 		.4byte	.LASF306
 2248 0735 05       		.byte	0x5
 2249 0736 00       		.uleb128 0
 2250 0737 470D0000 		.4byte	.LASF307
 2251 073b 05       		.byte	0x5
 2252 073c 00       		.uleb128 0
 2253 073d 44010000 		.4byte	.LASF308
 2254 0741 05       		.byte	0x5
 2255 0742 00       		.uleb128 0
 2256 0743 4C310000 		.4byte	.LASF309
 2257 0747 05       		.byte	0x5
 2258 0748 00       		.uleb128 0
 2259 0749 1A060000 		.4byte	.LASF310
 2260 074d 05       		.byte	0x5
 2261 074e 00       		.uleb128 0
 2262 074f 1A130000 		.4byte	.LASF311
 2263 0753 05       		.byte	0x5
 2264 0754 00       		.uleb128 0
ARM GAS  /tmp/ccS8T3ln.s 			page 42


 2265 0755 CB140000 		.4byte	.LASF312
 2266 0759 05       		.byte	0x5
 2267 075a 00       		.uleb128 0
 2268 075b 06150000 		.4byte	.LASF313
 2269 075f 05       		.byte	0x5
 2270 0760 00       		.uleb128 0
 2271 0761 D62B0000 		.4byte	.LASF314
 2272 0765 05       		.byte	0x5
 2273 0766 00       		.uleb128 0
 2274 0767 78070000 		.4byte	.LASF315
 2275 076b 05       		.byte	0x5
 2276 076c 00       		.uleb128 0
 2277 076d 7F090000 		.4byte	.LASF316
 2278 0771 05       		.byte	0x5
 2279 0772 00       		.uleb128 0
 2280 0773 36080000 		.4byte	.LASF317
 2281 0777 05       		.byte	0x5
 2282 0778 00       		.uleb128 0
 2283 0779 72320000 		.4byte	.LASF318
 2284 077d 05       		.byte	0x5
 2285 077e 00       		.uleb128 0
 2286 077f 0B2F0000 		.4byte	.LASF319
 2287 0783 05       		.byte	0x5
 2288 0784 00       		.uleb128 0
 2289 0785 CF010000 		.4byte	.LASF320
 2290 0789 05       		.byte	0x5
 2291 078a 00       		.uleb128 0
 2292 078b 74250000 		.4byte	.LASF321
 2293 078f 05       		.byte	0x5
 2294 0790 00       		.uleb128 0
 2295 0791 95200000 		.4byte	.LASF322
 2296 0795 05       		.byte	0x5
 2297 0796 00       		.uleb128 0
 2298 0797 B1230000 		.4byte	.LASF323
 2299 079b 05       		.byte	0x5
 2300 079c 00       		.uleb128 0
 2301 079d D6210000 		.4byte	.LASF324
 2302 07a1 05       		.byte	0x5
 2303 07a2 00       		.uleb128 0
 2304 07a3 F4200000 		.4byte	.LASF325
 2305 07a7 05       		.byte	0x5
 2306 07a8 00       		.uleb128 0
 2307 07a9 462B0000 		.4byte	.LASF326
 2308 07ad 05       		.byte	0x5
 2309 07ae 00       		.uleb128 0
 2310 07af E2240000 		.4byte	.LASF327
 2311 07b3 05       		.byte	0x5
 2312 07b4 00       		.uleb128 0
 2313 07b5 69310000 		.4byte	.LASF328
 2314 07b9 05       		.byte	0x5
 2315 07ba 00       		.uleb128 0
 2316 07bb 75220000 		.4byte	.LASF329
 2317 07bf 05       		.byte	0x5
 2318 07c0 00       		.uleb128 0
 2319 07c1 44280000 		.4byte	.LASF330
 2320 07c5 05       		.byte	0x5
 2321 07c6 00       		.uleb128 0
ARM GAS  /tmp/ccS8T3ln.s 			page 43


 2322 07c7 F2240000 		.4byte	.LASF331
 2323 07cb 05       		.byte	0x5
 2324 07cc 00       		.uleb128 0
 2325 07cd 26140000 		.4byte	.LASF332
 2326 07d1 05       		.byte	0x5
 2327 07d2 00       		.uleb128 0
 2328 07d3 53280000 		.4byte	.LASF333
 2329 07d7 05       		.byte	0x5
 2330 07d8 00       		.uleb128 0
 2331 07d9 84220000 		.4byte	.LASF334
 2332 07dd 05       		.byte	0x5
 2333 07de 00       		.uleb128 0
 2334 07df 84190000 		.4byte	.LASF335
 2335 07e3 05       		.byte	0x5
 2336 07e4 00       		.uleb128 0
 2337 07e5 DD010000 		.4byte	.LASF336
 2338 07e9 05       		.byte	0x5
 2339 07ea 00       		.uleb128 0
 2340 07eb C1190000 		.4byte	.LASF337
 2341 07ef 05       		.byte	0x5
 2342 07f0 00       		.uleb128 0
 2343 07f1 430E0000 		.4byte	.LASF338
 2344 07f5 05       		.byte	0x5
 2345 07f6 00       		.uleb128 0
 2346 07f7 44270000 		.4byte	.LASF339
 2347 07fb 05       		.byte	0x5
 2348 07fc 00       		.uleb128 0
 2349 07fd 9C190000 		.4byte	.LASF340
 2350 0801 05       		.byte	0x5
 2351 0802 00       		.uleb128 0
 2352 0803 62130000 		.4byte	.LASF341
 2353 0807 05       		.byte	0x5
 2354 0808 00       		.uleb128 0
 2355 0809 7C0A0000 		.4byte	.LASF342
 2356 080d 05       		.byte	0x5
 2357 080e 00       		.uleb128 0
 2358 080f 8D0B0000 		.4byte	.LASF343
 2359 0813 05       		.byte	0x5
 2360 0814 00       		.uleb128 0
 2361 0815 72120000 		.4byte	.LASF344
 2362 0819 05       		.byte	0x5
 2363 081a 00       		.uleb128 0
 2364 081b 43000000 		.4byte	.LASF345
 2365 081f 05       		.byte	0x5
 2366 0820 00       		.uleb128 0
 2367 0821 FC2E0000 		.4byte	.LASF346
 2368 0825 05       		.byte	0x5
 2369 0826 00       		.uleb128 0
 2370 0827 E71A0000 		.4byte	.LASF347
 2371 082b 05       		.byte	0x5
 2372 082c 00       		.uleb128 0
 2373 082d 03210000 		.4byte	.LASF348
 2374 0831 05       		.byte	0x5
 2375 0832 00       		.uleb128 0
 2376 0833 CD170000 		.4byte	.LASF349
 2377 0837 05       		.byte	0x5
 2378 0838 00       		.uleb128 0
ARM GAS  /tmp/ccS8T3ln.s 			page 44


 2379 0839 65110000 		.4byte	.LASF350
 2380 083d 05       		.byte	0x5
 2381 083e 00       		.uleb128 0
 2382 083f 30120000 		.4byte	.LASF351
 2383 0843 05       		.byte	0x5
 2384 0844 00       		.uleb128 0
 2385 0845 EE080000 		.4byte	.LASF352
 2386 0849 05       		.byte	0x5
 2387 084a 00       		.uleb128 0
 2388 084b F1040000 		.4byte	.LASF353
 2389 084f 05       		.byte	0x5
 2390 0850 00       		.uleb128 0
 2391 0851 572C0000 		.4byte	.LASF354
 2392 0855 05       		.byte	0x5
 2393 0856 00       		.uleb128 0
 2394 0857 DA150000 		.4byte	.LASF355
 2395 085b 05       		.byte	0x5
 2396 085c 00       		.uleb128 0
 2397 085d A3200000 		.4byte	.LASF356
 2398 0861 05       		.byte	0x5
 2399 0862 00       		.uleb128 0
 2400 0863 0F140000 		.4byte	.LASF357
 2401 0867 05       		.byte	0x5
 2402 0868 00       		.uleb128 0
 2403 0869 8F050000 		.4byte	.LASF358
 2404 086d 05       		.byte	0x5
 2405 086e 00       		.uleb128 0
 2406 086f 570A0000 		.4byte	.LASF359
 2407 0873 05       		.byte	0x5
 2408 0874 00       		.uleb128 0
 2409 0875 680B0000 		.4byte	.LASF360
 2410 0879 05       		.byte	0x5
 2411 087a 00       		.uleb128 0
 2412 087b 71290000 		.4byte	.LASF361
 2413 087f 05       		.byte	0x5
 2414 0880 00       		.uleb128 0
 2415 0881 4A0B0000 		.4byte	.LASF362
 2416 0885 05       		.byte	0x5
 2417 0886 00       		.uleb128 0
 2418 0887 DE2E0000 		.4byte	.LASF363
 2419 088b 05       		.byte	0x5
 2420 088c 00       		.uleb128 0
 2421 088d 6C020000 		.4byte	.LASF364
 2422 0891 05       		.byte	0x5
 2423 0892 00       		.uleb128 0
 2424 0893 7C280000 		.4byte	.LASF365
 2425 0897 05       		.byte	0x5
 2426 0898 00       		.uleb128 0
 2427 0899 8B210000 		.4byte	.LASF366
 2428 089d 05       		.byte	0x5
 2429 089e 00       		.uleb128 0
 2430 089f 232C0000 		.4byte	.LASF367
 2431 08a3 05       		.byte	0x5
 2432 08a4 00       		.uleb128 0
 2433 08a5 5D100000 		.4byte	.LASF368
 2434 08a9 05       		.byte	0x5
 2435 08aa 00       		.uleb128 0
ARM GAS  /tmp/ccS8T3ln.s 			page 45


 2436 08ab 39190000 		.4byte	.LASF369
 2437 08af 05       		.byte	0x5
 2438 08b0 00       		.uleb128 0
 2439 08b1 52290000 		.4byte	.LASF370
 2440 08b5 05       		.byte	0x5
 2441 08b6 00       		.uleb128 0
 2442 08b7 14010000 		.4byte	.LASF371
 2443 08bb 05       		.byte	0x5
 2444 08bc 00       		.uleb128 0
 2445 08bd D9270000 		.4byte	.LASF372
 2446 08c1 05       		.byte	0x5
 2447 08c2 00       		.uleb128 0
 2448 08c3 F5120000 		.4byte	.LASF373
 2449 08c7 05       		.byte	0x5
 2450 08c8 00       		.uleb128 0
 2451 08c9 681B0000 		.4byte	.LASF374
 2452 08cd 05       		.byte	0x5
 2453 08ce 00       		.uleb128 0
 2454 08cf 0A290000 		.4byte	.LASF375
 2455 08d3 05       		.byte	0x5
 2456 08d4 00       		.uleb128 0
 2457 08d5 301F0000 		.4byte	.LASF376
 2458 08d9 05       		.byte	0x5
 2459 08da 00       		.uleb128 0
 2460 08db BB010000 		.4byte	.LASF377
 2461 08df 05       		.byte	0x5
 2462 08e0 00       		.uleb128 0
 2463 08e1 30110000 		.4byte	.LASF378
 2464 08e5 05       		.byte	0x5
 2465 08e6 00       		.uleb128 0
 2466 08e7 DD040000 		.4byte	.LASF379
 2467 08eb 05       		.byte	0x5
 2468 08ec 00       		.uleb128 0
 2469 08ed 0D2D0000 		.4byte	.LASF380
 2470 08f1 05       		.byte	0x5
 2471 08f2 00       		.uleb128 0
 2472 08f3 C9300000 		.4byte	.LASF381
 2473 08f7 06       		.byte	0x6
 2474 08f8 00       		.uleb128 0
 2475 08f9 C0030000 		.4byte	.LASF382
 2476 08fd 05       		.byte	0x5
 2477 08fe 00       		.uleb128 0
 2478 08ff C42E0000 		.4byte	.LASF383
 2479 0903 06       		.byte	0x6
 2480 0904 00       		.uleb128 0
 2481 0905 BC050000 		.4byte	.LASF384
 2482 0909 06       		.byte	0x6
 2483 090a 00       		.uleb128 0
 2484 090b 9D300000 		.4byte	.LASF385
 2485 090f 06       		.byte	0x6
 2486 0910 00       		.uleb128 0
 2487 0911 98090000 		.4byte	.LASF386
 2488 0915 06       		.byte	0x6
 2489 0916 00       		.uleb128 0
 2490 0917 E6020000 		.4byte	.LASF387
 2491 091b 05       		.byte	0x5
 2492 091c 00       		.uleb128 0
ARM GAS  /tmp/ccS8T3ln.s 			page 46


 2493 091d 41090000 		.4byte	.LASF388
 2494 0921 06       		.byte	0x6
 2495 0922 00       		.uleb128 0
 2496 0923 AB1F0000 		.4byte	.LASF389
 2497 0927 06       		.byte	0x6
 2498 0928 00       		.uleb128 0
 2499 0929 CC090000 		.4byte	.LASF390
 2500 092d 06       		.byte	0x6
 2501 092e 00       		.uleb128 0
 2502 092f 33320000 		.4byte	.LASF391
 2503 0933 05       		.byte	0x5
 2504 0934 00       		.uleb128 0
 2505 0935 24210000 		.4byte	.LASF392
 2506 0939 05       		.byte	0x5
 2507 093a 00       		.uleb128 0
 2508 093b 48140000 		.4byte	.LASF393
 2509 093f 06       		.byte	0x6
 2510 0940 00       		.uleb128 0
 2511 0941 8D070000 		.4byte	.LASF394
 2512 0945 05       		.byte	0x5
 2513 0946 00       		.uleb128 0
 2514 0947 9C250000 		.4byte	.LASF395
 2515 094b 05       		.byte	0x5
 2516 094c 00       		.uleb128 0
 2517 094d 9C0B0000 		.4byte	.LASF396
 2518 0951 05       		.byte	0x5
 2519 0952 00       		.uleb128 0
 2520 0953 B8020000 		.4byte	.LASF397
 2521 0957 06       		.byte	0x6
 2522 0958 00       		.uleb128 0
 2523 0959 3B1B0000 		.4byte	.LASF398
 2524 095d 05       		.byte	0x5
 2525 095e 00       		.uleb128 0
 2526 095f 3D2F0000 		.4byte	.LASF399
 2527 0963 05       		.byte	0x5
 2528 0964 00       		.uleb128 0
 2529 0965 9A1A0000 		.4byte	.LASF400
 2530 0969 06       		.byte	0x6
 2531 096a 00       		.uleb128 0
 2532 096b 4E1B0000 		.4byte	.LASF401
 2533 096f 05       		.byte	0x5
 2534 0970 00       		.uleb128 0
 2535 0971 2B070000 		.4byte	.LASF402
 2536 0975 05       		.byte	0x5
 2537 0976 00       		.uleb128 0
 2538 0977 972D0000 		.4byte	.LASF403
 2539 097b 05       		.byte	0x5
 2540 097c 00       		.uleb128 0
 2541 097d 0B1B0000 		.4byte	.LASF404
 2542 0981 05       		.byte	0x5
 2543 0982 00       		.uleb128 0
 2544 0983 72240000 		.4byte	.LASF405
 2545 0987 05       		.byte	0x5
 2546 0988 00       		.uleb128 0
 2547 0989 D7000000 		.4byte	.LASF406
 2548 098d 05       		.byte	0x5
 2549 098e 00       		.uleb128 0
ARM GAS  /tmp/ccS8T3ln.s 			page 47


 2550 098f 64120000 		.4byte	.LASF407
 2551 0993 06       		.byte	0x6
 2552 0994 00       		.uleb128 0
 2553 0995 ED180000 		.4byte	.LASF408
 2554 0999 05       		.byte	0x5
 2555 099a 00       		.uleb128 0
 2556 099b AA190000 		.4byte	.LASF409
 2557 099f 05       		.byte	0x5
 2558 09a0 00       		.uleb128 0
 2559 09a1 E1180000 		.4byte	.LASF410
 2560 09a5 05       		.byte	0x5
 2561 09a6 00       		.uleb128 0
 2562 09a7 15270000 		.4byte	.LASF411
 2563 09ab 06       		.byte	0x6
 2564 09ac 00       		.uleb128 0
 2565 09ad 011A0000 		.4byte	.LASF412
 2566 09b1 05       		.byte	0x5
 2567 09b2 00       		.uleb128 0
 2568 09b3 79080000 		.4byte	.LASF413
 2569 09b7 06       		.byte	0x6
 2570 09b8 00       		.uleb128 0
 2571 09b9 CF020000 		.4byte	.LASF414
 2572 09bd 06       		.byte	0x6
 2573 09be 00       		.uleb128 0
 2574 09bf F02F0000 		.4byte	.LASF415
 2575 09c3 06       		.byte	0x6
 2576 09c4 00       		.uleb128 0
 2577 09c5 AC210000 		.4byte	.LASF416
 2578 09c9 06       		.byte	0x6
 2579 09ca 00       		.uleb128 0
 2580 09cb 9A0F0000 		.4byte	.LASF417
 2581 09cf 06       		.byte	0x6
 2582 09d0 00       		.uleb128 0
 2583 09d1 00000000 		.4byte	.LASF418
 2584 09d5 06       		.byte	0x6
 2585 09d6 00       		.uleb128 0
 2586 09d7 E2070000 		.4byte	.LASF419
 2587 09db 05       		.byte	0x5
 2588 09dc 00       		.uleb128 0
 2589 09dd D6310000 		.4byte	.LASF420
 2590 09e1 06       		.byte	0x6
 2591 09e2 00       		.uleb128 0
 2592 09e3 AE010000 		.4byte	.LASF421
 2593 09e7 06       		.byte	0x6
 2594 09e8 00       		.uleb128 0
 2595 09e9 AE090000 		.4byte	.LASF422
 2596 09ed 06       		.byte	0x6
 2597 09ee 00       		.uleb128 0
 2598 09ef 421E0000 		.4byte	.LASF423
 2599 09f3 05       		.byte	0x5
 2600 09f4 00       		.uleb128 0
 2601 09f5 C62F0000 		.4byte	.LASF424
 2602 09f9 05       		.byte	0x5
 2603 09fa 00       		.uleb128 0
 2604 09fb FD300000 		.4byte	.LASF425
 2605 09ff 05       		.byte	0x5
 2606 0a00 00       		.uleb128 0
ARM GAS  /tmp/ccS8T3ln.s 			page 48


 2607 0a01 AB2A0000 		.4byte	.LASF426
 2608 0a05 05       		.byte	0x5
 2609 0a06 00       		.uleb128 0
 2610 0a07 960D0000 		.4byte	.LASF427
 2611 0a0b 06       		.byte	0x6
 2612 0a0c 00       		.uleb128 0
 2613 0a0d 55090000 		.4byte	.LASF428
 2614 0a11 05       		.byte	0x5
 2615 0a12 00       		.uleb128 0
 2616 0a13 9E110000 		.4byte	.LASF429
 2617 0a17 05       		.byte	0x5
 2618 0a18 00       		.uleb128 0
 2619 0a19 86230000 		.4byte	.LASF430
 2620 0a1d 05       		.byte	0x5
 2621 0a1e 00       		.uleb128 0
 2622 0a1f 96030000 		.4byte	.LASF431
 2623 0a23 06       		.byte	0x6
 2624 0a24 00       		.uleb128 0
 2625 0a25 3C150000 		.4byte	.LASF432
 2626 0a29 05       		.byte	0x5
 2627 0a2a 00       		.uleb128 0
 2628 0a2b 201C0000 		.4byte	.LASF433
 2629 0a2f 06       		.byte	0x6
 2630 0a30 00       		.uleb128 0
 2631 0a31 55180000 		.4byte	.LASF434
 2632 0a35 06       		.byte	0x6
 2633 0a36 00       		.uleb128 0
 2634 0a37 8E020000 		.4byte	.LASF435
 2635 0a3b 06       		.byte	0x6
 2636 0a3c 00       		.uleb128 0
 2637 0a3d 8E2F0000 		.4byte	.LASF436
 2638 0a41 06       		.byte	0x6
 2639 0a42 00       		.uleb128 0
 2640 0a43 3F230000 		.4byte	.LASF437
 2641 0a47 06       		.byte	0x6
 2642 0a48 00       		.uleb128 0
 2643 0a49 52210000 		.4byte	.LASF438
 2644 0a4d 06       		.byte	0x6
 2645 0a4e 00       		.uleb128 0
 2646 0a4f AE1C0000 		.4byte	.LASF439
 2647 0a53 05       		.byte	0x5
 2648 0a54 00       		.uleb128 0
 2649 0a55 AF1D0000 		.4byte	.LASF440
 2650 0a59 05       		.byte	0x5
 2651 0a5a 00       		.uleb128 0
 2652 0a5b 311B0000 		.4byte	.LASF441
 2653 0a5f 05       		.byte	0x5
 2654 0a60 00       		.uleb128 0
 2655 0a61 B80B0000 		.4byte	.LASF442
 2656 0a65 05       		.byte	0x5
 2657 0a66 00       		.uleb128 0
 2658 0a67 71300000 		.4byte	.LASF443
 2659 0a6b 05       		.byte	0x5
 2660 0a6c 00       		.uleb128 0
 2661 0a6d E2200000 		.4byte	.LASF444
 2662 0a71 05       		.byte	0x5
 2663 0a72 00       		.uleb128 0
ARM GAS  /tmp/ccS8T3ln.s 			page 49


 2664 0a73 B32C0000 		.4byte	.LASF445
 2665 0a77 00       		.byte	0
 2666              		.section	.debug_macro,"G",%progbits,wm4.pdlogger.h.6.008bc6f692b107e3bd5abdf0b33b1485,comdat
 2667              	.Ldebug_macro3:
 2668 0000 0400     		.2byte	0x4
 2669 0002 00       		.byte	0
 2670 0003 05       		.byte	0x5
 2671 0004 06       		.uleb128 0x6
 2672 0005 A80E0000 		.4byte	.LASF447
 2673 0009 05       		.byte	0x5
 2674 000a 07       		.uleb128 0x7
 2675 000b 83250000 		.4byte	.LASF448
 2676 000f 00       		.byte	0
 2677              		.section	.debug_macro,"G",%progbits,wm4.stdarg.h.31.b55da1089056868966f25de5dbfc7d3c,comdat
 2678              	.Ldebug_macro4:
 2679 0000 0400     		.2byte	0x4
 2680 0002 00       		.byte	0
 2681 0003 05       		.byte	0x5
 2682 0004 1F       		.uleb128 0x1f
 2683 0005 36180000 		.4byte	.LASF450
 2684 0009 05       		.byte	0x5
 2685 000a 20       		.uleb128 0x20
 2686 000b A7020000 		.4byte	.LASF451
 2687 000f 06       		.byte	0x6
 2688 0010 22       		.uleb128 0x22
 2689 0011 17200000 		.4byte	.LASF452
 2690 0015 05       		.byte	0x5
 2691 0016 27       		.uleb128 0x27
 2692 0017 53220000 		.4byte	.LASF453
 2693 001b 05       		.byte	0x5
 2694 001c 2F       		.uleb128 0x2f
 2695 001d C0230000 		.4byte	.LASF454
 2696 0021 05       		.byte	0x5
 2697 0022 30       		.uleb128 0x30
 2698 0023 13260000 		.4byte	.LASF455
 2699 0027 05       		.byte	0x5
 2700 0028 31       		.uleb128 0x31
 2701 0029 1C2A0000 		.4byte	.LASF456
 2702 002d 05       		.byte	0x5
 2703 002e 34       		.uleb128 0x34
 2704 002f 40120000 		.4byte	.LASF457
 2705 0033 05       		.byte	0x5
 2706 0034 36       		.uleb128 0x36
 2707 0035 E71C0000 		.4byte	.LASF458
 2708 0039 05       		.byte	0x5
 2709 003a 69       		.uleb128 0x69
 2710 003b BB100000 		.4byte	.LASF459
 2711 003f 05       		.byte	0x5
 2712 0040 6C       		.uleb128 0x6c
 2713 0041 31260000 		.4byte	.LASF460
 2714 0045 05       		.byte	0x5
 2715 0046 6F       		.uleb128 0x6f
 2716 0047 23020000 		.4byte	.LASF461
 2717 004b 05       		.byte	0x5
 2718 004c 72       		.uleb128 0x72
 2719 004d 6C050000 		.4byte	.LASF462
 2720 0051 05       		.byte	0x5
ARM GAS  /tmp/ccS8T3ln.s 			page 50


 2721 0052 75       		.uleb128 0x75
 2722 0053 90300000 		.4byte	.LASF463
 2723 0057 00       		.byte	0
 2724              		.section	.debug_macro,"G",%progbits,wm4.stddef.h.39.144cf5ddcd53cbfdac30259dc1a6c87f,comdat
 2725              	.Ldebug_macro5:
 2726 0000 0400     		.2byte	0x4
 2727 0002 00       		.byte	0
 2728 0003 05       		.byte	0x5
 2729 0004 27       		.uleb128 0x27
 2730 0005 261B0000 		.4byte	.LASF464
 2731 0009 05       		.byte	0x5
 2732 000a 28       		.uleb128 0x28
 2733 000b EB2B0000 		.4byte	.LASF465
 2734 000f 05       		.byte	0x5
 2735 0010 2A       		.uleb128 0x2a
 2736 0011 1C310000 		.4byte	.LASF466
 2737 0015 05       		.byte	0x5
 2738 0016 8301     		.uleb128 0x83
 2739 0018 8A1C0000 		.4byte	.LASF467
 2740 001c 05       		.byte	0x5
 2741 001d 8401     		.uleb128 0x84
 2742 001f C92B0000 		.4byte	.LASF468
 2743 0023 05       		.byte	0x5
 2744 0024 8501     		.uleb128 0x85
 2745 0026 B82E0000 		.4byte	.LASF469
 2746 002a 05       		.byte	0x5
 2747 002b 8601     		.uleb128 0x86
 2748 002d B6110000 		.4byte	.LASF470
 2749 0031 05       		.byte	0x5
 2750 0032 8701     		.uleb128 0x87
 2751 0034 812F0000 		.4byte	.LASF471
 2752 0038 05       		.byte	0x5
 2753 0039 8801     		.uleb128 0x88
 2754 003b A51E0000 		.4byte	.LASF472
 2755 003f 05       		.byte	0x5
 2756 0040 8901     		.uleb128 0x89
 2757 0042 22180000 		.4byte	.LASF473
 2758 0046 05       		.byte	0x5
 2759 0047 8A01     		.uleb128 0x8a
 2760 0049 B3180000 		.4byte	.LASF474
 2761 004d 05       		.byte	0x5
 2762 004e 8B01     		.uleb128 0x8b
 2763 0050 63010000 		.4byte	.LASF475
 2764 0054 06       		.byte	0x6
 2765 0055 9B01     		.uleb128 0x9b
 2766 0057 19040000 		.4byte	.LASF476
 2767 005b 05       		.byte	0x5
 2768 005c B501     		.uleb128 0xb5
 2769 005e 38010000 		.4byte	.LASF477
 2770 0062 05       		.byte	0x5
 2771 0063 B601     		.uleb128 0xb6
 2772 0065 96170000 		.4byte	.LASF478
 2773 0069 05       		.byte	0x5
 2774 006a B701     		.uleb128 0xb7
 2775 006c 60310000 		.4byte	.LASF479
 2776 0070 05       		.byte	0x5
 2777 0071 B801     		.uleb128 0xb8
ARM GAS  /tmp/ccS8T3ln.s 			page 51


 2778 0073 EF060000 		.4byte	.LASF480
 2779 0077 05       		.byte	0x5
 2780 0078 B901     		.uleb128 0xb9
 2781 007a 94110000 		.4byte	.LASF481
 2782 007e 05       		.byte	0x5
 2783 007f BA01     		.uleb128 0xba
 2784 0081 80200000 		.4byte	.LASF482
 2785 0085 05       		.byte	0x5
 2786 0086 BB01     		.uleb128 0xbb
 2787 0088 332F0000 		.4byte	.LASF483
 2788 008c 05       		.byte	0x5
 2789 008d BC01     		.uleb128 0xbc
 2790 008f 142B0000 		.4byte	.LASF484
 2791 0093 05       		.byte	0x5
 2792 0094 BD01     		.uleb128 0xbd
 2793 0096 DD0A0000 		.4byte	.LASF485
 2794 009a 05       		.byte	0x5
 2795 009b BE01     		.uleb128 0xbe
 2796 009d 63220000 		.4byte	.LASF486
 2797 00a1 05       		.byte	0x5
 2798 00a2 BF01     		.uleb128 0xbf
 2799 00a4 52000000 		.4byte	.LASF487
 2800 00a8 05       		.byte	0x5
 2801 00a9 C001     		.uleb128 0xc0
 2802 00ab 310D0000 		.4byte	.LASF488
 2803 00af 05       		.byte	0x5
 2804 00b0 C101     		.uleb128 0xc1
 2805 00b2 60240000 		.4byte	.LASF489
 2806 00b6 05       		.byte	0x5
 2807 00b7 C201     		.uleb128 0xc2
 2808 00b9 A8280000 		.4byte	.LASF490
 2809 00bd 05       		.byte	0x5
 2810 00be C301     		.uleb128 0xc3
 2811 00c0 CD150000 		.4byte	.LASF491
 2812 00c4 05       		.byte	0x5
 2813 00c5 C401     		.uleb128 0xc4
 2814 00c7 06180000 		.4byte	.LASF492
 2815 00cb 05       		.byte	0x5
 2816 00cc CB01     		.uleb128 0xcb
 2817 00ce 6D1C0000 		.4byte	.LASF493
 2818 00d2 06       		.byte	0x6
 2819 00d3 E701     		.uleb128 0xe7
 2820 00d5 BD1F0000 		.4byte	.LASF494
 2821 00d9 05       		.byte	0x5
 2822 00da 8402     		.uleb128 0x104
 2823 00dc 11280000 		.4byte	.LASF495
 2824 00e0 05       		.byte	0x5
 2825 00e1 8502     		.uleb128 0x105
 2826 00e3 B6080000 		.4byte	.LASF496
 2827 00e7 05       		.byte	0x5
 2828 00e8 8602     		.uleb128 0x106
 2829 00ea 9E280000 		.4byte	.LASF497
 2830 00ee 05       		.byte	0x5
 2831 00ef 8702     		.uleb128 0x107
 2832 00f1 E9290000 		.4byte	.LASF498
 2833 00f5 05       		.byte	0x5
 2834 00f6 8802     		.uleb128 0x108
ARM GAS  /tmp/ccS8T3ln.s 			page 52


 2835 00f8 00290000 		.4byte	.LASF499
 2836 00fc 05       		.byte	0x5
 2837 00fd 8902     		.uleb128 0x109
 2838 00ff D2190000 		.4byte	.LASF500
 2839 0103 05       		.byte	0x5
 2840 0104 8A02     		.uleb128 0x10a
 2841 0106 EF150000 		.4byte	.LASF501
 2842 010a 05       		.byte	0x5
 2843 010b 8B02     		.uleb128 0x10b
 2844 010d 8C2B0000 		.4byte	.LASF502
 2845 0111 05       		.byte	0x5
 2846 0112 8C02     		.uleb128 0x10c
 2847 0114 B9090000 		.4byte	.LASF503
 2848 0118 05       		.byte	0x5
 2849 0119 8D02     		.uleb128 0x10d
 2850 011b D01D0000 		.4byte	.LASF504
 2851 011f 05       		.byte	0x5
 2852 0120 8E02     		.uleb128 0x10e
 2853 0122 93010000 		.4byte	.LASF505
 2854 0126 05       		.byte	0x5
 2855 0127 8F02     		.uleb128 0x10f
 2856 0129 12210000 		.4byte	.LASF506
 2857 012d 05       		.byte	0x5
 2858 012e 9002     		.uleb128 0x110
 2859 0130 8E000000 		.4byte	.LASF507
 2860 0134 05       		.byte	0x5
 2861 0135 9102     		.uleb128 0x111
 2862 0137 FC0A0000 		.4byte	.LASF508
 2863 013b 05       		.byte	0x5
 2864 013c 9202     		.uleb128 0x112
 2865 013e FD090000 		.4byte	.LASF509
 2866 0142 06       		.byte	0x6
 2867 0143 9F02     		.uleb128 0x11f
 2868 0145 A2060000 		.4byte	.LASF510
 2869 0149 06       		.byte	0x6
 2870 014a D402     		.uleb128 0x154
 2871 014c C3180000 		.4byte	.LASF511
 2872 0150 06       		.byte	0x6
 2873 0151 8603     		.uleb128 0x186
 2874 0153 15130000 		.4byte	.LASF512
 2875 0157 05       		.byte	0x5
 2876 0158 8B03     		.uleb128 0x18b
 2877 015a F5140000 		.4byte	.LASF513
 2878 015e 06       		.byte	0x6
 2879 015f 9103     		.uleb128 0x191
 2880 0161 621E0000 		.4byte	.LASF514
 2881 0165 05       		.byte	0x5
 2882 0166 9603     		.uleb128 0x196
 2883 0168 A52D0000 		.4byte	.LASF515
 2884 016c 05       		.byte	0x5
 2885 016d 9B03     		.uleb128 0x19b
 2886 016f 7E300000 		.4byte	.LASF516
 2887 0173 00       		.byte	0
 2888              		.section	.debug_macro,"G",%progbits,wm4.printf.h.59.15c3282c91c12f59c67258a426cb49f3,comdat
 2889              	.Ldebug_macro6:
 2890 0000 0400     		.2byte	0x4
 2891 0002 00       		.byte	0
ARM GAS  /tmp/ccS8T3ln.s 			page 53


 2892 0003 05       		.byte	0x5
 2893 0004 3B       		.uleb128 0x3b
 2894 0005 FE2C0000 		.4byte	.LASF517
 2895 0009 05       		.byte	0x5
 2896 000a 47       		.uleb128 0x47
 2897 000b EB0C0000 		.4byte	.LASF518
 2898 000f 05       		.byte	0x5
 2899 0010 55       		.uleb128 0x55
 2900 0011 B62B0000 		.4byte	.LASF519
 2901 0015 05       		.byte	0x5
 2902 0016 56       		.uleb128 0x56
 2903 0017 F61A0000 		.4byte	.LASF520
 2904 001b 05       		.byte	0x5
 2905 001c 61       		.uleb128 0x61
 2906 001d D1160000 		.4byte	.LASF521
 2907 0021 00       		.byte	0
 2908              		.section	.debug_line,"",%progbits
 2909              	.Ldebug_line0:
 2910 0000 43010000 		.section	.debug_str,"MS",%progbits,1
 2910      03009800 
 2910      00000201 
 2910      FB0E0D00 
 2910      01010101 
 2911              	.LASF418:
 2912 0000 5F5F4152 		.ascii	"__ARM_FEATURE_FP16_VECTOR_ARITHMETIC\000"
 2912      4D5F4645 
 2912      41545552 
 2912      455F4650 
 2912      31365F56 
 2913              	.LASF94:
 2914 0025 5F5F5349 		.ascii	"__SIG_ATOMIC_MAX__ 0x7fffffff\000"
 2914      475F4154 
 2914      4F4D4943 
 2914      5F4D4158 
 2914      5F5F2030 
 2915              	.LASF345:
 2916 0043 5F5F5441 		.ascii	"__TA_FBIT__ 63\000"
 2916      5F464249 
 2916      545F5F20 
 2916      363300
 2917              	.LASF487:
 2918 0052 5F53495A 		.ascii	"_SIZE_T_DEFINED \000"
 2918      455F545F 
 2918      44454649 
 2918      4E454420 
 2918      00
 2919              	.LASF255:
 2920 0063 5F5F5546 		.ascii	"__UFRACT_IBIT__ 0\000"
 2920      52414354 
 2920      5F494249 
 2920      545F5F20 
 2920      3000
 2921              	.LASF206:
 2922 0075 5F5F464C 		.ascii	"__FLT32_HAS_INFINITY__ 1\000"
 2922      5433325F 
 2922      4841535F 
 2922      494E4649 
ARM GAS  /tmp/ccS8T3ln.s 			page 54


 2922      4E495459 
 2923              	.LASF507:
 2924 008e 5F5F494E 		.ascii	"__INT_WCHAR_T_H \000"
 2924      545F5743 
 2924      4841525F 
 2924      545F4820 
 2924      00
 2925              	.LASF62:
 2926 009f 5F5F5549 		.ascii	"__UINT_FAST8_TYPE__ unsigned int\000"
 2926      4E545F46 
 2926      41535438 
 2926      5F545950 
 2926      455F5F20 
 2927              	.LASF213:
 2928 00c0 5F5F464C 		.ascii	"__FLT64_MAX_EXP__ 1024\000"
 2928      5436345F 
 2928      4D41585F 
 2928      4558505F 
 2928      5F203130 
 2929              	.LASF406:
 2930 00d7 5F5F7468 		.ascii	"__thumb2__ 1\000"
 2930      756D6232 
 2930      5F5F2031 
 2930      00
 2931              	.LASF228:
 2932 00e4 5F5F464C 		.ascii	"__FLT32X_MAX_EXP__ 1024\000"
 2932      54333258 
 2932      5F4D4158 
 2932      5F455850 
 2932      5F5F2031 
 2933              	.LASF128:
 2934 00fc 5F5F494E 		.ascii	"__INT_FAST16_WIDTH__ 32\000"
 2934      545F4641 
 2934      53543136 
 2934      5F574944 
 2934      54485F5F 
 2935              	.LASF371:
 2936 0114 5F5F4743 		.ascii	"__GCC_ATOMIC_TEST_AND_SET_TRUEVAL 1\000"
 2936      435F4154 
 2936      4F4D4943 
 2936      5F544553 
 2936      545F414E 
 2937              	.LASF477:
 2938 0138 5F5F7369 		.ascii	"__size_t__ \000"
 2938      7A655F74 
 2938      5F5F2000 
 2939              	.LASF308:
 2940 0144 5F5F554C 		.ascii	"__ULACCUM_EPSILON__ 0x1P-32ULK\000"
 2940      41434355 
 2940      4D5F4550 
 2940      53494C4F 
 2940      4E5F5F20 
 2941              	.LASF475:
 2942 0163 5F505452 		.ascii	"_PTRDIFF_T_DECLARED \000"
 2942      44494646 
 2942      5F545F44 
 2942      45434C41 
ARM GAS  /tmp/ccS8T3ln.s 			page 55


 2942      52454420 
 2943              	.LASF193:
 2944 0178 5F5F464C 		.ascii	"__FLT32_MANT_DIG__ 24\000"
 2944      5433325F 
 2944      4D414E54 
 2944      5F444947 
 2944      5F5F2032 
 2945              	.LASF525:
 2946 018e 63686172 		.ascii	"char\000"
 2946      00
 2947              	.LASF505:
 2948 0193 5F574348 		.ascii	"_WCHAR_T_H \000"
 2948      41525F54 
 2948      5F482000 
 2949              	.LASF118:
 2950 019f 5F5F5549 		.ascii	"__UINT8_C(c) c\000"
 2950      4E54385F 
 2950      43286329 
 2950      206300
 2951              	.LASF421:
 2952 01ae 5F5F4152 		.ascii	"__ARM_NEON__\000"
 2952      4D5F4E45 
 2952      4F4E5F5F 
 2952      00
 2953              	.LASF377:
 2954 01bb 5F5F5349 		.ascii	"__SIZEOF_WINT_T__ 4\000"
 2954      5A454F46 
 2954      5F57494E 
 2954      545F545F 
 2954      5F203400 
 2955              	.LASF320:
 2956 01cf 5F5F5151 		.ascii	"__QQ_IBIT__ 0\000"
 2956      5F494249 
 2956      545F5F20 
 2956      3000
 2957              	.LASF336:
 2958 01dd 5F5F5544 		.ascii	"__UDQ_IBIT__ 0\000"
 2958      515F4942 
 2958      49545F5F 
 2958      203000
 2959              	.LASF263:
 2960 01ec 5F5F4C46 		.ascii	"__LFRACT_EPSILON__ 0x1P-31LR\000"
 2960      52414354 
 2960      5F455053 
 2960      494C4F4E 
 2960      5F5F2030 
 2961              	.LASF230:
 2962 0209 5F5F464C 		.ascii	"__FLT32X_DECIMAL_DIG__ 17\000"
 2962      54333258 
 2962      5F444543 
 2962      494D414C 
 2962      5F444947 
 2963              	.LASF461:
 2964 0223 5F56415F 		.ascii	"_VA_LIST_DEFINED \000"
 2964      4C495354 
 2964      5F444546 
 2964      494E4544 
ARM GAS  /tmp/ccS8T3ln.s 			page 56


 2964      2000
 2965              	.LASF164:
 2966 0235 5F5F4442 		.ascii	"__DBL_MIN_EXP__ (-1021)\000"
 2966      4C5F4D49 
 2966      4E5F4558 
 2966      505F5F20 
 2966      282D3130 
 2967              	.LASF84:
 2968 024d 5F5F4C4F 		.ascii	"__LONG_LONG_WIDTH__ 64\000"
 2968      4E475F4C 
 2968      4F4E475F 
 2968      57494454 
 2968      485F5F20 
 2969              	.LASF533:
 2970 0264 6D657373 		.ascii	"message\000"
 2970      61676500 
 2971              	.LASF364:
 2972 026c 5F5F4743 		.ascii	"__GCC_ATOMIC_CHAR16_T_LOCK_FREE 2\000"
 2972      435F4154 
 2972      4F4D4943 
 2972      5F434841 
 2972      5231365F 
 2973              	.LASF435:
 2974 028e 5F5F4152 		.ascii	"__ARM_FEATURE_CDE_COPROC\000"
 2974      4D5F4645 
 2974      41545552 
 2974      455F4344 
 2974      455F434F 
 2975              	.LASF451:
 2976 02a7 5F414E53 		.ascii	"_ANSI_STDARG_H_ \000"
 2976      495F5354 
 2976      44415247 
 2976      5F485F20 
 2976      00
 2977              	.LASF397:
 2978 02b8 5F5F4152 		.ascii	"__ARM_SIZEOF_WCHAR_T 4\000"
 2978      4D5F5349 
 2978      5A454F46 
 2978      5F574348 
 2978      41525F54 
 2979              	.LASF414:
 2980 02cf 5F5F4152 		.ascii	"__ARM_FP16_FORMAT_IEEE\000"
 2980      4D5F4650 
 2980      31365F46 
 2980      4F524D41 
 2980      545F4945 
 2981              	.LASF387:
 2982 02e6 5F5F4152 		.ascii	"__ARM_FEATURE_COMPLEX\000"
 2982      4D5F4645 
 2982      41545552 
 2982      455F434F 
 2982      4D504C45 
 2983              	.LASF26:
 2984 02fc 5F5F4249 		.ascii	"__BIGGEST_ALIGNMENT__ 8\000"
 2984      47474553 
 2984      545F414C 
 2984      49474E4D 
ARM GAS  /tmp/ccS8T3ln.s 			page 57


 2984      454E545F 
 2985              	.LASF169:
 2986 0314 5F5F4442 		.ascii	"__DBL_MAX__ ((double)1.7976931348623157e+308L)\000"
 2986      4C5F4D41 
 2986      585F5F20 
 2986      2828646F 
 2986      75626C65 
 2987              	.LASF246:
 2988 0343 5F5F5553 		.ascii	"__USFRACT_MIN__ 0.0UHR\000"
 2988      46524143 
 2988      545F4D49 
 2988      4E5F5F20 
 2988      302E3055 
 2989              	.LASF77:
 2990 035a 5F5F5749 		.ascii	"__WINT_MIN__ 0U\000"
 2990      4E545F4D 
 2990      494E5F5F 
 2990      20305500 
 2991              	.LASF226:
 2992 036a 5F5F464C 		.ascii	"__FLT32X_MIN_EXP__ (-1021)\000"
 2992      54333258 
 2992      5F4D494E 
 2992      5F455850 
 2992      5F5F2028 
 2993              	.LASF6:
 2994 0385 5F5F474E 		.ascii	"__GNUC_MINOR__ 3\000"
 2994      55435F4D 
 2994      494E4F52 
 2994      5F5F2033 
 2994      00
 2995              	.LASF431:
 2996 0396 5F5F4152 		.ascii	"__ARM_ASM_SYNTAX_UNIFIED__ 1\000"
 2996      4D5F4153 
 2996      4D5F5359 
 2996      4E544158 
 2996      5F554E49 
 2997              	.LASF526:
 2998 03b3 756E7369 		.ascii	"unsigned int\000"
 2998      676E6564 
 2998      20696E74 
 2998      00
 2999              	.LASF382:
 3000 03c0 5F5F4152 		.ascii	"__ARM_FEATURE_CRYPTO\000"
 3000      4D5F4645 
 3000      41545552 
 3000      455F4352 
 3000      5950544F 
 3001              	.LASF170:
 3002 03d5 5F5F4442 		.ascii	"__DBL_NORM_MAX__ ((double)1.7976931348623157e+308L)"
 3002      4C5F4E4F 
 3002      524D5F4D 
 3002      41585F5F 
 3002      20282864 
 3003 0408 00       		.ascii	"\000"
 3004              	.LASF120:
 3005 0409 5F5F5549 		.ascii	"__UINT16_C(c) c\000"
 3005      4E543136 
ARM GAS  /tmp/ccS8T3ln.s 			page 58


 3005      5F432863 
 3005      29206300 
 3006              	.LASF476:
 3007 0419 5F5F6E65 		.ascii	"__need_ptrdiff_t\000"
 3007      65645F70 
 3007      74726469 
 3007      66665F74 
 3007      00
 3008              	.LASF24:
 3009 042a 5F5F5349 		.ascii	"__SIZEOF_SIZE_T__ 4\000"
 3009      5A454F46 
 3009      5F53495A 
 3009      455F545F 
 3009      5F203400 
 3010              	.LASF39:
 3011 043e 5F5F4348 		.ascii	"__CHAR16_TYPE__ short unsigned int\000"
 3011      41523136 
 3011      5F545950 
 3011      455F5F20 
 3011      73686F72 
 3012              	.LASF23:
 3013 0461 5F5F5349 		.ascii	"__SIZEOF_LONG_DOUBLE__ 8\000"
 3013      5A454F46 
 3013      5F4C4F4E 
 3013      475F444F 
 3013      55424C45 
 3014              	.LASF125:
 3015 047a 5F5F494E 		.ascii	"__INT_FAST8_MAX__ 0x7fffffff\000"
 3015      545F4641 
 3015      5354385F 
 3015      4D41585F 
 3015      5F203078 
 3016              	.LASF28:
 3017 0497 5F5F4F52 		.ascii	"__ORDER_BIG_ENDIAN__ 4321\000"
 3017      4445525F 
 3017      4249475F 
 3017      454E4449 
 3017      414E5F5F 
 3018              	.LASF277:
 3019 04b1 5F5F554C 		.ascii	"__ULLFRACT_MAX__ 0XFFFFFFFFFFFFFFFFP-64ULLR\000"
 3019      4C465241 
 3019      43545F4D 
 3019      41585F5F 
 3019      20305846 
 3020              	.LASF379:
 3021 04dd 5F5F4152 		.ascii	"__ARM_FEATURE_DSP 1\000"
 3021      4D5F4645 
 3021      41545552 
 3021      455F4453 
 3021      50203100 
 3022              	.LASF353:
 3023 04f1 5F5F5554 		.ascii	"__UTA_FBIT__ 64\000"
 3023      415F4642 
 3023      49545F5F 
 3023      20363400 
 3024              	.LASF162:
 3025 0501 5F5F4442 		.ascii	"__DBL_MANT_DIG__ 53\000"
ARM GAS  /tmp/ccS8T3ln.s 			page 59


 3025      4C5F4D41 
 3025      4E545F44 
 3025      49475F5F 
 3025      20353300 
 3026              	.LASF57:
 3027 0515 5F5F5549 		.ascii	"__UINT_LEAST64_TYPE__ long long unsigned int\000"
 3027      4E545F4C 
 3027      45415354 
 3027      36345F54 
 3027      5950455F 
 3028              	.LASF71:
 3029 0542 5F5F494E 		.ascii	"__INT_MAX__ 0x7fffffff\000"
 3029      545F4D41 
 3029      585F5F20 
 3029      30783766 
 3029      66666666 
 3030              	.LASF12:
 3031 0559 5F5F4154 		.ascii	"__ATOMIC_RELEASE 3\000"
 3031      4F4D4943 
 3031      5F52454C 
 3031      45415345 
 3031      203300
 3032              	.LASF462:
 3033 056c 5F56415F 		.ascii	"_VA_LIST_T_H \000"
 3033      4C495354 
 3033      5F545F48 
 3033      2000
 3034              	.LASF34:
 3035 057a 5F5F5054 		.ascii	"__PTRDIFF_TYPE__ int\000"
 3035      52444946 
 3035      465F5459 
 3035      50455F5F 
 3035      20696E74 
 3036              	.LASF358:
 3037 058f 5F5F4348 		.ascii	"__CHAR_UNSIGNED__ 1\000"
 3037      41525F55 
 3037      4E534947 
 3037      4E45445F 
 3037      5F203100 
 3038              	.LASF43:
 3039 05a3 5F5F494E 		.ascii	"__INT16_TYPE__ short int\000"
 3039      5431365F 
 3039      54595045 
 3039      5F5F2073 
 3039      686F7274 
 3040              	.LASF384:
 3041 05bc 5F5F4152 		.ascii	"__ARM_FEATURE_QRDMX\000"
 3041      4D5F4645 
 3041      41545552 
 3041      455F5152 
 3041      444D5800 
 3042              	.LASF178:
 3043 05d0 5F5F4C44 		.ascii	"__LDBL_DIG__ 15\000"
 3043      424C5F44 
 3043      49475F5F 
 3043      20313500 
 3044              	.LASF18:
ARM GAS  /tmp/ccS8T3ln.s 			page 60


 3045 05e0 5F5F5349 		.ascii	"__SIZEOF_LONG__ 4\000"
 3045      5A454F46 
 3045      5F4C4F4E 
 3045      475F5F20 
 3045      3400
 3046              	.LASF200:
 3047 05f2 5F5F464C 		.ascii	"__FLT32_MAX__ 3.4028234663852886e+38F32\000"
 3047      5433325F 
 3047      4D41585F 
 3047      5F20332E 
 3047      34303238 
 3048              	.LASF310:
 3049 061a 5F5F4C4C 		.ascii	"__LLACCUM_IBIT__ 32\000"
 3049      41434355 
 3049      4D5F4942 
 3049      49545F5F 
 3049      20333200 
 3050              	.LASF10:
 3051 062e 5F5F4154 		.ascii	"__ATOMIC_SEQ_CST 5\000"
 3051      4F4D4943 
 3051      5F534551 
 3051      5F435354 
 3051      203500
 3052              	.LASF20:
 3053 0641 5F5F5349 		.ascii	"__SIZEOF_SHORT__ 2\000"
 3053      5A454F46 
 3053      5F53484F 
 3053      52545F5F 
 3053      203200
 3054              	.LASF105:
 3055 0654 5F5F494E 		.ascii	"__INT_LEAST8_MAX__ 0x7f\000"
 3055      545F4C45 
 3055      41535438 
 3055      5F4D4158 
 3055      5F5F2030 
 3056              	.LASF50:
 3057 066c 5F5F494E 		.ascii	"__INT_LEAST8_TYPE__ signed char\000"
 3057      545F4C45 
 3057      41535438 
 3057      5F545950 
 3057      455F5F20 
 3058              	.LASF209:
 3059 068c 5F5F464C 		.ascii	"__FLT64_MANT_DIG__ 53\000"
 3059      5436345F 
 3059      4D414E54 
 3059      5F444947 
 3059      5F5F2035 
 3060              	.LASF510:
 3061 06a2 5F425344 		.ascii	"_BSD_WCHAR_T_\000"
 3061      5F574348 
 3061      41525F54 
 3061      5F00
 3062              	.LASF92:
 3063 06b0 5F5F5549 		.ascii	"__UINTMAX_C(c) c ## ULL\000"
 3063      4E544D41 
 3063      585F4328 
 3063      63292063 
ARM GAS  /tmp/ccS8T3ln.s 			page 61


 3063      20232320 
 3064              	.LASF30:
 3065 06c8 5F5F4259 		.ascii	"__BYTE_ORDER__ __ORDER_LITTLE_ENDIAN__\000"
 3065      54455F4F 
 3065      52444552 
 3065      5F5F205F 
 3065      5F4F5244 
 3066              	.LASF480:
 3067 06ef 5F535953 		.ascii	"_SYS_SIZE_T_H \000"
 3067      5F53495A 
 3067      455F545F 
 3067      482000
 3068              	.LASF196:
 3069 06fe 5F5F464C 		.ascii	"__FLT32_MIN_10_EXP__ (-37)\000"
 3069      5433325F 
 3069      4D494E5F 
 3069      31305F45 
 3069      58505F5F 
 3070              	.LASF260:
 3071 0719 5F5F4C46 		.ascii	"__LFRACT_IBIT__ 0\000"
 3071      52414354 
 3071      5F494249 
 3071      545F5F20 
 3071      3000
 3072              	.LASF402:
 3073 072b 5F5F4152 		.ascii	"__ARM_ARCH 7\000"
 3073      4D5F4152 
 3073      43482037 
 3073      00
 3074              	.LASF3:
 3075 0738 5F5F5354 		.ascii	"__STDC_UTF_32__ 1\000"
 3075      44435F55 
 3075      54465F33 
 3075      325F5F20 
 3075      3100
 3076              	.LASF108:
 3077 074a 5F5F494E 		.ascii	"__INT_LEAST16_MAX__ 0x7fff\000"
 3077      545F4C45 
 3077      41535431 
 3077      365F4D41 
 3077      585F5F20 
 3078              	.LASF69:
 3079 0765 5F5F5343 		.ascii	"__SCHAR_MAX__ 0x7f\000"
 3079      4841525F 
 3079      4D41585F 
 3079      5F203078 
 3079      376600
 3080              	.LASF315:
 3081 0778 5F5F554C 		.ascii	"__ULLACCUM_IBIT__ 32\000"
 3081      4C414343 
 3081      554D5F49 
 3081      4249545F 
 3081      5F203332 
 3082              	.LASF394:
 3083 078d 5F5F4152 		.ascii	"__ARM_FEATURE_NUMERIC_MAXMIN\000"
 3083      4D5F4645 
 3083      41545552 
ARM GAS  /tmp/ccS8T3ln.s 			page 62


 3083      455F4E55 
 3083      4D455249 
 3084              	.LASF275:
 3085 07aa 5F5F554C 		.ascii	"__ULLFRACT_IBIT__ 0\000"
 3085      4C465241 
 3085      43545F49 
 3085      4249545F 
 3085      5F203000 
 3086              	.LASF210:
 3087 07be 5F5F464C 		.ascii	"__FLT64_DIG__ 15\000"
 3087      5436345F 
 3087      4449475F 
 3087      5F203135 
 3087      00
 3088              	.LASF9:
 3089 07cf 5F5F4154 		.ascii	"__ATOMIC_RELAXED 0\000"
 3089      4F4D4943 
 3089      5F52454C 
 3089      41584544 
 3089      203000
 3090              	.LASF419:
 3091 07e2 5F5F4152 		.ascii	"__ARM_FEATURE_FP16_FML\000"
 3091      4D5F4645 
 3091      41545552 
 3091      455F4650 
 3091      31365F46 
 3092              	.LASF79:
 3093 07f9 5F5F5349 		.ascii	"__SIZE_MAX__ 0xffffffffU\000"
 3093      5A455F4D 
 3093      41585F5F 
 3093      20307866 
 3093      66666666 
 3094              	.LASF301:
 3095 0812 5F5F4C41 		.ascii	"__LACCUM_MIN__ (-0X1P31LK-0X1P31LK)\000"
 3095      4343554D 
 3095      5F4D494E 
 3095      5F5F2028 
 3095      2D305831 
 3096              	.LASF317:
 3097 0836 5F5F554C 		.ascii	"__ULLACCUM_MAX__ 0XFFFFFFFFFFFFFFFFP-32ULLK\000"
 3097      4C414343 
 3097      554D5F4D 
 3097      41585F5F 
 3097      20305846 
 3098              	.LASF306:
 3099 0862 5F5F554C 		.ascii	"__ULACCUM_MIN__ 0.0ULK\000"
 3099      41434355 
 3099      4D5F4D49 
 3099      4E5F5F20 
 3099      302E3055 
 3100              	.LASF413:
 3101 0879 5F5F4152 		.ascii	"__ARM_FP 4\000"
 3101      4D5F4650 
 3101      203400
 3102              	.LASF537:
 3103 0884 70646C6F 		.ascii	"pdlogger_register_appender\000"
 3103      67676572 
ARM GAS  /tmp/ccS8T3ln.s 			page 63


 3103      5F726567 
 3103      69737465 
 3103      725F6170 
 3104              	.LASF159:
 3105 089f 5F5F464C 		.ascii	"__FLT_HAS_INFINITY__ 1\000"
 3105      545F4841 
 3105      535F494E 
 3105      46494E49 
 3105      54595F5F 
 3106              	.LASF496:
 3107 08b6 5F5F5743 		.ascii	"__WCHAR_T__ \000"
 3107      4841525F 
 3107      545F5F20 
 3107      00
 3108              	.LASF203:
 3109 08c3 5F5F464C 		.ascii	"__FLT32_EPSILON__ 1.1920928955078125e-7F32\000"
 3109      5433325F 
 3109      45505349 
 3109      4C4F4E5F 
 3109      5F20312E 
 3110              	.LASF352:
 3111 08ee 5F5F5544 		.ascii	"__UDA_IBIT__ 32\000"
 3111      415F4942 
 3111      49545F5F 
 3111      20333200 
 3112              	.LASF61:
 3113 08fe 5F5F494E 		.ascii	"__INT_FAST64_TYPE__ long long int\000"
 3113      545F4641 
 3113      53543634 
 3113      5F545950 
 3113      455F5F20 
 3114              	.LASF106:
 3115 0920 5F5F494E 		.ascii	"__INT8_C(c) c\000"
 3115      54385F43 
 3115      28632920 
 3115      6300
 3116              	.LASF208:
 3117 092e 5F5F4650 		.ascii	"__FP_FAST_FMAF32 1\000"
 3117      5F464153 
 3117      545F464D 
 3117      41463332 
 3117      203100
 3118              	.LASF388:
 3119 0941 5F5F4152 		.ascii	"__ARM_32BIT_STATE 1\000"
 3119      4D5F3332 
 3119      4249545F 
 3119      53544154 
 3119      45203100 
 3120              	.LASF428:
 3121 0955 5F5F4644 		.ascii	"__FDPIC__\000"
 3121      5049435F 
 3121      5F00
 3122              	.LASF110:
 3123 095f 5F5F494E 		.ascii	"__INT_LEAST16_WIDTH__ 16\000"
 3123      545F4C45 
 3123      41535431 
 3123      365F5749 
ARM GAS  /tmp/ccS8T3ln.s 			page 64


 3123      4454485F 
 3124              	.LASF534:
 3125 0978 6C6F6767 		.ascii	"logger\000"
 3125      657200
 3126              	.LASF316:
 3127 097f 5F5F554C 		.ascii	"__ULLACCUM_MIN__ 0.0ULLK\000"
 3127      4C414343 
 3127      554D5F4D 
 3127      494E5F5F 
 3127      20302E30 
 3128              	.LASF386:
 3129 0998 5F5F4152 		.ascii	"__ARM_FEATURE_DOTPROD\000"
 3129      4D5F4645 
 3129      41545552 
 3129      455F444F 
 3129      5450524F 
 3130              	.LASF422:
 3131 09ae 5F5F4152 		.ascii	"__ARM_NEON\000"
 3131      4D5F4E45 
 3131      4F4E00
 3132              	.LASF503:
 3133 09b9 5F574348 		.ascii	"_WCHAR_T_DEFINED_ \000"
 3133      41525F54 
 3133      5F444546 
 3133      494E4544 
 3133      5F2000
 3134              	.LASF390:
 3135 09cc 5F5F4152 		.ascii	"__ARM_FEATURE_CMSE\000"
 3135      4D5F4645 
 3135      41545552 
 3135      455F434D 
 3135      534500
 3136              	.LASF67:
 3137 09df 5F5F5549 		.ascii	"__UINTPTR_TYPE__ unsigned int\000"
 3137      4E545054 
 3137      525F5459 
 3137      50455F5F 
 3137      20756E73 
 3138              	.LASF509:
 3139 09fd 5F574348 		.ascii	"_WCHAR_T_DECLARED \000"
 3139      41525F54 
 3139      5F444543 
 3139      4C415245 
 3139      442000
 3140              	.LASF205:
 3141 0a10 5F5F464C 		.ascii	"__FLT32_HAS_DENORM__ 1\000"
 3141      5433325F 
 3141      4841535F 
 3141      44454E4F 
 3141      524D5F5F 
 3142              	.LASF220:
 3143 0a27 5F5F464C 		.ascii	"__FLT64_DENORM_MIN__ 4.9406564584124654e-324F64\000"
 3143      5436345F 
 3143      44454E4F 
 3143      524D5F4D 
 3143      494E5F5F 
 3144              	.LASF359:
ARM GAS  /tmp/ccS8T3ln.s 			page 65


 3145 0a57 5F5F4743 		.ascii	"__GCC_HAVE_SYNC_COMPARE_AND_SWAP_1 1\000"
 3145      435F4841 
 3145      56455F53 
 3145      594E435F 
 3145      434F4D50 
 3146              	.LASF342:
 3147 0a7c 5F5F5341 		.ascii	"__SA_IBIT__ 16\000"
 3147      5F494249 
 3147      545F5F20 
 3147      313600
 3148              	.LASF272:
 3149 0a8b 5F5F4C4C 		.ascii	"__LLFRACT_MAX__ 0X7FFFFFFFFFFFFFFFP-63LLR\000"
 3149      46524143 
 3149      545F4D41 
 3149      585F5F20 
 3149      30583746 
 3150              	.LASF131:
 3151 0ab5 5F5F494E 		.ascii	"__INT_FAST64_MAX__ 0x7fffffffffffffffLL\000"
 3151      545F4641 
 3151      53543634 
 3151      5F4D4158 
 3151      5F5F2030 
 3152              	.LASF485:
 3153 0add 5F425344 		.ascii	"_BSD_SIZE_T_ \000"
 3153      5F53495A 
 3153      455F545F 
 3153      2000
 3154              	.LASF161:
 3155 0aeb 5F5F4650 		.ascii	"__FP_FAST_FMAF 1\000"
 3155      5F464153 
 3155      545F464D 
 3155      41462031 
 3155      00
 3156              	.LASF508:
 3157 0afc 5F474343 		.ascii	"_GCC_WCHAR_T \000"
 3157      5F574348 
 3157      41525F54 
 3157      2000
 3158              	.LASF147:
 3159 0b0a 5F5F464C 		.ascii	"__FLT_DIG__ 6\000"
 3159      545F4449 
 3159      475F5F20 
 3159      3600
 3160              	.LASF172:
 3161 0b18 5F5F4442 		.ascii	"__DBL_EPSILON__ ((double)2.2204460492503131e-16L)\000"
 3161      4C5F4550 
 3161      53494C4F 
 3161      4E5F5F20 
 3161      2828646F 
 3162              	.LASF362:
 3163 0b4a 5F5F4743 		.ascii	"__GCC_ATOMIC_BOOL_LOCK_FREE 2\000"
 3163      435F4154 
 3163      4F4D4943 
 3163      5F424F4F 
 3163      4C5F4C4F 
 3164              	.LASF360:
 3165 0b68 5F5F4743 		.ascii	"__GCC_HAVE_SYNC_COMPARE_AND_SWAP_2 1\000"
ARM GAS  /tmp/ccS8T3ln.s 			page 66


 3165      435F4841 
 3165      56455F53 
 3165      594E435F 
 3165      434F4D50 
 3166              	.LASF343:
 3167 0b8d 5F5F4441 		.ascii	"__DA_FBIT__ 31\000"
 3167      5F464249 
 3167      545F5F20 
 3167      333100
 3168              	.LASF396:
 3169 0b9c 5F5F4152 		.ascii	"__ARM_SIZEOF_MINIMAL_ENUM 1\000"
 3169      4D5F5349 
 3169      5A454F46 
 3169      5F4D494E 
 3169      494D414C 
 3170              	.LASF442:
 3171 0bb8 5F5F5553 		.ascii	"__USES_INITFINI__ 1\000"
 3171      45535F49 
 3171      4E495446 
 3171      494E495F 
 3171      5F203100 
 3172              	.LASF140:
 3173 0bcc 5F5F4743 		.ascii	"__GCC_IEC_559 0\000"
 3173      435F4945 
 3173      435F3535 
 3173      39203000 
 3174              	.LASF539:
 3175 0bdc 474E5520 		.ascii	"GNU C17 10.3.1 20210621 (release) -mthumb -mcpu=cor"
 3175      43313720 
 3175      31302E33 
 3175      2E312032 
 3175      30323130 
 3176 0c0f 7465782D 		.ascii	"tex-m7 -mfloat-abi=hard -mfpu=fpv5-sp-d16 -mword-re"
 3176      6D37202D 
 3176      6D666C6F 
 3176      61742D61 
 3176      62693D68 
 3177 0c42 6C6F6361 		.ascii	"locations -march=armv7e-m+fpv5 -g3 -gdwarf-2 -O2 -f"
 3177      74696F6E 
 3177      73202D6D 
 3177      61726368 
 3177      3D61726D 
 3178 0c75 616C6967 		.ascii	"align-functions=16 -fomit-frame-pointer -fno-common"
 3178      6E2D6675 
 3178      6E637469 
 3178      6F6E733D 
 3178      3136202D 
 3179 0ca8 202D6666 		.ascii	" -ffunction-sections -fdata-sections\000"
 3179      756E6374 
 3179      696F6E2D 
 3179      73656374 
 3179      696F6E73 
 3180              	.LASF288:
 3181 0ccd 5F5F5553 		.ascii	"__USACCUM_EPSILON__ 0x1P-8UHK\000"
 3181      41434355 
 3181      4D5F4550 
 3181      53494C4F 
ARM GAS  /tmp/ccS8T3ln.s 			page 67


 3181      4E5F5F20 
 3182              	.LASF518:
 3183 0ceb 73707269 		.ascii	"sprintf sprintf_\000"
 3183      6E746620 
 3183      73707269 
 3183      6E74665F 
 3183      00
 3184              	.LASF78:
 3185 0cfc 5F5F5054 		.ascii	"__PTRDIFF_MAX__ 0x7fffffff\000"
 3185      52444946 
 3185      465F4D41 
 3185      585F5F20 
 3185      30783766 
 3186              	.LASF207:
 3187 0d17 5F5F464C 		.ascii	"__FLT32_HAS_QUIET_NAN__ 1\000"
 3187      5433325F 
 3187      4841535F 
 3187      51554945 
 3187      545F4E41 
 3188              	.LASF488:
 3189 0d31 5F425344 		.ascii	"_BSD_SIZE_T_DEFINED_ \000"
 3189      5F53495A 
 3189      455F545F 
 3189      44454649 
 3189      4E45445F 
 3190              	.LASF307:
 3191 0d47 5F5F554C 		.ascii	"__ULACCUM_MAX__ 0XFFFFFFFFFFFFFFFFP-32ULK\000"
 3191      41434355 
 3191      4D5F4D41 
 3191      585F5F20 
 3191      30584646 
 3192              	.LASF5:
 3193 0d71 5F5F474E 		.ascii	"__GNUC__ 10\000"
 3193      55435F5F 
 3193      20313000 
 3194              	.LASF242:
 3195 0d7d 5F5F5346 		.ascii	"__SFRACT_MAX__ 0X7FP-7HR\000"
 3195      52414354 
 3195      5F4D4158 
 3195      5F5F2030 
 3195      58374650 
 3196              	.LASF427:
 3197 0d96 5F5F4152 		.ascii	"__ARM_EABI__ 1\000"
 3197      4D5F4541 
 3197      42495F5F 
 3197      203100
 3198              	.LASF117:
 3199 0da5 5F5F5549 		.ascii	"__UINT_LEAST8_MAX__ 0xff\000"
 3199      4E545F4C 
 3199      45415354 
 3199      385F4D41 
 3199      585F5F20 
 3200              	.LASF100:
 3201 0dbe 5F5F494E 		.ascii	"__INT64_MAX__ 0x7fffffffffffffffLL\000"
 3201      5436345F 
 3201      4D41585F 
 3201      5F203078 
ARM GAS  /tmp/ccS8T3ln.s 			page 68


 3201      37666666 
 3202              	.LASF97:
 3203 0de1 5F5F494E 		.ascii	"__INT8_MAX__ 0x7f\000"
 3203      54385F4D 
 3203      41585F5F 
 3203      20307837 
 3203      6600
 3204              	.LASF268:
 3205 0df3 5F5F554C 		.ascii	"__ULFRACT_EPSILON__ 0x1P-32ULR\000"
 3205      46524143 
 3205      545F4550 
 3205      53494C4F 
 3205      4E5F5F20 
 3206              	.LASF52:
 3207 0e12 5F5F494E 		.ascii	"__INT_LEAST32_TYPE__ long int\000"
 3207      545F4C45 
 3207      41535433 
 3207      325F5459 
 3207      50455F5F 
 3208              	.LASF265:
 3209 0e30 5F5F554C 		.ascii	"__ULFRACT_IBIT__ 0\000"
 3209      46524143 
 3209      545F4942 
 3209      49545F5F 
 3209      203000
 3210              	.LASF338:
 3211 0e43 5F5F5554 		.ascii	"__UTQ_IBIT__ 0\000"
 3211      515F4942 
 3211      49545F5F 
 3211      203000
 3212              	.LASF123:
 3213 0e52 5F5F5549 		.ascii	"__UINT_LEAST64_MAX__ 0xffffffffffffffffULL\000"
 3213      4E545F4C 
 3213      45415354 
 3213      36345F4D 
 3213      41585F5F 
 3214              	.LASF157:
 3215 0e7d 5F5F464C 		.ascii	"__FLT_DENORM_MIN__ 1.4012984643248171e-45F\000"
 3215      545F4445 
 3215      4E4F524D 
 3215      5F4D494E 
 3215      5F5F2031 
 3216              	.LASF447:
 3217 0ea8 4C4F475F 		.ascii	"LOG_BUFFER_SIZE 400\000"
 3217      42554646 
 3217      45525F53 
 3217      495A4520 
 3217      34303000 
 3218              	.LASF154:
 3219 0ebc 5F5F464C 		.ascii	"__FLT_NORM_MAX__ 3.4028234663852886e+38F\000"
 3219      545F4E4F 
 3219      524D5F4D 
 3219      41585F5F 
 3219      20332E34 
 3220              	.LASF176:
 3221 0ee5 5F5F4442 		.ascii	"__DBL_HAS_QUIET_NAN__ 1\000"
 3221      4C5F4841 
ARM GAS  /tmp/ccS8T3ln.s 			page 69


 3221      535F5155 
 3221      4945545F 
 3221      4E414E5F 
 3222              	.LASF296:
 3223 0efd 5F5F5541 		.ascii	"__UACCUM_MIN__ 0.0UK\000"
 3223      4343554D 
 3223      5F4D494E 
 3223      5F5F2030 
 3223      2E30554B 
 3224              	.LASF282:
 3225 0f12 5F5F5341 		.ascii	"__SACCUM_MAX__ 0X7FFFP-7HK\000"
 3225      4343554D 
 3225      5F4D4158 
 3225      5F5F2030 
 3225      58374646 
 3226              	.LASF58:
 3227 0f2d 5F5F494E 		.ascii	"__INT_FAST8_TYPE__ int\000"
 3227      545F4641 
 3227      5354385F 
 3227      54595045 
 3227      5F5F2069 
 3228              	.LASF222:
 3229 0f44 5F5F464C 		.ascii	"__FLT64_HAS_INFINITY__ 1\000"
 3229      5436345F 
 3229      4841535F 
 3229      494E4649 
 3229      4E495459 
 3230              	.LASF547:
 3231 0f5d 76736E70 		.ascii	"vsnprintf_\000"
 3231      72696E74 
 3231      665F00
 3232              	.LASF235:
 3233 0f68 5F5F464C 		.ascii	"__FLT32X_DENORM_MIN__ 4.9406564584124654e-324F32x\000"
 3233      54333258 
 3233      5F44454E 
 3233      4F524D5F 
 3233      4D494E5F 
 3234              	.LASF417:
 3235 0f9a 5F5F4152 		.ascii	"__ARM_FEATURE_FP16_SCALAR_ARITHMETIC\000"
 3235      4D5F4645 
 3235      41545552 
 3235      455F4650 
 3235      31365F53 
 3236              	.LASF279:
 3237 0fbf 5F5F5341 		.ascii	"__SACCUM_FBIT__ 7\000"
 3237      4343554D 
 3237      5F464249 
 3237      545F5F20 
 3237      3700
 3238              	.LASF171:
 3239 0fd1 5F5F4442 		.ascii	"__DBL_MIN__ ((double)2.2250738585072014e-308L)\000"
 3239      4C5F4D49 
 3239      4E5F5F20 
 3239      2828646F 
 3239      75626C65 
 3240              	.LASF218:
 3241 1000 5F5F464C 		.ascii	"__FLT64_MIN__ 2.2250738585072014e-308F64\000"
ARM GAS  /tmp/ccS8T3ln.s 			page 70


 3241      5436345F 
 3241      4D494E5F 
 3241      5F20322E 
 3241      32323530 
 3242              	.LASF251:
 3243 1029 5F5F4652 		.ascii	"__FRACT_MIN__ (-0.5R-0.5R)\000"
 3243      4143545F 
 3243      4D494E5F 
 3243      5F20282D 
 3243      302E3552 
 3244              	.LASF276:
 3245 1044 5F5F554C 		.ascii	"__ULLFRACT_MIN__ 0.0ULLR\000"
 3245      4C465241 
 3245      43545F4D 
 3245      494E5F5F 
 3245      20302E30 
 3246              	.LASF368:
 3247 105d 5F5F4743 		.ascii	"__GCC_ATOMIC_INT_LOCK_FREE 2\000"
 3247      435F4154 
 3247      4F4D4943 
 3247      5F494E54 
 3247      5F4C4F43 
 3248              	.LASF89:
 3249 107a 5F5F494E 		.ascii	"__INTMAX_MAX__ 0x7fffffffffffffffLL\000"
 3249      544D4158 
 3249      5F4D4158 
 3249      5F5F2030 
 3249      78376666 
 3250              	.LASF298:
 3251 109e 5F5F5541 		.ascii	"__UACCUM_EPSILON__ 0x1P-16UK\000"
 3251      4343554D 
 3251      5F455053 
 3251      494C4F4E 
 3251      5F5F2030 
 3252              	.LASF459:
 3253 10bb 5F56415F 		.ascii	"_VA_LIST_ \000"
 3253      4C495354 
 3253      5F2000
 3254              	.LASF290:
 3255 10c6 5F5F4143 		.ascii	"__ACCUM_IBIT__ 16\000"
 3255      43554D5F 
 3255      49424954 
 3255      5F5F2031 
 3255      3600
 3256              	.LASF189:
 3257 10d8 5F5F4C44 		.ascii	"__LDBL_DENORM_MIN__ 4.9406564584124654e-324L\000"
 3257      424C5F44 
 3257      454E4F52 
 3257      4D5F4D49 
 3257      4E5F5F20 
 3258              	.LASF214:
 3259 1105 5F5F464C 		.ascii	"__FLT64_MAX_10_EXP__ 308\000"
 3259      5436345F 
 3259      4D41585F 
 3259      31305F45 
 3259      58505F5F 
 3260              	.LASF280:
ARM GAS  /tmp/ccS8T3ln.s 			page 71


 3261 111e 5F5F5341 		.ascii	"__SACCUM_IBIT__ 8\000"
 3261      4343554D 
 3261      5F494249 
 3261      545F5F20 
 3261      3800
 3262              	.LASF378:
 3263 1130 5F5F5349 		.ascii	"__SIZEOF_PTRDIFF_T__ 4\000"
 3263      5A454F46 
 3263      5F505452 
 3263      44494646 
 3263      5F545F5F 
 3264              	.LASF241:
 3265 1147 5F5F5346 		.ascii	"__SFRACT_MIN__ (-0.5HR-0.5HR)\000"
 3265      52414354 
 3265      5F4D494E 
 3265      5F5F2028 
 3265      2D302E35 
 3266              	.LASF350:
 3267 1165 5F5F5553 		.ascii	"__USA_IBIT__ 16\000"
 3267      415F4942 
 3267      49545F5F 
 3267      20313600 
 3268              	.LASF270:
 3269 1175 5F5F4C4C 		.ascii	"__LLFRACT_IBIT__ 0\000"
 3269      46524143 
 3269      545F4942 
 3269      49545F5F 
 3269      203000
 3270              	.LASF538:
 3271 1188 61707065 		.ascii	"appender_fn\000"
 3271      6E646572 
 3271      5F666E00 
 3272              	.LASF481:
 3273 1194 5F545F53 		.ascii	"_T_SIZE_ \000"
 3273      495A455F 
 3273      2000
 3274              	.LASF429:
 3275 119e 5F5F4152 		.ascii	"__ARM_ARCH_EXT_IDIV__ 1\000"
 3275      4D5F4152 
 3275      43485F45 
 3275      58545F49 
 3275      4449565F 
 3276              	.LASF470:
 3277 11b6 5F5F5054 		.ascii	"__PTRDIFF_T \000"
 3277      52444946 
 3277      465F5420 
 3277      00
 3278              	.LASF540:
 3279 11c3 7372632F 		.ascii	"src/pdantler/pdlogger.c\000"
 3279      7064616E 
 3279      746C6572 
 3279      2F70646C 
 3279      6F676765 
 3280              	.LASF523:
 3281 11db 5F5F676E 		.ascii	"__gnuc_va_list\000"
 3281      75635F76 
 3281      615F6C69 
ARM GAS  /tmp/ccS8T3ln.s 			page 72


 3281      737400
 3282              	.LASF21:
 3283 11ea 5F5F5349 		.ascii	"__SIZEOF_FLOAT__ 4\000"
 3283      5A454F46 
 3283      5F464C4F 
 3283      41545F5F 
 3283      203400
 3284              	.LASF287:
 3285 11fd 5F5F5553 		.ascii	"__USACCUM_MAX__ 0XFFFFP-8UHK\000"
 3285      41434355 
 3285      4D5F4D41 
 3285      585F5F20 
 3285      30584646 
 3286              	.LASF122:
 3287 121a 5F5F5549 		.ascii	"__UINT32_C(c) c ## UL\000"
 3287      4E543332 
 3287      5F432863 
 3287      29206320 
 3287      23232055 
 3288              	.LASF351:
 3289 1230 5F5F5544 		.ascii	"__UDA_FBIT__ 32\000"
 3289      415F4642 
 3289      49545F5F 
 3289      20333200 
 3290              	.LASF457:
 3291 1240 76615F63 		.ascii	"va_copy(d,s) __builtin_va_copy(d,s)\000"
 3291      6F707928 
 3291      642C7329 
 3291      205F5F62 
 3291      75696C74 
 3292              	.LASF407:
 3293 1264 5F5F5448 		.ascii	"__THUMBEL__ 1\000"
 3293      554D4245 
 3293      4C5F5F20 
 3293      3100
 3294              	.LASF344:
 3295 1272 5F5F4441 		.ascii	"__DA_IBIT__ 32\000"
 3295      5F494249 
 3295      545F5F20 
 3295      333200
 3296              	.LASF532:
 3297 1281 63686172 		.ascii	"character\000"
 3297      61637465 
 3297      7200
 3298              	.LASF300:
 3299 128b 5F5F4C41 		.ascii	"__LACCUM_IBIT__ 32\000"
 3299      4343554D 
 3299      5F494249 
 3299      545F5F20 
 3299      333200
 3300              	.LASF247:
 3301 129e 5F5F5553 		.ascii	"__USFRACT_MAX__ 0XFFP-8UHR\000"
 3301      46524143 
 3301      545F4D41 
 3301      585F5F20 
 3301      30584646 
 3302              	.LASF133:
ARM GAS  /tmp/ccS8T3ln.s 			page 73


 3303 12b9 5F5F5549 		.ascii	"__UINT_FAST8_MAX__ 0xffffffffU\000"
 3303      4E545F46 
 3303      41535438 
 3303      5F4D4158 
 3303      5F5F2030 
 3304              	.LASF27:
 3305 12d8 5F5F4F52 		.ascii	"__ORDER_LITTLE_ENDIAN__ 1234\000"
 3305      4445525F 
 3305      4C495454 
 3305      4C455F45 
 3305      4E444941 
 3306              	.LASF373:
 3307 12f5 5F5F4841 		.ascii	"__HAVE_SPECULATION_SAFE_VALUE 1\000"
 3307      56455F53 
 3307      50454355 
 3307      4C415449 
 3307      4F4E5F53 
 3308              	.LASF512:
 3309 1315 4E554C4C 		.ascii	"NULL\000"
 3309      00
 3310              	.LASF311:
 3311 131a 5F5F4C4C 		.ascii	"__LLACCUM_MIN__ (-0X1P31LLK-0X1P31LLK)\000"
 3311      41434355 
 3311      4D5F4D49 
 3311      4E5F5F20 
 3311      282D3058 
 3312              	.LASF446:
 3313 1341 50444C4F 		.ascii	"PDLOGGER_INCLUDE \000"
 3313      47474552 
 3313      5F494E43 
 3313      4C554445 
 3313      2000
 3314              	.LASF15:
 3315 1353 5F5F4F50 		.ascii	"__OPTIMIZE__ 1\000"
 3315      54494D49 
 3315      5A455F5F 
 3315      203100
 3316              	.LASF341:
 3317 1362 5F5F5341 		.ascii	"__SA_FBIT__ 15\000"
 3317      5F464249 
 3317      545F5F20 
 3317      313500
 3318              	.LASF212:
 3319 1371 5F5F464C 		.ascii	"__FLT64_MIN_10_EXP__ (-307)\000"
 3319      5436345F 
 3319      4D494E5F 
 3319      31305F45 
 3319      58505F5F 
 3320              	.LASF283:
 3321 138d 5F5F5341 		.ascii	"__SACCUM_EPSILON__ 0x1P-7HK\000"
 3321      4343554D 
 3321      5F455053 
 3321      494C4F4E 
 3321      5F5F2030 
 3322              	.LASF59:
 3323 13a9 5F5F494E 		.ascii	"__INT_FAST16_TYPE__ int\000"
 3323      545F4641 
ARM GAS  /tmp/ccS8T3ln.s 			page 74


 3323      53543136 
 3323      5F545950 
 3323      455F5F20 
 3324              	.LASF199:
 3325 13c1 5F5F464C 		.ascii	"__FLT32_DECIMAL_DIG__ 9\000"
 3325      5433325F 
 3325      44454349 
 3325      4D414C5F 
 3325      4449475F 
 3326              	.LASF47:
 3327 13d9 5F5F5549 		.ascii	"__UINT16_TYPE__ short unsigned int\000"
 3327      4E543136 
 3327      5F545950 
 3327      455F5F20 
 3327      73686F72 
 3328              	.LASF85:
 3329 13fc 5F5F5743 		.ascii	"__WCHAR_WIDTH__ 32\000"
 3329      4841525F 
 3329      57494454 
 3329      485F5F20 
 3329      333200
 3330              	.LASF357:
 3331 140f 5F5F474E 		.ascii	"__GNUC_STDC_INLINE__ 1\000"
 3331      55435F53 
 3331      5444435F 
 3331      494E4C49 
 3331      4E455F5F 
 3332              	.LASF332:
 3333 1426 5F5F5548 		.ascii	"__UHQ_IBIT__ 0\000"
 3333      515F4942 
 3333      49545F5F 
 3333      203000
 3334              	.LASF254:
 3335 1435 5F5F5546 		.ascii	"__UFRACT_FBIT__ 16\000"
 3335      52414354 
 3335      5F464249 
 3335      545F5F20 
 3335      313600
 3336              	.LASF393:
 3337 1448 5F5F4152 		.ascii	"__ARM_FEATURE_CLZ 1\000"
 3337      4D5F4645 
 3337      41545552 
 3337      455F434C 
 3337      5A203100 
 3338              	.LASF73:
 3339 145c 5F5F4C4F 		.ascii	"__LONG_LONG_MAX__ 0x7fffffffffffffffLL\000"
 3339      4E475F4C 
 3339      4F4E475F 
 3339      4D41585F 
 3339      5F203078 
 3340              	.LASF529:
 3341 1483 75736572 		.ascii	"userdata\000"
 3341      64617461 
 3341      00
 3342              	.LASF55:
 3343 148c 5F5F5549 		.ascii	"__UINT_LEAST16_TYPE__ short unsigned int\000"
 3343      4E545F4C 
ARM GAS  /tmp/ccS8T3ln.s 			page 75


 3343      45415354 
 3343      31365F54 
 3343      5950455F 
 3344              	.LASF151:
 3345 14b5 5F5F464C 		.ascii	"__FLT_MAX_10_EXP__ 38\000"
 3345      545F4D41 
 3345      585F3130 
 3345      5F455850 
 3345      5F5F2033 
 3346              	.LASF312:
 3347 14cb 5F5F4C4C 		.ascii	"__LLACCUM_MAX__ 0X7FFFFFFFFFFFFFFFP-31LLK\000"
 3347      41434355 
 3347      4D5F4D41 
 3347      585F5F20 
 3347      30583746 
 3348              	.LASF513:
 3349 14f5 4E554C4C 		.ascii	"NULL ((void *)0)\000"
 3349      20282876 
 3349      6F696420 
 3349      2A293029 
 3349      00
 3350              	.LASF313:
 3351 1506 5F5F4C4C 		.ascii	"__LLACCUM_EPSILON__ 0x1P-31LLK\000"
 3351      41434355 
 3351      4D5F4550 
 3351      53494C4F 
 3351      4E5F5F20 
 3352              	.LASF224:
 3353 1525 5F5F464C 		.ascii	"__FLT32X_MANT_DIG__ 53\000"
 3353      54333258 
 3353      5F4D414E 
 3353      545F4449 
 3353      475F5F20 
 3354              	.LASF432:
 3355 153c 5F5F4152 		.ascii	"__ARM_FEATURE_COPROC\000"
 3355      4D5F4645 
 3355      41545552 
 3355      455F434F 
 3355      50524F43 
 3356              	.LASF266:
 3357 1551 5F5F554C 		.ascii	"__ULFRACT_MIN__ 0.0ULR\000"
 3357      46524143 
 3357      545F4D49 
 3357      4E5F5F20 
 3357      302E3055 
 3358              	.LASF231:
 3359 1568 5F5F464C 		.ascii	"__FLT32X_MAX__ 1.7976931348623157e+308F32x\000"
 3359      54333258 
 3359      5F4D4158 
 3359      5F5F2031 
 3359      2E373937 
 3360              	.LASF278:
 3361 1593 5F5F554C 		.ascii	"__ULLFRACT_EPSILON__ 0x1P-64ULLR\000"
 3361      4C465241 
 3361      43545F45 
 3361      5053494C 
 3361      4F4E5F5F 
ARM GAS  /tmp/ccS8T3ln.s 			page 76


 3362              	.LASF215:
 3363 15b4 5F5F464C 		.ascii	"__FLT64_DECIMAL_DIG__ 17\000"
 3363      5436345F 
 3363      44454349 
 3363      4D414C5F 
 3363      4449475F 
 3364              	.LASF491:
 3365 15cd 5F474343 		.ascii	"_GCC_SIZE_T \000"
 3365      5F53495A 
 3365      455F5420 
 3365      00
 3366              	.LASF355:
 3367 15da 5F5F5245 		.ascii	"__REGISTER_PREFIX__ \000"
 3367      47495354 
 3367      45525F50 
 3367      52454649 
 3367      585F5F20 
 3368              	.LASF501:
 3369 15ef 5F574348 		.ascii	"_WCHAR_T_ \000"
 3369      41525F54 
 3369      5F2000
 3370              	.LASF195:
 3371 15fa 5F5F464C 		.ascii	"__FLT32_MIN_EXP__ (-125)\000"
 3371      5433325F 
 3371      4D494E5F 
 3371      4558505F 
 3371      5F20282D 
 3372              	.LASF531:
 3373 1613 70646C6F 		.ascii	"pdlogger_error\000"
 3373      67676572 
 3373      5F657272 
 3373      6F7200
 3374              	.LASF295:
 3375 1622 5F5F5541 		.ascii	"__UACCUM_IBIT__ 16\000"
 3375      4343554D 
 3375      5F494249 
 3375      545F5F20 
 3375      313600
 3376              	.LASF134:
 3377 1635 5F5F5549 		.ascii	"__UINT_FAST16_MAX__ 0xffffffffU\000"
 3377      4E545F46 
 3377      41535431 
 3377      365F4D41 
 3377      585F5F20 
 3378              	.LASF63:
 3379 1655 5F5F5549 		.ascii	"__UINT_FAST16_TYPE__ unsigned int\000"
 3379      4E545F46 
 3379      41535431 
 3379      365F5459 
 3379      50455F5F 
 3380              	.LASF197:
 3381 1677 5F5F464C 		.ascii	"__FLT32_MAX_EXP__ 128\000"
 3381      5433325F 
 3381      4D41585F 
 3381      4558505F 
 3381      5F203132 
 3382              	.LASF165:
ARM GAS  /tmp/ccS8T3ln.s 			page 77


 3383 168d 5F5F4442 		.ascii	"__DBL_MIN_10_EXP__ (-307)\000"
 3383      4C5F4D49 
 3383      4E5F3130 
 3383      5F455850 
 3383      5F5F2028 
 3384              	.LASF285:
 3385 16a7 5F5F5553 		.ascii	"__USACCUM_IBIT__ 8\000"
 3385      41434355 
 3385      4D5F4942 
 3385      49545F5F 
 3385      203800
 3386              	.LASF68:
 3387 16ba 5F5F4758 		.ascii	"__GXX_ABI_VERSION 1014\000"
 3387      585F4142 
 3387      495F5645 
 3387      5253494F 
 3387      4E203130 
 3388              	.LASF521:
 3389 16d1 76707269 		.ascii	"vprintf vprintf_\000"
 3389      6E746620 
 3389      76707269 
 3389      6E74665F 
 3389      00
 3390              	.LASF194:
 3391 16e2 5F5F464C 		.ascii	"__FLT32_DIG__ 6\000"
 3391      5433325F 
 3391      4449475F 
 3391      5F203600 
 3392              	.LASF221:
 3393 16f2 5F5F464C 		.ascii	"__FLT64_HAS_DENORM__ 1\000"
 3393      5436345F 
 3393      4841535F 
 3393      44454E4F 
 3393      524D5F5F 
 3394              	.LASF142:
 3395 1709 5F5F464C 		.ascii	"__FLT_EVAL_METHOD__ 0\000"
 3395      545F4556 
 3395      414C5F4D 
 3395      4554484F 
 3395      445F5F20 
 3396              	.LASF236:
 3397 171f 5F5F464C 		.ascii	"__FLT32X_HAS_DENORM__ 1\000"
 3397      54333258 
 3397      5F484153 
 3397      5F44454E 
 3397      4F524D5F 
 3398              	.LASF114:
 3399 1737 5F5F494E 		.ascii	"__INT_LEAST64_MAX__ 0x7fffffffffffffffLL\000"
 3399      545F4C45 
 3399      41535436 
 3399      345F4D41 
 3399      585F5F20 
 3400              	.LASF289:
 3401 1760 5F5F4143 		.ascii	"__ACCUM_FBIT__ 15\000"
 3401      43554D5F 
 3401      46424954 
 3401      5F5F2031 
ARM GAS  /tmp/ccS8T3ln.s 			page 78


 3401      3500
 3402              	.LASF522:
 3403 1772 6C6F675F 		.ascii	"log_appender_fn\000"
 3403      61707065 
 3403      6E646572 
 3403      5F666E00 
 3404              	.LASF305:
 3405 1782 5F5F554C 		.ascii	"__ULACCUM_IBIT__ 32\000"
 3405      41434355 
 3405      4D5F4942 
 3405      49545F5F 
 3405      20333200 
 3406              	.LASF478:
 3407 1796 5F5F5349 		.ascii	"__SIZE_T__ \000"
 3407      5A455F54 
 3407      5F5F2000 
 3408              	.LASF269:
 3409 17a2 5F5F4C4C 		.ascii	"__LLFRACT_FBIT__ 63\000"
 3409      46524143 
 3409      545F4642 
 3409      49545F5F 
 3409      20363300 
 3410              	.LASF107:
 3411 17b6 5F5F494E 		.ascii	"__INT_LEAST8_WIDTH__ 8\000"
 3411      545F4C45 
 3411      41535438 
 3411      5F574944 
 3411      54485F5F 
 3412              	.LASF349:
 3413 17cd 5F5F5553 		.ascii	"__USA_FBIT__ 16\000"
 3413      415F4642 
 3413      49545F5F 
 3413      20313600 
 3414              	.LASF101:
 3415 17dd 5F5F5549 		.ascii	"__UINT8_MAX__ 0xff\000"
 3415      4E54385F 
 3415      4D41585F 
 3415      5F203078 
 3415      666600
 3416              	.LASF102:
 3417 17f0 5F5F5549 		.ascii	"__UINT16_MAX__ 0xffff\000"
 3417      4E543136 
 3417      5F4D4158 
 3417      5F5F2030 
 3417      78666666 
 3418              	.LASF492:
 3419 1806 5F53495A 		.ascii	"_SIZET_ \000"
 3419      45545F20 
 3419      00
 3420              	.LASF294:
 3421 180f 5F5F5541 		.ascii	"__UACCUM_FBIT__ 16\000"
 3421      4343554D 
 3421      5F464249 
 3421      545F5F20 
 3421      313600
 3422              	.LASF473:
 3423 1822 5F5F5F69 		.ascii	"___int_ptrdiff_t_h \000"
ARM GAS  /tmp/ccS8T3ln.s 			page 79


 3423      6E745F70 
 3423      74726469 
 3423      66665F74 
 3423      5F682000 
 3424              	.LASF450:
 3425 1836 5F535444 		.ascii	"_STDARG_H \000"
 3425      4152475F 
 3425      482000
 3426              	.LASF93:
 3427 1841 5F5F494E 		.ascii	"__INTMAX_WIDTH__ 64\000"
 3427      544D4158 
 3427      5F574944 
 3427      54485F5F 
 3427      20363400 
 3428              	.LASF434:
 3429 1855 5F5F4152 		.ascii	"__ARM_FEATURE_CDE\000"
 3429      4D5F4645 
 3429      41545552 
 3429      455F4344 
 3429      4500
 3430              	.LASF259:
 3431 1867 5F5F4C46 		.ascii	"__LFRACT_FBIT__ 31\000"
 3431      52414354 
 3431      5F464249 
 3431      545F5F20 
 3431      333100
 3432              	.LASF51:
 3433 187a 5F5F494E 		.ascii	"__INT_LEAST16_TYPE__ short int\000"
 3433      545F4C45 
 3433      41535431 
 3433      365F5459 
 3433      50455F5F 
 3434              	.LASF223:
 3435 1899 5F5F464C 		.ascii	"__FLT64_HAS_QUIET_NAN__ 1\000"
 3435      5436345F 
 3435      4841535F 
 3435      51554945 
 3435      545F4E41 
 3436              	.LASF474:
 3437 18b3 5F474343 		.ascii	"_GCC_PTRDIFF_T \000"
 3437      5F505452 
 3437      44494646 
 3437      5F542000 
 3438              	.LASF511:
 3439 18c3 5F5F6E65 		.ascii	"__need_wchar_t\000"
 3439      65645F77 
 3439      63686172 
 3439      5F7400
 3440              	.LASF163:
 3441 18d2 5F5F4442 		.ascii	"__DBL_DIG__ 15\000"
 3441      4C5F4449 
 3441      475F5F20 
 3441      313500
 3442              	.LASF410:
 3443 18e1 5F5F4152 		.ascii	"__ARMEL__ 1\000"
 3443      4D454C5F 
 3443      5F203100 
ARM GAS  /tmp/ccS8T3ln.s 			page 80


 3444              	.LASF408:
 3445 18ed 5F5F4152 		.ascii	"__ARM_ARCH_ISA_THUMB\000"
 3445      4D5F4152 
 3445      43485F49 
 3445      53415F54 
 3445      48554D42 
 3446              	.LASF299:
 3447 1902 5F5F4C41 		.ascii	"__LACCUM_FBIT__ 31\000"
 3447      4343554D 
 3447      5F464249 
 3447      545F5F20 
 3447      333100
 3448              	.LASF155:
 3449 1915 5F5F464C 		.ascii	"__FLT_MIN__ 1.1754943508222875e-38F\000"
 3449      545F4D49 
 3449      4E5F5F20 
 3449      312E3137 
 3449      35343934 
 3450              	.LASF369:
 3451 1939 5F5F4743 		.ascii	"__GCC_ATOMIC_LONG_LOCK_FREE 2\000"
 3451      435F4154 
 3451      4F4D4943 
 3451      5F4C4F4E 
 3451      475F4C4F 
 3452              	.LASF225:
 3453 1957 5F5F464C 		.ascii	"__FLT32X_DIG__ 15\000"
 3453      54333258 
 3453      5F444947 
 3453      5F5F2031 
 3453      3500
 3454              	.LASF293:
 3455 1969 5F5F4143 		.ascii	"__ACCUM_EPSILON__ 0x1P-15K\000"
 3455      43554D5F 
 3455      45505349 
 3455      4C4F4E5F 
 3455      5F203078 
 3456              	.LASF335:
 3457 1984 5F5F5544 		.ascii	"__UDQ_FBIT__ 64\000"
 3457      515F4642 
 3457      49545F5F 
 3457      20363400 
 3458              	.LASF524:
 3459 1994 76615F6C 		.ascii	"va_list\000"
 3459      69737400 
 3460              	.LASF340:
 3461 199c 5F5F4841 		.ascii	"__HA_IBIT__ 8\000"
 3461      5F494249 
 3461      545F5F20 
 3461      3800
 3462              	.LASF409:
 3463 19aa 5F5F4152 		.ascii	"__ARM_ARCH_ISA_THUMB 2\000"
 3463      4D5F4152 
 3463      43485F49 
 3463      53415F54 
 3463      48554D42 
 3464              	.LASF337:
 3465 19c1 5F5F5554 		.ascii	"__UTQ_FBIT__ 128\000"
ARM GAS  /tmp/ccS8T3ln.s 			page 81


 3465      515F4642 
 3465      49545F5F 
 3465      20313238 
 3465      00
 3466              	.LASF500:
 3467 19d2 5F5F5743 		.ascii	"__WCHAR_T \000"
 3467      4841525F 
 3467      542000
 3468              	.LASF527:
 3469 19dd 6C6F6E67 		.ascii	"long long int\000"
 3469      206C6F6E 
 3469      6720696E 
 3469      7400
 3470              	.LASF25:
 3471 19eb 5F5F4348 		.ascii	"__CHAR_BIT__ 8\000"
 3471      41525F42 
 3471      49545F5F 
 3471      203800
 3472              	.LASF544:
 3473 19fa 4C6F6767 		.ascii	"Logger\000"
 3473      657200
 3474              	.LASF412:
 3475 1a01 5F5F4152 		.ascii	"__ARM_FP\000"
 3475      4D5F4650 
 3475      00
 3476              	.LASF138:
 3477 1a0a 5F5F494E 		.ascii	"__INTPTR_WIDTH__ 32\000"
 3477      54505452 
 3477      5F574944 
 3477      54485F5F 
 3477      20333200 
 3478              	.LASF54:
 3479 1a1e 5F5F5549 		.ascii	"__UINT_LEAST8_TYPE__ unsigned char\000"
 3479      4E545F4C 
 3479      45415354 
 3479      385F5459 
 3479      50455F5F 
 3480              	.LASF185:
 3481 1a41 5F5F4C44 		.ascii	"__LDBL_MAX__ 1.7976931348623157e+308L\000"
 3481      424C5F4D 
 3481      41585F5F 
 3481      20312E37 
 3481      39373639 
 3482              	.LASF16:
 3483 1a67 5F5F4649 		.ascii	"__FINITE_MATH_ONLY__ 0\000"
 3483      4E495445 
 3483      5F4D4154 
 3483      485F4F4E 
 3483      4C595F5F 
 3484              	.LASF35:
 3485 1a7e 5F5F5743 		.ascii	"__WCHAR_TYPE__ unsigned int\000"
 3485      4841525F 
 3485      54595045 
 3485      5F5F2075 
 3485      6E736967 
 3486              	.LASF400:
 3487 1a9a 5F5F6172 		.ascii	"__arm__ 1\000"
ARM GAS  /tmp/ccS8T3ln.s 			page 82


 3487      6D5F5F20 
 3487      3100
 3488              	.LASF177:
 3489 1aa4 5F5F4C44 		.ascii	"__LDBL_MANT_DIG__ 53\000"
 3489      424C5F4D 
 3489      414E545F 
 3489      4449475F 
 3489      5F203533 
 3490              	.LASF217:
 3491 1ab9 5F5F464C 		.ascii	"__FLT64_NORM_MAX__ 1.7976931348623157e+308F64\000"
 3491      5436345F 
 3491      4E4F524D 
 3491      5F4D4158 
 3491      5F5F2031 
 3492              	.LASF347:
 3493 1ae7 5F5F5548 		.ascii	"__UHA_FBIT__ 8\000"
 3493      415F4642 
 3493      49545F5F 
 3493      203800
 3494              	.LASF520:
 3495 1af6 76736E70 		.ascii	"vsnprintf vsnprintf_\000"
 3495      72696E74 
 3495      66207673 
 3495      6E707269 
 3495      6E74665F 
 3496              	.LASF404:
 3497 1b0b 5F5F4743 		.ascii	"__GCC_ASM_FLAG_OUTPUTS__ 1\000"
 3497      435F4153 
 3497      4D5F464C 
 3497      41475F4F 
 3497      55545055 
 3498              	.LASF464:
 3499 1b26 5F535444 		.ascii	"_STDDEF_H \000"
 3499      4445465F 
 3499      482000
 3500              	.LASF441:
 3501 1b31 5F5F454C 		.ascii	"__ELF__ 1\000"
 3501      465F5F20 
 3501      3100
 3502              	.LASF398:
 3503 1b3b 5F5F4152 		.ascii	"__ARM_ARCH_PROFILE\000"
 3503      4D5F4152 
 3503      43485F50 
 3503      524F4649 
 3503      4C4500
 3504              	.LASF401:
 3505 1b4e 5F5F4152 		.ascii	"__ARM_ARCH\000"
 3505      4D5F4152 
 3505      434800
 3506              	.LASF109:
 3507 1b59 5F5F494E 		.ascii	"__INT16_C(c) c\000"
 3507      5431365F 
 3507      43286329 
 3507      206300
 3508              	.LASF374:
 3509 1b68 5F5F4743 		.ascii	"__GCC_HAVE_DWARF2_CFI_ASM 1\000"
 3509      435F4841 
ARM GAS  /tmp/ccS8T3ln.s 			page 83


 3509      56455F44 
 3509      57415246 
 3509      325F4346 
 3510              	.LASF104:
 3511 1b84 5F5F5549 		.ascii	"__UINT64_MAX__ 0xffffffffffffffffULL\000"
 3511      4E543634 
 3511      5F4D4158 
 3511      5F5F2030 
 3511      78666666 
 3512              	.LASF302:
 3513 1ba9 5F5F4C41 		.ascii	"__LACCUM_MAX__ 0X7FFFFFFFFFFFFFFFP-31LK\000"
 3513      4343554D 
 3513      5F4D4158 
 3513      5F5F2030 
 3513      58374646 
 3514              	.LASF129:
 3515 1bd1 5F5F494E 		.ascii	"__INT_FAST32_MAX__ 0x7fffffff\000"
 3515      545F4641 
 3515      53543332 
 3515      5F4D4158 
 3515      5F5F2030 
 3516              	.LASF248:
 3517 1bef 5F5F5553 		.ascii	"__USFRACT_EPSILON__ 0x1P-8UHR\000"
 3517      46524143 
 3517      545F4550 
 3517      53494C4F 
 3517      4E5F5F20 
 3518              	.LASF11:
 3519 1c0d 5F5F4154 		.ascii	"__ATOMIC_ACQUIRE 2\000"
 3519      4F4D4943 
 3519      5F414351 
 3519      55495245 
 3519      203200
 3520              	.LASF433:
 3521 1c20 5F5F4152 		.ascii	"__ARM_FEATURE_COPROC 15\000"
 3521      4D5F4645 
 3521      41545552 
 3521      455F434F 
 3521      50524F43 
 3522              	.LASF0:
 3523 1c38 5F5F5354 		.ascii	"__STDC__ 1\000"
 3523      44435F5F 
 3523      203100
 3524              	.LASF545:
 3525 1c43 6D656D73 		.ascii	"memset\000"
 3525      657400
 3526              	.LASF536:
 3527 1c4a 70646C6F 		.ascii	"pdlogger_info\000"
 3527      67676572 
 3527      5F696E66 
 3527      6F00
 3528              	.LASF166:
 3529 1c58 5F5F4442 		.ascii	"__DBL_MAX_EXP__ 1024\000"
 3529      4C5F4D41 
 3529      585F4558 
 3529      505F5F20 
 3529      31303234 
ARM GAS  /tmp/ccS8T3ln.s 			page 84


 3530              	.LASF493:
 3531 1c6d 5F5F7369 		.ascii	"__size_t \000"
 3531      7A655F74 
 3531      2000
 3532              	.LASF14:
 3533 1c77 5F5F4154 		.ascii	"__ATOMIC_CONSUME 1\000"
 3533      4F4D4943 
 3533      5F434F4E 
 3533      53554D45 
 3533      203100
 3534              	.LASF467:
 3535 1c8a 5F505452 		.ascii	"_PTRDIFF_T \000"
 3535      44494646 
 3535      5F542000 
 3536              	.LASF130:
 3537 1c96 5F5F494E 		.ascii	"__INT_FAST32_WIDTH__ 32\000"
 3537      545F4641 
 3537      53543332 
 3537      5F574944 
 3537      54485F5F 
 3538              	.LASF439:
 3539 1cae 5F5F4152 		.ascii	"__ARM_BF16_FORMAT_ALTERNATIVE\000"
 3539      4D5F4246 
 3539      31365F46 
 3539      4F524D41 
 3539      545F414C 
 3540              	.LASF36:
 3541 1ccc 5F5F5749 		.ascii	"__WINT_TYPE__ unsigned int\000"
 3541      4E545F54 
 3541      5950455F 
 3541      5F20756E 
 3541      7369676E 
 3542              	.LASF458:
 3543 1ce7 5F5F7661 		.ascii	"__va_copy(d,s) __builtin_va_copy(d,s)\000"
 3543      5F636F70 
 3543      7928642C 
 3543      7329205F 
 3543      5F627569 
 3544              	.LASF72:
 3545 1d0d 5F5F4C4F 		.ascii	"__LONG_MAX__ 0x7fffffffL\000"
 3545      4E475F4D 
 3545      41585F5F 
 3545      20307837 
 3545      66666666 
 3546              	.LASF98:
 3547 1d26 5F5F494E 		.ascii	"__INT16_MAX__ 0x7fff\000"
 3547      5431365F 
 3547      4D41585F 
 3547      5F203078 
 3547      37666666 
 3548              	.LASF264:
 3549 1d3b 5F5F554C 		.ascii	"__ULFRACT_FBIT__ 32\000"
 3549      46524143 
 3549      545F4642 
 3549      49545F5F 
 3549      20333200 
 3550              	.LASF80:
ARM GAS  /tmp/ccS8T3ln.s 			page 85


 3551 1d4f 5F5F5343 		.ascii	"__SCHAR_WIDTH__ 8\000"
 3551      4841525F 
 3551      57494454 
 3551      485F5F20 
 3551      3800
 3552              	.LASF541:
 3553 1d61 2F686F6D 		.ascii	"/home/mchristensen/projects/ggj2024\000"
 3553      652F6D63 
 3553      68726973 
 3553      74656E73 
 3553      656E2F70 
 3554              	.LASF22:
 3555 1d85 5F5F5349 		.ascii	"__SIZEOF_DOUBLE__ 8\000"
 3555      5A454F46 
 3555      5F444F55 
 3555      424C455F 
 3555      5F203800 
 3556              	.LASF7:
 3557 1d99 5F5F474E 		.ascii	"__GNUC_PATCHLEVEL__ 1\000"
 3557      55435F50 
 3557      41544348 
 3557      4C455645 
 3557      4C5F5F20 
 3558              	.LASF440:
 3559 1daf 5F5F4758 		.ascii	"__GXX_TYPEINFO_EQUALITY_INLINE 0\000"
 3559      585F5459 
 3559      5045494E 
 3559      464F5F45 
 3559      5155414C 
 3560              	.LASF504:
 3561 1dd0 5F574348 		.ascii	"_WCHAR_T_DEFINED \000"
 3561      41525F54 
 3561      5F444546 
 3561      494E4544 
 3561      2000
 3562              	.LASF252:
 3563 1de2 5F5F4652 		.ascii	"__FRACT_MAX__ 0X7FFFP-15R\000"
 3563      4143545F 
 3563      4D41585F 
 3563      5F203058 
 3563      37464646 
 3564              	.LASF45:
 3565 1dfc 5F5F494E 		.ascii	"__INT64_TYPE__ long long int\000"
 3565      5436345F 
 3565      54595045 
 3565      5F5F206C 
 3565      6F6E6720 
 3566              	.LASF304:
 3567 1e19 5F5F554C 		.ascii	"__ULACCUM_FBIT__ 32\000"
 3567      41434355 
 3567      4D5F4642 
 3567      49545F5F 
 3567      20333200 
 3568              	.LASF256:
 3569 1e2d 5F5F5546 		.ascii	"__UFRACT_MIN__ 0.0UR\000"
 3569      52414354 
 3569      5F4D494E 
ARM GAS  /tmp/ccS8T3ln.s 			page 86


 3569      5F5F2030 
 3569      2E305552 
 3570              	.LASF423:
 3571 1e42 5F5F4152 		.ascii	"__ARM_NEON_FP\000"
 3571      4D5F4E45 
 3571      4F4E5F46 
 3571      5000
 3572              	.LASF2:
 3573 1e50 5F5F5354 		.ascii	"__STDC_UTF_16__ 1\000"
 3573      44435F55 
 3573      54465F31 
 3573      365F5F20 
 3573      3100
 3574              	.LASF514:
 3575 1e62 5F5F6E65 		.ascii	"__need_NULL\000"
 3575      65645F4E 
 3575      554C4C00 
 3576              	.LASF250:
 3577 1e6e 5F5F4652 		.ascii	"__FRACT_IBIT__ 0\000"
 3577      4143545F 
 3577      49424954 
 3577      5F5F2030 
 3577      00
 3578              	.LASF187:
 3579 1e7f 5F5F4C44 		.ascii	"__LDBL_MIN__ 2.2250738585072014e-308L\000"
 3579      424C5F4D 
 3579      494E5F5F 
 3579      20322E32 
 3579      32353037 
 3580              	.LASF472:
 3581 1ea5 5F425344 		.ascii	"_BSD_PTRDIFF_T_ \000"
 3581      5F505452 
 3581      44494646 
 3581      5F545F20 
 3581      00
 3582              	.LASF191:
 3583 1eb6 5F5F4C44 		.ascii	"__LDBL_HAS_INFINITY__ 1\000"
 3583      424C5F48 
 3583      41535F49 
 3583      4E46494E 
 3583      4954595F 
 3584              	.LASF141:
 3585 1ece 5F5F4743 		.ascii	"__GCC_IEC_559_COMPLEX 0\000"
 3585      435F4945 
 3585      435F3535 
 3585      395F434F 
 3585      4D504C45 
 3586              	.LASF103:
 3587 1ee6 5F5F5549 		.ascii	"__UINT32_MAX__ 0xffffffffUL\000"
 3587      4E543332 
 3587      5F4D4158 
 3587      5F5F2030 
 3587      78666666 
 3588              	.LASF179:
 3589 1f02 5F5F4C44 		.ascii	"__LDBL_MIN_EXP__ (-1021)\000"
 3589      424C5F4D 
 3589      494E5F45 
ARM GAS  /tmp/ccS8T3ln.s 			page 87


 3589      58505F5F 
 3589      20282D31 
 3590              	.LASF274:
 3591 1f1b 5F5F554C 		.ascii	"__ULLFRACT_FBIT__ 64\000"
 3591      4C465241 
 3591      43545F46 
 3591      4249545F 
 3591      5F203634 
 3592              	.LASF376:
 3593 1f30 5F5F5349 		.ascii	"__SIZEOF_WCHAR_T__ 4\000"
 3593      5A454F46 
 3593      5F574348 
 3593      41525F54 
 3593      5F5F2034 
 3594              	.LASF530:
 3595 1f45 5F707574 		.ascii	"_putchar\000"
 3595      63686172 
 3595      00
 3596              	.LASF31:
 3597 1f4e 5F5F464C 		.ascii	"__FLOAT_WORD_ORDER__ __ORDER_LITTLE_ENDIAN__\000"
 3597      4F41545F 
 3597      574F5244 
 3597      5F4F5244 
 3597      45525F5F 
 3598              	.LASF292:
 3599 1f7b 5F5F4143 		.ascii	"__ACCUM_MAX__ 0X7FFFFFFFP-15K\000"
 3599      43554D5F 
 3599      4D41585F 
 3599      5F203058 
 3599      37464646 
 3600              	.LASF88:
 3601 1f99 5F5F5349 		.ascii	"__SIZE_WIDTH__ 32\000"
 3601      5A455F57 
 3601      49445448 
 3601      5F5F2033 
 3601      3200
 3602              	.LASF389:
 3603 1fab 5F5F4152 		.ascii	"__ARM_FEATURE_MVE\000"
 3603      4D5F4645 
 3603      41545552 
 3603      455F4D56 
 3603      4500
 3604              	.LASF494:
 3605 1fbd 5F5F6E65 		.ascii	"__need_size_t\000"
 3605      65645F73 
 3605      697A655F 
 3605      7400
 3606              	.LASF95:
 3607 1fcb 5F5F5349 		.ascii	"__SIG_ATOMIC_MIN__ (-__SIG_ATOMIC_MAX__ - 1)\000"
 3607      475F4154 
 3607      4F4D4943 
 3607      5F4D494E 
 3607      5F5F2028 
 3608              	.LASF273:
 3609 1ff8 5F5F4C4C 		.ascii	"__LLFRACT_EPSILON__ 0x1P-63LLR\000"
 3609      46524143 
 3609      545F4550 
ARM GAS  /tmp/ccS8T3ln.s 			page 88


 3609      53494C4F 
 3609      4E5F5F20 
 3610              	.LASF452:
 3611 2017 5F5F6E65 		.ascii	"__need___va_list\000"
 3611      65645F5F 
 3611      5F76615F 
 3611      6C697374 
 3611      00
 3612              	.LASF83:
 3613 2028 5F5F4C4F 		.ascii	"__LONG_WIDTH__ 32\000"
 3613      4E475F57 
 3613      49445448 
 3613      5F5F2033 
 3613      3200
 3614              	.LASF239:
 3615 203a 5F5F5346 		.ascii	"__SFRACT_FBIT__ 7\000"
 3615      52414354 
 3615      5F464249 
 3615      545F5F20 
 3615      3700
 3616              	.LASF40:
 3617 204c 5F5F4348 		.ascii	"__CHAR32_TYPE__ long unsigned int\000"
 3617      41523332 
 3617      5F545950 
 3617      455F5F20 
 3617      6C6F6E67 
 3618              	.LASF240:
 3619 206e 5F5F5346 		.ascii	"__SFRACT_IBIT__ 0\000"
 3619      52414354 
 3619      5F494249 
 3619      545F5F20 
 3619      3000
 3620              	.LASF482:
 3621 2080 5F545F53 		.ascii	"_T_SIZE \000"
 3621      495A4520 
 3621      00
 3622              	.LASF528:
 3623 2089 6C6F6E67 		.ascii	"long double\000"
 3623      20646F75 
 3623      626C6500 
 3624              	.LASF322:
 3625 2095 5F5F4851 		.ascii	"__HQ_IBIT__ 0\000"
 3625      5F494249 
 3625      545F5F20 
 3625      3000
 3626              	.LASF356:
 3627 20a3 5F5F5553 		.ascii	"__USER_LABEL_PREFIX__ \000"
 3627      45525F4C 
 3627      4142454C 
 3627      5F505245 
 3627      4649585F 
 3628              	.LASF56:
 3629 20ba 5F5F5549 		.ascii	"__UINT_LEAST32_TYPE__ long unsigned int\000"
 3629      4E545F4C 
 3629      45415354 
 3629      33325F54 
 3629      5950455F 
ARM GAS  /tmp/ccS8T3ln.s 			page 89


 3630              	.LASF444:
 3631 20e2 54415247 		.ascii	"TARGET_PLAYDATE 1\000"
 3631      45545F50 
 3631      4C415944 
 3631      41544520 
 3631      3100
 3632              	.LASF325:
 3633 20f4 5F5F4451 		.ascii	"__DQ_FBIT__ 63\000"
 3633      5F464249 
 3633      545F5F20 
 3633      363300
 3634              	.LASF348:
 3635 2103 5F5F5548 		.ascii	"__UHA_IBIT__ 8\000"
 3635      415F4942 
 3635      49545F5F 
 3635      203800
 3636              	.LASF506:
 3637 2112 5F5F5F69 		.ascii	"___int_wchar_t_h \000"
 3637      6E745F77 
 3637      63686172 
 3637      5F745F68 
 3637      2000
 3638              	.LASF392:
 3639 2124 5F5F4152 		.ascii	"__ARM_FEATURE_LDREX 7\000"
 3639      4D5F4645 
 3639      41545552 
 3639      455F4C44 
 3639      52455820 
 3640              	.LASF96:
 3641 213a 5F5F5349 		.ascii	"__SIG_ATOMIC_WIDTH__ 32\000"
 3641      475F4154 
 3641      4F4D4943 
 3641      5F574944 
 3641      54485F5F 
 3642              	.LASF438:
 3643 2152 5F5F4152 		.ascii	"__ARM_FEATURE_BF16_VECTOR_ARITHMETIC\000"
 3643      4D5F4645 
 3643      41545552 
 3643      455F4246 
 3643      31365F56 
 3644              	.LASF70:
 3645 2177 5F5F5348 		.ascii	"__SHRT_MAX__ 0x7fff\000"
 3645      52545F4D 
 3645      41585F5F 
 3645      20307837 
 3645      66666600 
 3646              	.LASF366:
 3647 218b 5F5F4743 		.ascii	"__GCC_ATOMIC_WCHAR_T_LOCK_FREE 2\000"
 3647      435F4154 
 3647      4F4D4943 
 3647      5F574348 
 3647      41525F54 
 3648              	.LASF416:
 3649 21ac 5F5F4152 		.ascii	"__ARM_FP16_ARGS\000"
 3649      4D5F4650 
 3649      31365F41 
 3649      52475300 
ARM GAS  /tmp/ccS8T3ln.s 			page 90


 3650              	.LASF29:
 3651 21bc 5F5F4F52 		.ascii	"__ORDER_PDP_ENDIAN__ 3412\000"
 3651      4445525F 
 3651      5044505F 
 3651      454E4449 
 3651      414E5F5F 
 3652              	.LASF324:
 3653 21d6 5F5F5351 		.ascii	"__SQ_IBIT__ 0\000"
 3653      5F494249 
 3653      545F5F20 
 3653      3000
 3654              	.LASF201:
 3655 21e4 5F5F464C 		.ascii	"__FLT32_NORM_MAX__ 3.4028234663852886e+38F32\000"
 3655      5433325F 
 3655      4E4F524D 
 3655      5F4D4158 
 3655      5F5F2033 
 3656              	.LASF152:
 3657 2211 5F5F464C 		.ascii	"__FLT_DECIMAL_DIG__ 9\000"
 3657      545F4445 
 3657      43494D41 
 3657      4C5F4449 
 3657      475F5F20 
 3658              	.LASF99:
 3659 2227 5F5F494E 		.ascii	"__INT32_MAX__ 0x7fffffffL\000"
 3659      5433325F 
 3659      4D41585F 
 3659      5F203078 
 3659      37666666 
 3660              	.LASF86:
 3661 2241 5F5F5749 		.ascii	"__WINT_WIDTH__ 32\000"
 3661      4E545F57 
 3661      49445448 
 3661      5F5F2033 
 3661      3200
 3662              	.LASF453:
 3663 2253 5F5F474E 		.ascii	"__GNUC_VA_LIST \000"
 3663      55435F56 
 3663      415F4C49 
 3663      53542000 
 3664              	.LASF486:
 3665 2263 5F53495A 		.ascii	"_SIZE_T_DEFINED_ \000"
 3665      455F545F 
 3665      44454649 
 3665      4E45445F 
 3665      2000
 3666              	.LASF329:
 3667 2275 5F5F5551 		.ascii	"__UQQ_FBIT__ 8\000"
 3667      515F4642 
 3667      49545F5F 
 3667      203800
 3668              	.LASF334:
 3669 2284 5F5F5553 		.ascii	"__USQ_IBIT__ 0\000"
 3669      515F4942 
 3669      49545F5F 
 3669      203000
 3670              	.LASF153:
ARM GAS  /tmp/ccS8T3ln.s 			page 91


 3671 2293 5F5F464C 		.ascii	"__FLT_MAX__ 3.4028234663852886e+38F\000"
 3671      545F4D41 
 3671      585F5F20 
 3671      332E3430 
 3671      32383233 
 3672              	.LASF258:
 3673 22b7 5F5F5546 		.ascii	"__UFRACT_EPSILON__ 0x1P-16UR\000"
 3673      52414354 
 3673      5F455053 
 3673      494C4F4E 
 3673      5F5F2030 
 3674              	.LASF303:
 3675 22d4 5F5F4C41 		.ascii	"__LACCUM_EPSILON__ 0x1P-31LK\000"
 3675      4343554D 
 3675      5F455053 
 3675      494C4F4E 
 3675      5F5F2030 
 3676              	.LASF116:
 3677 22f1 5F5F494E 		.ascii	"__INT_LEAST64_WIDTH__ 64\000"
 3677      545F4C45 
 3677      41535436 
 3677      345F5749 
 3677      4454485F 
 3678              	.LASF44:
 3679 230a 5F5F494E 		.ascii	"__INT32_TYPE__ long int\000"
 3679      5433325F 
 3679      54595045 
 3679      5F5F206C 
 3679      6F6E6720 
 3680              	.LASF227:
 3681 2322 5F5F464C 		.ascii	"__FLT32X_MIN_10_EXP__ (-307)\000"
 3681      54333258 
 3681      5F4D494E 
 3681      5F31305F 
 3681      4558505F 
 3682              	.LASF437:
 3683 233f 5F5F4152 		.ascii	"__ARM_FEATURE_BF16_SCALAR_ARITHMETIC\000"
 3683      4D5F4645 
 3683      41545552 
 3683      455F4246 
 3683      31365F53 
 3684              	.LASF64:
 3685 2364 5F5F5549 		.ascii	"__UINT_FAST32_TYPE__ unsigned int\000"
 3685      4E545F46 
 3685      41535433 
 3685      325F5459 
 3685      50455F5F 
 3686              	.LASF430:
 3687 2386 5F5F4152 		.ascii	"__ARM_FEATURE_IDIV 1\000"
 3687      4D5F4645 
 3687      41545552 
 3687      455F4944 
 3687      49562031 
 3688              	.LASF181:
 3689 239b 5F5F4C44 		.ascii	"__LDBL_MAX_EXP__ 1024\000"
 3689      424C5F4D 
 3689      41585F45 
ARM GAS  /tmp/ccS8T3ln.s 			page 92


 3689      58505F5F 
 3689      20313032 
 3690              	.LASF323:
 3691 23b1 5F5F5351 		.ascii	"__SQ_FBIT__ 31\000"
 3691      5F464249 
 3691      545F5F20 
 3691      333100
 3692              	.LASF454:
 3693 23c0 76615F73 		.ascii	"va_start(v,l) __builtin_va_start(v,l)\000"
 3693      74617274 
 3693      28762C6C 
 3693      29205F5F 
 3693      6275696C 
 3694              	.LASF261:
 3695 23e6 5F5F4C46 		.ascii	"__LFRACT_MIN__ (-0.5LR-0.5LR)\000"
 3695      52414354 
 3695      5F4D494E 
 3695      5F5F2028 
 3695      2D302E35 
 3696              	.LASF75:
 3697 2404 5F5F5743 		.ascii	"__WCHAR_MIN__ 0U\000"
 3697      4841525F 
 3697      4D494E5F 
 3697      5F203055 
 3697      00
 3698              	.LASF216:
 3699 2415 5F5F464C 		.ascii	"__FLT64_MAX__ 1.7976931348623157e+308F64\000"
 3699      5436345F 
 3699      4D41585F 
 3699      5F20312E 
 3699      37393736 
 3700              	.LASF121:
 3701 243e 5F5F5549 		.ascii	"__UINT_LEAST32_MAX__ 0xffffffffUL\000"
 3701      4E545F4C 
 3701      45415354 
 3701      33325F4D 
 3701      41585F5F 
 3702              	.LASF489:
 3703 2460 5F53495A 		.ascii	"_SIZE_T_DECLARED \000"
 3703      455F545F 
 3703      4445434C 
 3703      41524544 
 3703      2000
 3704              	.LASF405:
 3705 2472 5F5F7468 		.ascii	"__thumb__ 1\000"
 3705      756D625F 
 3705      5F203100 
 3706              	.LASF192:
 3707 247e 5F5F4C44 		.ascii	"__LDBL_HAS_QUIET_NAN__ 1\000"
 3707      424C5F48 
 3707      41535F51 
 3707      55494554 
 3707      5F4E414E 
 3708              	.LASF42:
 3709 2497 5F5F494E 		.ascii	"__INT8_TYPE__ signed char\000"
 3709      54385F54 
 3709      5950455F 
ARM GAS  /tmp/ccS8T3ln.s 			page 93


 3709      5F207369 
 3709      676E6564 
 3710              	.LASF76:
 3711 24b1 5F5F5749 		.ascii	"__WINT_MAX__ 0xffffffffU\000"
 3711      4E545F4D 
 3711      41585F5F 
 3711      20307866 
 3711      66666666 
 3712              	.LASF184:
 3713 24ca 5F5F4C44 		.ascii	"__LDBL_DECIMAL_DIG__ 17\000"
 3713      424C5F44 
 3713      4543494D 
 3713      414C5F44 
 3713      49475F5F 
 3714              	.LASF327:
 3715 24e2 5F5F5451 		.ascii	"__TQ_FBIT__ 127\000"
 3715      5F464249 
 3715      545F5F20 
 3715      31323700 
 3716              	.LASF331:
 3717 24f2 5F5F5548 		.ascii	"__UHQ_FBIT__ 16\000"
 3717      515F4642 
 3717      49545F5F 
 3717      20313600 
 3718              	.LASF136:
 3719 2502 5F5F5549 		.ascii	"__UINT_FAST64_MAX__ 0xffffffffffffffffULL\000"
 3719      4E545F46 
 3719      41535436 
 3719      345F4D41 
 3719      585F5F20 
 3720              	.LASF135:
 3721 252c 5F5F5549 		.ascii	"__UINT_FAST32_MAX__ 0xffffffffU\000"
 3721      4E545F46 
 3721      41535433 
 3721      325F4D41 
 3721      585F5F20 
 3722              	.LASF244:
 3723 254c 5F5F5553 		.ascii	"__USFRACT_FBIT__ 8\000"
 3723      46524143 
 3723      545F4642 
 3723      49545F5F 
 3723      203800
 3724              	.LASF115:
 3725 255f 5F5F494E 		.ascii	"__INT64_C(c) c ## LL\000"
 3725      5436345F 
 3725      43286329 
 3725      20632023 
 3725      23204C4C 
 3726              	.LASF321:
 3727 2574 5F5F4851 		.ascii	"__HQ_FBIT__ 15\000"
 3727      5F464249 
 3727      545F5F20 
 3727      313500
 3728              	.LASF448:
 3729 2583 4C4F475F 		.ascii	"LOG_BUFFER_PREFIX_SIZE 8\000"
 3729      42554646 
 3729      45525F50 
ARM GAS  /tmp/ccS8T3ln.s 			page 94


 3729      52454649 
 3729      585F5349 
 3730              	.LASF395:
 3731 259c 5F5F4152 		.ascii	"__ARM_FEATURE_SIMD32 1\000"
 3731      4D5F4645 
 3731      41545552 
 3731      455F5349 
 3731      4D443332 
 3732              	.LASF74:
 3733 25b3 5F5F5743 		.ascii	"__WCHAR_MAX__ 0xffffffffU\000"
 3733      4841525F 
 3733      4D41585F 
 3733      5F203078 
 3733      66666666 
 3734              	.LASF19:
 3735 25cd 5F5F5349 		.ascii	"__SIZEOF_LONG_LONG__ 8\000"
 3735      5A454F46 
 3735      5F4C4F4E 
 3735      475F4C4F 
 3735      4E475F5F 
 3736              	.LASF46:
 3737 25e4 5F5F5549 		.ascii	"__UINT8_TYPE__ unsigned char\000"
 3737      4E54385F 
 3737      54595045 
 3737      5F5F2075 
 3737      6E736967 
 3738              	.LASF81:
 3739 2601 5F5F5348 		.ascii	"__SHRT_WIDTH__ 16\000"
 3739      52545F57 
 3739      49445448 
 3739      5F5F2031 
 3739      3600
 3740              	.LASF455:
 3741 2613 76615F65 		.ascii	"va_end(v) __builtin_va_end(v)\000"
 3741      6E642876 
 3741      29205F5F 
 3741      6275696C 
 3741      74696E5F 
 3742              	.LASF460:
 3743 2631 5F56415F 		.ascii	"_VA_LIST \000"
 3743      4C495354 
 3743      2000
 3744              	.LASF156:
 3745 263b 5F5F464C 		.ascii	"__FLT_EPSILON__ 1.1920928955078125e-7F\000"
 3745      545F4550 
 3745      53494C4F 
 3745      4E5F5F20 
 3745      312E3139 
 3746              	.LASF53:
 3747 2662 5F5F494E 		.ascii	"__INT_LEAST64_TYPE__ long long int\000"
 3747      545F4C45 
 3747      41535436 
 3747      345F5459 
 3747      50455F5F 
 3748              	.LASF127:
 3749 2685 5F5F494E 		.ascii	"__INT_FAST16_MAX__ 0x7fffffff\000"
 3749      545F4641 
ARM GAS  /tmp/ccS8T3ln.s 			page 95


 3749      53543136 
 3749      5F4D4158 
 3749      5F5F2030 
 3750              	.LASF48:
 3751 26a3 5F5F5549 		.ascii	"__UINT32_TYPE__ long unsigned int\000"
 3751      4E543332 
 3751      5F545950 
 3751      455F5F20 
 3751      6C6F6E67 
 3752              	.LASF180:
 3753 26c5 5F5F4C44 		.ascii	"__LDBL_MIN_10_EXP__ (-307)\000"
 3753      424C5F4D 
 3753      494E5F31 
 3753      305F4558 
 3753      505F5F20 
 3754              	.LASF32:
 3755 26e0 5F5F5349 		.ascii	"__SIZEOF_POINTER__ 4\000"
 3755      5A454F46 
 3755      5F504F49 
 3755      4E544552 
 3755      5F5F2034 
 3756              	.LASF297:
 3757 26f5 5F5F5541 		.ascii	"__UACCUM_MAX__ 0XFFFFFFFFP-16UK\000"
 3757      4343554D 
 3757      5F4D4158 
 3757      5F5F2030 
 3757      58464646 
 3758              	.LASF411:
 3759 2715 5F5F5646 		.ascii	"__VFP_FP__ 1\000"
 3759      505F4650 
 3759      5F5F2031 
 3759      00
 3760              	.LASF267:
 3761 2722 5F5F554C 		.ascii	"__ULFRACT_MAX__ 0XFFFFFFFFP-32ULR\000"
 3761      46524143 
 3761      545F4D41 
 3761      585F5F20 
 3761      30584646 
 3762              	.LASF339:
 3763 2744 5F5F4841 		.ascii	"__HA_FBIT__ 7\000"
 3763      5F464249 
 3763      545F5F20 
 3763      3700
 3764              	.LASF546:
 3765 2752 5F5F6275 		.ascii	"__builtin_memset\000"
 3765      696C7469 
 3765      6E5F6D65 
 3765      6D736574 
 3765      00
 3766              	.LASF204:
 3767 2763 5F5F464C 		.ascii	"__FLT32_DENORM_MIN__ 1.4012984643248171e-45F32\000"
 3767      5433325F 
 3767      44454E4F 
 3767      524D5F4D 
 3767      494E5F5F 
 3768              	.LASF146:
 3769 2792 5F5F464C 		.ascii	"__FLT_MANT_DIG__ 24\000"
ARM GAS  /tmp/ccS8T3ln.s 			page 96


 3769      545F4D41 
 3769      4E545F44 
 3769      49475F5F 
 3769      20323400 
 3770              	.LASF281:
 3771 27a6 5F5F5341 		.ascii	"__SACCUM_MIN__ (-0X1P7HK-0X1P7HK)\000"
 3771      4343554D 
 3771      5F4D494E 
 3771      5F5F2028 
 3771      2D305831 
 3772              	.LASF82:
 3773 27c8 5F5F494E 		.ascii	"__INT_WIDTH__ 32\000"
 3773      545F5749 
 3773      4454485F 
 3773      5F203332 
 3773      00
 3774              	.LASF372:
 3775 27d9 5F5F4743 		.ascii	"__GCC_ATOMIC_POINTER_LOCK_FREE 2\000"
 3775      435F4154 
 3775      4F4D4943 
 3775      5F504F49 
 3775      4E544552 
 3776              	.LASF124:
 3777 27fa 5F5F5549 		.ascii	"__UINT64_C(c) c ## ULL\000"
 3777      4E543634 
 3777      5F432863 
 3777      29206320 
 3777      23232055 
 3778              	.LASF495:
 3779 2811 5F5F7763 		.ascii	"__wchar_t__ \000"
 3779      6861725F 
 3779      745F5F20 
 3779      00
 3780              	.LASF542:
 3781 281e 5F5F7661 		.ascii	"__va_list\000"
 3781      5F6C6973 
 3781      7400
 3782              	.LASF243:
 3783 2828 5F5F5346 		.ascii	"__SFRACT_EPSILON__ 0x1P-7HR\000"
 3783      52414354 
 3783      5F455053 
 3783      494C4F4E 
 3783      5F5F2030 
 3784              	.LASF330:
 3785 2844 5F5F5551 		.ascii	"__UQQ_IBIT__ 0\000"
 3785      515F4942 
 3785      49545F5F 
 3785      203000
 3786              	.LASF333:
 3787 2853 5F5F5553 		.ascii	"__USQ_FBIT__ 32\000"
 3787      515F4642 
 3787      49545F5F 
 3787      20333200 
 3788              	.LASF1:
 3789 2863 5F5F5354 		.ascii	"__STDC_VERSION__ 201710L\000"
 3789      44435F56 
 3789      45525349 
ARM GAS  /tmp/ccS8T3ln.s 			page 97


 3789      4F4E5F5F 
 3789      20323031 
 3790              	.LASF365:
 3791 287c 5F5F4743 		.ascii	"__GCC_ATOMIC_CHAR32_T_LOCK_FREE 2\000"
 3791      435F4154 
 3791      4F4D4943 
 3791      5F434841 
 3791      5233325F 
 3792              	.LASF497:
 3793 289e 5F574348 		.ascii	"_WCHAR_T \000"
 3793      41525F54 
 3793      2000
 3794              	.LASF490:
 3795 28a8 5F5F5F69 		.ascii	"___int_size_t_h \000"
 3795      6E745F73 
 3795      697A655F 
 3795      745F6820 
 3795      00
 3796              	.LASF253:
 3797 28b9 5F5F4652 		.ascii	"__FRACT_EPSILON__ 0x1P-15R\000"
 3797      4143545F 
 3797      45505349 
 3797      4C4F4E5F 
 3797      5F203078 
 3798              	.LASF4:
 3799 28d4 5F5F5354 		.ascii	"__STDC_HOSTED__ 1\000"
 3799      44435F48 
 3799      4F535445 
 3799      445F5F20 
 3799      3100
 3800              	.LASF137:
 3801 28e6 5F5F494E 		.ascii	"__INTPTR_MAX__ 0x7fffffff\000"
 3801      54505452 
 3801      5F4D4158 
 3801      5F5F2030 
 3801      78376666 
 3802              	.LASF499:
 3803 2900 5F545F57 		.ascii	"_T_WCHAR \000"
 3803      43484152 
 3803      2000
 3804              	.LASF375:
 3805 290a 5F5F5052 		.ascii	"__PRAGMA_REDEFINE_EXTNAME 1\000"
 3805      41474D41 
 3805      5F524544 
 3805      4546494E 
 3805      455F4558 
 3806              	.LASF219:
 3807 2926 5F5F464C 		.ascii	"__FLT64_EPSILON__ 2.2204460492503131e-16F64\000"
 3807      5436345F 
 3807      45505349 
 3807      4C4F4E5F 
 3807      5F20322E 
 3808              	.LASF370:
 3809 2952 5F5F4743 		.ascii	"__GCC_ATOMIC_LLONG_LOCK_FREE 1\000"
 3809      435F4154 
 3809      4F4D4943 
 3809      5F4C4C4F 
ARM GAS  /tmp/ccS8T3ln.s 			page 98


 3809      4E475F4C 
 3810              	.LASF361:
 3811 2971 5F5F4743 		.ascii	"__GCC_HAVE_SYNC_COMPARE_AND_SWAP_4 1\000"
 3811      435F4841 
 3811      56455F53 
 3811      594E435F 
 3811      434F4D50 
 3812              	.LASF150:
 3813 2996 5F5F464C 		.ascii	"__FLT_MAX_EXP__ 128\000"
 3813      545F4D41 
 3813      585F4558 
 3813      505F5F20 
 3813      31323800 
 3814              	.LASF13:
 3815 29aa 5F5F4154 		.ascii	"__ATOMIC_ACQ_REL 4\000"
 3815      4F4D4943 
 3815      5F414351 
 3815      5F52454C 
 3815      203400
 3816              	.LASF65:
 3817 29bd 5F5F5549 		.ascii	"__UINT_FAST64_TYPE__ long long unsigned int\000"
 3817      4E545F46 
 3817      41535436 
 3817      345F5459 
 3817      50455F5F 
 3818              	.LASF498:
 3819 29e9 5F545F57 		.ascii	"_T_WCHAR_ \000"
 3819      43484152 
 3819      5F2000
 3820              	.LASF38:
 3821 29f4 5F5F5549 		.ascii	"__UINTMAX_TYPE__ long long unsigned int\000"
 3821      4E544D41 
 3821      585F5459 
 3821      50455F5F 
 3821      206C6F6E 
 3822              	.LASF456:
 3823 2a1c 76615F61 		.ascii	"va_arg(v,l) __builtin_va_arg(v,l)\000"
 3823      72672876 
 3823      2C6C2920 
 3823      5F5F6275 
 3823      696C7469 
 3824              	.LASF232:
 3825 2a3e 5F5F464C 		.ascii	"__FLT32X_NORM_MAX__ 1.7976931348623157e+308F32x\000"
 3825      54333258 
 3825      5F4E4F52 
 3825      4D5F4D41 
 3825      585F5F20 
 3826              	.LASF188:
 3827 2a6e 5F5F4C44 		.ascii	"__LDBL_EPSILON__ 2.2204460492503131e-16L\000"
 3827      424C5F45 
 3827      5053494C 
 3827      4F4E5F5F 
 3827      20322E32 
 3828              	.LASF66:
 3829 2a97 5F5F494E 		.ascii	"__INTPTR_TYPE__ int\000"
 3829      54505452 
 3829      5F545950 
ARM GAS  /tmp/ccS8T3ln.s 			page 99


 3829      455F5F20 
 3829      696E7400 
 3830              	.LASF426:
 3831 2aab 5F5F4152 		.ascii	"__ARM_PCS_VFP 1\000"
 3831      4D5F5043 
 3831      535F5646 
 3831      50203100 
 3832              	.LASF144:
 3833 2abb 5F5F4445 		.ascii	"__DEC_EVAL_METHOD__ 2\000"
 3833      435F4556 
 3833      414C5F4D 
 3833      4554484F 
 3833      445F5F20 
 3834              	.LASF286:
 3835 2ad1 5F5F5553 		.ascii	"__USACCUM_MIN__ 0.0UHK\000"
 3835      41434355 
 3835      4D5F4D49 
 3835      4E5F5F20 
 3835      302E3055 
 3836              	.LASF245:
 3837 2ae8 5F5F5553 		.ascii	"__USFRACT_IBIT__ 0\000"
 3837      46524143 
 3837      545F4942 
 3837      49545F5F 
 3837      203000
 3838              	.LASF113:
 3839 2afb 5F5F494E 		.ascii	"__INT_LEAST32_WIDTH__ 32\000"
 3839      545F4C45 
 3839      41535433 
 3839      325F5749 
 3839      4454485F 
 3840              	.LASF484:
 3841 2b14 5F53495A 		.ascii	"_SIZE_T_ \000"
 3841      455F545F 
 3841      2000
 3842              	.LASF8:
 3843 2b1e 5F5F5645 		.ascii	"__VERSION__ \"10.3.1 20210621 (release)\"\000"
 3843      5253494F 
 3843      4E5F5F20 
 3843      2231302E 
 3843      332E3120 
 3844              	.LASF326:
 3845 2b46 5F5F4451 		.ascii	"__DQ_IBIT__ 0\000"
 3845      5F494249 
 3845      545F5F20 
 3845      3000
 3846              	.LASF145:
 3847 2b54 5F5F464C 		.ascii	"__FLT_RADIX__ 2\000"
 3847      545F5241 
 3847      4449585F 
 3847      5F203200 
 3848              	.LASF202:
 3849 2b64 5F5F464C 		.ascii	"__FLT32_MIN__ 1.1754943508222875e-38F32\000"
 3849      5433325F 
 3849      4D494E5F 
 3849      5F20312E 
 3849      31373534 
ARM GAS  /tmp/ccS8T3ln.s 			page 100


 3850              	.LASF502:
 3851 2b8c 5F425344 		.ascii	"_BSD_WCHAR_T_ \000"
 3851      5F574348 
 3851      41525F54 
 3851      5F2000
 3852              	.LASF33:
 3853 2b9b 5F5F5349 		.ascii	"__SIZE_TYPE__ unsigned int\000"
 3853      5A455F54 
 3853      5950455F 
 3853      5F20756E 
 3853      7369676E 
 3854              	.LASF519:
 3855 2bb6 736E7072 		.ascii	"snprintf snprintf_\000"
 3855      696E7466 
 3855      20736E70 
 3855      72696E74 
 3855      665F00
 3856              	.LASF468:
 3857 2bc9 5F545F50 		.ascii	"_T_PTRDIFF_ \000"
 3857      54524449 
 3857      46465F20 
 3857      00
 3858              	.LASF314:
 3859 2bd6 5F5F554C 		.ascii	"__ULLACCUM_FBIT__ 32\000"
 3859      4C414343 
 3859      554D5F46 
 3859      4249545F 
 3859      5F203332 
 3860              	.LASF465:
 3861 2beb 5F535444 		.ascii	"_STDDEF_H_ \000"
 3861      4445465F 
 3861      485F2000 
 3862              	.LASF211:
 3863 2bf7 5F5F464C 		.ascii	"__FLT64_MIN_EXP__ (-1021)\000"
 3863      5436345F 
 3863      4D494E5F 
 3863      4558505F 
 3863      5F20282D 
 3864              	.LASF249:
 3865 2c11 5F5F4652 		.ascii	"__FRACT_FBIT__ 15\000"
 3865      4143545F 
 3865      46424954 
 3865      5F5F2031 
 3865      3500
 3866              	.LASF367:
 3867 2c23 5F5F4743 		.ascii	"__GCC_ATOMIC_SHORT_LOCK_FREE 2\000"
 3867      435F4154 
 3867      4F4D4943 
 3867      5F53484F 
 3867      52545F4C 
 3868              	.LASF87:
 3869 2c42 5F5F5054 		.ascii	"__PTRDIFF_WIDTH__ 32\000"
 3869      52444946 
 3869      465F5749 
 3869      4454485F 
 3869      5F203332 
 3870              	.LASF354:
ARM GAS  /tmp/ccS8T3ln.s 			page 101


 3871 2c57 5F5F5554 		.ascii	"__UTA_IBIT__ 64\000"
 3871      415F4942 
 3871      49545F5F 
 3871      20363400 
 3872              	.LASF149:
 3873 2c67 5F5F464C 		.ascii	"__FLT_MIN_10_EXP__ (-37)\000"
 3873      545F4D49 
 3873      4E5F3130 
 3873      5F455850 
 3873      5F5F2028 
 3874              	.LASF543:
 3875 2c80 5F5F6170 		.ascii	"__ap\000"
 3875      00
 3876              	.LASF234:
 3877 2c85 5F5F464C 		.ascii	"__FLT32X_EPSILON__ 2.2204460492503131e-16F32x\000"
 3877      54333258 
 3877      5F455053 
 3877      494C4F4E 
 3877      5F5F2032 
 3878              	.LASF445:
 3879 2cb3 54415247 		.ascii	"TARGET_EXTENSION 1\000"
 3879      45545F45 
 3879      5854454E 
 3879      53494F4E 
 3879      203100
 3880              	.LASF143:
 3881 2cc6 5F5F464C 		.ascii	"__FLT_EVAL_METHOD_TS_18661_3__ 0\000"
 3881      545F4556 
 3881      414C5F4D 
 3881      4554484F 
 3881      445F5453 
 3882              	.LASF175:
 3883 2ce7 5F5F4442 		.ascii	"__DBL_HAS_INFINITY__ 1\000"
 3883      4C5F4841 
 3883      535F494E 
 3883      46494E49 
 3883      54595F5F 
 3884              	.LASF517:
 3885 2cfe 7072696E 		.ascii	"printf printf_\000"
 3885      74662070 
 3885      72696E74 
 3885      665F00
 3886              	.LASF380:
 3887 2d0d 5F5F4152 		.ascii	"__ARM_FEATURE_QBIT 1\000"
 3887      4D5F4645 
 3887      41545552 
 3887      455F5142 
 3887      49542031 
 3888              	.LASF60:
 3889 2d22 5F5F494E 		.ascii	"__INT_FAST32_TYPE__ int\000"
 3889      545F4641 
 3889      53543332 
 3889      5F545950 
 3889      455F5F20 
 3890              	.LASF160:
 3891 2d3a 5F5F464C 		.ascii	"__FLT_HAS_QUIET_NAN__ 1\000"
 3891      545F4841 
ARM GAS  /tmp/ccS8T3ln.s 			page 102


 3891      535F5155 
 3891      4945545F 
 3891      4E414E5F 
 3892              	.LASF17:
 3893 2d52 5F5F5349 		.ascii	"__SIZEOF_INT__ 4\000"
 3893      5A454F46 
 3893      5F494E54 
 3893      5F5F2034 
 3893      00
 3894              	.LASF37:
 3895 2d63 5F5F494E 		.ascii	"__INTMAX_TYPE__ long long int\000"
 3895      544D4158 
 3895      5F545950 
 3895      455F5F20 
 3895      6C6F6E67 
 3896              	.LASF90:
 3897 2d81 5F5F494E 		.ascii	"__INTMAX_C(c) c ## LL\000"
 3897      544D4158 
 3897      5F432863 
 3897      29206320 
 3897      2323204C 
 3898              	.LASF403:
 3899 2d97 5F5F4150 		.ascii	"__APCS_32__ 1\000"
 3899      43535F33 
 3899      325F5F20 
 3899      3100
 3900              	.LASF515:
 3901 2da5 6F666673 		.ascii	"offsetof(TYPE,MEMBER) __builtin_offsetof (TYPE, MEM"
 3901      65746F66 
 3901      28545950 
 3901      452C4D45 
 3901      4D424552 
 3902 2dd8 42455229 		.ascii	"BER)\000"
 3902      00
 3903              	.LASF291:
 3904 2ddd 5F5F4143 		.ascii	"__ACCUM_MIN__ (-0X1P15K-0X1P15K)\000"
 3904      43554D5F 
 3904      4D494E5F 
 3904      5F20282D 
 3904      30583150 
 3905              	.LASF173:
 3906 2dfe 5F5F4442 		.ascii	"__DBL_DENORM_MIN__ ((double)4.9406564584124654e-324"
 3906      4C5F4445 
 3906      4E4F524D 
 3906      5F4D494E 
 3906      5F5F2028 
 3907 2e31 4C2900   		.ascii	"L)\000"
 3908              	.LASF49:
 3909 2e34 5F5F5549 		.ascii	"__UINT64_TYPE__ long long unsigned int\000"
 3909      4E543634 
 3909      5F545950 
 3909      455F5F20 
 3909      6C6F6E67 
 3910              	.LASF238:
 3911 2e5b 5F5F464C 		.ascii	"__FLT32X_HAS_QUIET_NAN__ 1\000"
 3911      54333258 
 3911      5F484153 
ARM GAS  /tmp/ccS8T3ln.s 			page 103


 3911      5F515549 
 3911      45545F4E 
 3912              	.LASF167:
 3913 2e76 5F5F4442 		.ascii	"__DBL_MAX_10_EXP__ 308\000"
 3913      4C5F4D41 
 3913      585F3130 
 3913      5F455850 
 3913      5F5F2033 
 3914              	.LASF233:
 3915 2e8d 5F5F464C 		.ascii	"__FLT32X_MIN__ 2.2250738585072014e-308F32x\000"
 3915      54333258 
 3915      5F4D494E 
 3915      5F5F2032 
 3915      2E323235 
 3916              	.LASF469:
 3917 2eb8 5F545F50 		.ascii	"_T_PTRDIFF \000"
 3917      54524449 
 3917      46462000 
 3918              	.LASF383:
 3919 2ec4 5F5F4152 		.ascii	"__ARM_FEATURE_UNALIGNED 1\000"
 3919      4D5F4645 
 3919      41545552 
 3919      455F554E 
 3919      414C4947 
 3920              	.LASF363:
 3921 2ede 5F5F4743 		.ascii	"__GCC_ATOMIC_CHAR_LOCK_FREE 2\000"
 3921      435F4154 
 3921      4F4D4943 
 3921      5F434841 
 3921      525F4C4F 
 3922              	.LASF346:
 3923 2efc 5F5F5441 		.ascii	"__TA_IBIT__ 64\000"
 3923      5F494249 
 3923      545F5F20 
 3923      363400
 3924              	.LASF319:
 3925 2f0b 5F5F5151 		.ascii	"__QQ_FBIT__ 7\000"
 3925      5F464249 
 3925      545F5F20 
 3925      3700
 3926              	.LASF237:
 3927 2f19 5F5F464C 		.ascii	"__FLT32X_HAS_INFINITY__ 1\000"
 3927      54333258 
 3927      5F484153 
 3927      5F494E46 
 3927      494E4954 
 3928              	.LASF483:
 3929 2f33 5F5F5349 		.ascii	"__SIZE_T \000"
 3929      5A455F54 
 3929      2000
 3930              	.LASF399:
 3931 2f3d 5F5F4152 		.ascii	"__ARM_ARCH_PROFILE 77\000"
 3931      4D5F4152 
 3931      43485F50 
 3931      524F4649 
 3931      4C452037 
 3932              	.LASF126:
ARM GAS  /tmp/ccS8T3ln.s 			page 104


 3933 2f53 5F5F494E 		.ascii	"__INT_FAST8_WIDTH__ 32\000"
 3933      545F4641 
 3933      5354385F 
 3933      57494454 
 3933      485F5F20 
 3934              	.LASF148:
 3935 2f6a 5F5F464C 		.ascii	"__FLT_MIN_EXP__ (-125)\000"
 3935      545F4D49 
 3935      4E5F4558 
 3935      505F5F20 
 3935      282D3132 
 3936              	.LASF471:
 3937 2f81 5F505452 		.ascii	"_PTRDIFF_T_ \000"
 3937      44494646 
 3937      5F545F20 
 3937      00
 3938              	.LASF436:
 3939 2f8e 5F5F4152 		.ascii	"__ARM_FEATURE_MATMUL_INT8\000"
 3939      4D5F4645 
 3939      41545552 
 3939      455F4D41 
 3939      544D554C 
 3940              	.LASF535:
 3941 2fa8 6C6F675F 		.ascii	"log_buffer\000"
 3941      62756666 
 3941      657200
 3942              	.LASF183:
 3943 2fb3 5F5F4445 		.ascii	"__DECIMAL_DIG__ 17\000"
 3943      43494D41 
 3943      4C5F4449 
 3943      475F5F20 
 3943      313700
 3944              	.LASF424:
 3945 2fc6 5F5F5448 		.ascii	"__THUMB_INTERWORK__ 1\000"
 3945      554D425F 
 3945      494E5445 
 3945      52574F52 
 3945      4B5F5F20 
 3946              	.LASF112:
 3947 2fdc 5F5F494E 		.ascii	"__INT32_C(c) c ## L\000"
 3947      5433325F 
 3947      43286329 
 3947      20632023 
 3947      23204C00 
 3948              	.LASF415:
 3949 2ff0 5F5F4152 		.ascii	"__ARM_FP16_FORMAT_ALTERNATIVE\000"
 3949      4D5F4650 
 3949      31365F46 
 3949      4F524D41 
 3949      545F414C 
 3950              	.LASF182:
 3951 300e 5F5F4C44 		.ascii	"__LDBL_MAX_10_EXP__ 308\000"
 3951      424C5F4D 
 3951      41585F31 
 3951      305F4558 
 3951      505F5F20 
 3952              	.LASF229:
ARM GAS  /tmp/ccS8T3ln.s 			page 105


 3953 3026 5F5F464C 		.ascii	"__FLT32X_MAX_10_EXP__ 308\000"
 3953      54333258 
 3953      5F4D4158 
 3953      5F31305F 
 3953      4558505F 
 3954              	.LASF139:
 3955 3040 5F5F5549 		.ascii	"__UINTPTR_MAX__ 0xffffffffU\000"
 3955      4E545054 
 3955      525F4D41 
 3955      585F5F20 
 3955      30786666 
 3956              	.LASF174:
 3957 305c 5F5F4442 		.ascii	"__DBL_HAS_DENORM__ 1\000"
 3957      4C5F4841 
 3957      535F4445 
 3957      4E4F524D 
 3957      5F5F2031 
 3958              	.LASF443:
 3959 3071 5F5F4650 		.ascii	"__FPU_USED 1\000"
 3959      555F5553 
 3959      45442031 
 3959      00
 3960              	.LASF516:
 3961 307e 5F474343 		.ascii	"_GCC_MAX_ALIGN_T \000"
 3961      5F4D4158 
 3961      5F414C49 
 3961      474E5F54 
 3961      2000
 3962              	.LASF463:
 3963 3090 5F5F7661 		.ascii	"__va_list__ \000"
 3963      5F6C6973 
 3963      745F5F20 
 3963      00
 3964              	.LASF385:
 3965 309d 5F5F4152 		.ascii	"__ARM_FEATURE_CRC32\000"
 3965      4D5F4645 
 3965      41545552 
 3965      455F4352 
 3965      43333200 
 3966              	.LASF198:
 3967 30b1 5F5F464C 		.ascii	"__FLT32_MAX_10_EXP__ 38\000"
 3967      5433325F 
 3967      4D41585F 
 3967      31305F45 
 3967      58505F5F 
 3968              	.LASF381:
 3969 30c9 5F5F4152 		.ascii	"__ARM_FEATURE_SAT 1\000"
 3969      4D5F4645 
 3969      41545552 
 3969      455F5341 
 3969      54203100 
 3970              	.LASF262:
 3971 30dd 5F5F4C46 		.ascii	"__LFRACT_MAX__ 0X7FFFFFFFP-31LR\000"
 3971      52414354 
 3971      5F4D4158 
 3971      5F5F2030 
 3971      58374646 
ARM GAS  /tmp/ccS8T3ln.s 			page 106


 3972              	.LASF425:
 3973 30fd 5F5F4152 		.ascii	"__ARM_ARCH_7EM__ 1\000"
 3973      4D5F4152 
 3973      43485F37 
 3973      454D5F5F 
 3973      203100
 3974              	.LASF449:
 3975 3110 5F505249 		.ascii	"_PRINTF_H_ \000"
 3975      4E54465F 
 3975      485F2000 
 3976              	.LASF466:
 3977 311c 5F414E53 		.ascii	"_ANSI_STDDEF_H \000"
 3977      495F5354 
 3977      44444546 
 3977      5F482000 
 3978              	.LASF111:
 3979 312c 5F5F494E 		.ascii	"__INT_LEAST32_MAX__ 0x7fffffffL\000"
 3979      545F4C45 
 3979      41535433 
 3979      325F4D41 
 3979      585F5F20 
 3980              	.LASF309:
 3981 314c 5F5F4C4C 		.ascii	"__LLACCUM_FBIT__ 31\000"
 3981      41434355 
 3981      4D5F4642 
 3981      49545F5F 
 3981      20333100 
 3982              	.LASF479:
 3983 3160 5F53495A 		.ascii	"_SIZE_T \000"
 3983      455F5420 
 3983      00
 3984              	.LASF328:
 3985 3169 5F5F5451 		.ascii	"__TQ_IBIT__ 0\000"
 3985      5F494249 
 3985      545F5F20 
 3985      3000
 3986              	.LASF91:
 3987 3177 5F5F5549 		.ascii	"__UINTMAX_MAX__ 0xffffffffffffffffULL\000"
 3987      4E544D41 
 3987      585F4D41 
 3987      585F5F20 
 3987      30786666 
 3988              	.LASF41:
 3989 319d 5F5F5349 		.ascii	"__SIG_ATOMIC_TYPE__ int\000"
 3989      475F4154 
 3989      4F4D4943 
 3989      5F545950 
 3989      455F5F20 
 3990              	.LASF271:
 3991 31b5 5F5F4C4C 		.ascii	"__LLFRACT_MIN__ (-0.5LLR-0.5LLR)\000"
 3991      46524143 
 3991      545F4D49 
 3991      4E5F5F20 
 3991      282D302E 
 3992              	.LASF420:
 3993 31d6 5F5F4152 		.ascii	"__ARM_FEATURE_FMA 1\000"
 3993      4D5F4645 
ARM GAS  /tmp/ccS8T3ln.s 			page 107


 3993      41545552 
 3993      455F464D 
 3993      41203100 
 3994              	.LASF168:
 3995 31ea 5F5F4442 		.ascii	"__DBL_DECIMAL_DIG__ 17\000"
 3995      4C5F4445 
 3995      43494D41 
 3995      4C5F4449 
 3995      475F5F20 
 3996              	.LASF190:
 3997 3201 5F5F4C44 		.ascii	"__LDBL_HAS_DENORM__ 1\000"
 3997      424C5F48 
 3997      41535F44 
 3997      454E4F52 
 3997      4D5F5F20 
 3998              	.LASF119:
 3999 3217 5F5F5549 		.ascii	"__UINT_LEAST16_MAX__ 0xffff\000"
 3999      4E545F4C 
 3999      45415354 
 3999      31365F4D 
 3999      41585F5F 
 4000              	.LASF391:
 4001 3233 5F5F4152 		.ascii	"__ARM_FEATURE_LDREX\000"
 4001      4D5F4645 
 4001      41545552 
 4001      455F4C44 
 4001      52455800 
 4002              	.LASF186:
 4003 3247 5F5F4C44 		.ascii	"__LDBL_NORM_MAX__ 1.7976931348623157e+308L\000"
 4003      424C5F4E 
 4003      4F524D5F 
 4003      4D41585F 
 4003      5F20312E 
 4004              	.LASF318:
 4005 3272 5F5F554C 		.ascii	"__ULLACCUM_EPSILON__ 0x1P-32ULLK\000"
 4005      4C414343 
 4005      554D5F45 
 4005      5053494C 
 4005      4F4E5F5F 
 4006              	.LASF284:
 4007 3293 5F5F5553 		.ascii	"__USACCUM_FBIT__ 8\000"
 4007      41434355 
 4007      4D5F4642 
 4007      49545F5F 
 4007      203800
 4008              	.LASF158:
 4009 32a6 5F5F464C 		.ascii	"__FLT_HAS_DENORM__ 1\000"
 4009      545F4841 
 4009      535F4445 
 4009      4E4F524D 
 4009      5F5F2031 
 4010              	.LASF132:
 4011 32bb 5F5F494E 		.ascii	"__INT_FAST64_WIDTH__ 64\000"
 4011      545F4641 
 4011      53543634 
 4011      5F574944 
 4011      54485F5F 
ARM GAS  /tmp/ccS8T3ln.s 			page 108


 4012              	.LASF257:
 4013 32d3 5F5F5546 		.ascii	"__UFRACT_MAX__ 0XFFFFP-16UR\000"
 4013      52414354 
 4013      5F4D4158 
 4013      5F5F2030 
 4013      58464646 
 4014              		.ident	"GCC: (15:10.3-2021.07-4) 10.3.1 20210621 (release)"
ARM GAS  /tmp/ccS8T3ln.s 			page 109


DEFINED SYMBOLS
                            *ABS*:0000000000000000 pdlogger.c
     /tmp/ccS8T3ln.s:81     .text.pdlogger_register_appender:0000000000000000 $t
     /tmp/ccS8T3ln.s:90     .text.pdlogger_register_appender:0000000000000000 pdlogger_register_appender
     /tmp/ccS8T3ln.s:112    .text.pdlogger_register_appender:0000000000000008 $d
     /tmp/ccS8T3ln.s:117    .text.pdlogger_info:0000000000000000 $t
     /tmp/ccS8T3ln.s:125    .text.pdlogger_info:0000000000000000 pdlogger_info
     /tmp/ccS8T3ln.s:217    .text.pdlogger_info:0000000000000048 $d
     /tmp/ccS8T3ln.s:223    .text.pdlogger_error:0000000000000000 $t
     /tmp/ccS8T3ln.s:231    .text.pdlogger_error:0000000000000000 pdlogger_error
     /tmp/ccS8T3ln.s:329    .text.pdlogger_error:0000000000000050 $d
     /tmp/ccS8T3ln.s:335    .text._putchar:0000000000000000 $t
     /tmp/ccS8T3ln.s:343    .text._putchar:0000000000000000 _putchar
     /tmp/ccS8T3ln.s:357    .rodata:0000000000000000 $d
     /tmp/ccS8T3ln.s:366    .bss.logger:0000000000000000 $d
     /tmp/ccS8T3ln.s:370    .bss.logger:0000000000000000 logger
                           .group:0000000000000000 wm4.0.007990e38b48ed7e6b618cf8f1acad11
                           .group:0000000000000000 wm4.pdlogger.h.6.008bc6f692b107e3bd5abdf0b33b1485
                           .group:0000000000000000 wm4.stdarg.h.31.b55da1089056868966f25de5dbfc7d3c
                           .group:0000000000000000 wm4.stddef.h.39.144cf5ddcd53cbfdac30259dc1a6c87f
                           .group:0000000000000000 wm4.printf.h.59.15c3282c91c12f59c67258a426cb49f3

UNDEFINED SYMBOLS
memset
vsnprintf_
