ARM GAS  /tmp/ccS8T3ln.s 			page 1


   1              		.cpu cortex-m7
   2              		.eabi_attribute 27, 1	@ Tag_ABI_HardFP_use
   3              		.eabi_attribute 28, 1	@ Tag_ABI_VFP_args
   4              		.eabi_attribute 20, 1	@ Tag_ABI_FP_denormal
   5              		.eabi_attribute 21, 1	@ Tag_ABI_FP_exceptions
   6              		.eabi_attribute 23, 3	@ Tag_ABI_FP_number_model
   7              		.eabi_attribute 24, 1	@ Tag_ABI_align8_needed
   8              		.eabi_attribute 25, 1	@ Tag_ABI_align8_preserved
   9              		.eabi_attribute 26, 1	@ Tag_ABI_enum_size
  10              		.eabi_attribute 30, 2	@ Tag_ABI_optimization_goals
  11              		.eabi_attribute 34, 1	@ Tag_CPU_unaligned_access
  12              		.eabi_attribute 18, 4	@ Tag_ABI_PCS_wchar_t
  13              		.file	"pdlogger.c"
  14              	@ GNU C17 (15:10.3-2021.07-4) version 10.3.1 20210621 (release) (arm-none-eabi)
  15              	@	compiled by GNU C version 11.2.0, GMP version 6.2.1, MPFR version 4.1.0, MPC version 1.2.1, isl v
  16              	
  17              	@ GGC heuristics: --param ggc-min-expand=100 --param ggc-min-heapsize=131072
  18              	@ options passed:  -I . -I .
  19              	@ -I /home/mchristensen/src/PlaydateSDK-2.2.0/C_API
  20              	@ -imultilib thumb/v7e-m+fp/hard -MD build/src/pdantler/pdlogger.d
  21              	@ -MF build/dep/pdlogger.o.d -MP -MQ build/src/pdantler/pdlogger.o
  22              	@ -D__USES_INITFINI__ -D __FPU_USED=1 -D TARGET_PLAYDATE=1
  23              	@ -D TARGET_EXTENSION=1 src/pdantler/pdlogger.c -mthumb -mcpu=cortex-m7
  24              	@ -mfloat-abi=hard -mfpu=fpv5-sp-d16 -mword-relocations
  25              	@ -mlibarch=armv7e-m+fpv5 -march=armv7e-m+fpv5
  26              	@ -auxbase-strip build/src/pdantler/pdlogger.o -g3 -gdwarf-2 -O2 -Wall
  27              	@ -Wno-unused -Wstrict-prototypes -Wno-unknown-pragmas -Wdouble-promotion
  28              	@ -falign-functions=16 -fomit-frame-pointer -fverbose-asm -fno-common
  29              	@ -ffunction-sections -fdata-sections
  30              	@ options enabled:  -faggressive-loop-optimizations -falign-functions
  31              	@ -falign-jumps -falign-labels -falign-loops -fallocation-dce
  32              	@ -fauto-inc-dec -fbranch-count-reg -fcaller-saves
  33              	@ -fcombine-stack-adjustments -fcompare-elim -fcprop-registers
  34              	@ -fcrossjumping -fcse-follow-jumps -fdata-sections -fdefer-pop
  35              	@ -fdelete-null-pointer-checks -fdevirtualize -fdevirtualize-speculatively
  36              	@ -fdwarf2-cfi-asm -fearly-inlining -feliminate-unused-debug-symbols
  37              	@ -feliminate-unused-debug-types -fexpensive-optimizations
  38              	@ -fforward-propagate -ffp-int-builtin-inexact -ffunction-cse
  39              	@ -ffunction-sections -fgcse -fgcse-lm -fgnu-unique
  40              	@ -fguess-branch-probability -fhoist-adjacent-loads -fident -fif-conversion
  41              	@ -fif-conversion2 -findirect-inlining -finline -finline-atomics
  42              	@ -finline-functions -finline-functions-called-once
  43              	@ -finline-small-functions -fipa-bit-cp -fipa-cp -fipa-icf
  44              	@ -fipa-icf-functions -fipa-icf-variables -fipa-profile -fipa-pure-const
  45              	@ -fipa-ra -fipa-reference -fipa-reference-addressable -fipa-sra
  46              	@ -fipa-stack-alignment -fipa-vrp -fira-hoist-pressure
  47              	@ -fira-share-save-slots -fira-share-spill-slots
  48              	@ -fisolate-erroneous-paths-dereference -fivopts -fkeep-static-consts
  49              	@ -fleading-underscore -flifetime-dse -flra-remat -fmath-errno
  50              	@ -fmerge-constants -fmerge-debug-strings -fmove-loop-invariants
  51              	@ -fomit-frame-pointer -foptimize-sibling-calls -foptimize-strlen
  52              	@ -fpartial-inlining -fpeephole -fpeephole2 -fplt -fprefetch-loop-arrays
  53              	@ -freg-struct-return -freorder-blocks -freorder-functions
  54              	@ -frerun-cse-after-loop -fsched-critical-path-heuristic
  55              	@ -fsched-dep-count-heuristic -fsched-group-heuristic -fsched-interblock
  56              	@ -fsched-last-insn-heuristic -fsched-pressure -fsched-rank-heuristic
  57              	@ -fsched-spec -fsched-spec-insn-heuristic -fsched-stalled-insns-dep
ARM GAS  /tmp/ccS8T3ln.s 			page 2


  58              	@ -fschedule-insns -fschedule-insns2 -fsection-anchors
  59              	@ -fsemantic-interposition -fshow-column -fshrink-wrap
  60              	@ -fshrink-wrap-separate -fsigned-zeros -fsplit-ivs-in-unroller
  61              	@ -fsplit-wide-types -fssa-backprop -fssa-phiopt -fstdarg-opt
  62              	@ -fstore-merging -fstrict-aliasing -fstrict-volatile-bitfields
  63              	@ -fsync-libcalls -fthread-jumps -ftoplevel-reorder -ftrapping-math
  64              	@ -ftree-bit-ccp -ftree-builtin-call-dce -ftree-ccp -ftree-ch
  65              	@ -ftree-coalesce-vars -ftree-copy-prop -ftree-cselim -ftree-dce
  66              	@ -ftree-dominator-opts -ftree-dse -ftree-forwprop -ftree-fre
  67              	@ -ftree-loop-distribute-patterns -ftree-loop-if-convert -ftree-loop-im
  68              	@ -ftree-loop-ivcanon -ftree-loop-optimize -ftree-parallelize-loops=
  69              	@ -ftree-phiprop -ftree-pre -ftree-pta -ftree-reassoc -ftree-scev-cprop
  70              	@ -ftree-sink -ftree-slsr -ftree-sra -ftree-switch-conversion
  71              	@ -ftree-tail-merge -ftree-ter -ftree-vrp -funit-at-a-time -fvar-tracking
  72              	@ -fvar-tracking-assignments -fverbose-asm -fzero-initialized-in-bss
  73              	@ -masm-syntax-unified -mbe32 -mlittle-endian -mpic-data-is-text-relative
  74              	@ -msched-prolog -mthumb -munaligned-access -mvectorize-with-neon-quad
  75              	@ -mword-relocations
  76              	
  77              		.text
  78              	.Ltext0:
  79              		.cfi_sections	.debug_frame
  80              		.section	.text.pdlogger_register_appender,"ax",%progbits
  81              		.align	1
  82              		.p2align 4,,15
  83              		.global	pdlogger_register_appender
  84              		.arch armv7e-m
  85              		.syntax unified
  86              		.thumb
  87              		.thumb_func
  88              		.fpu fpv5-sp-d16
  89              		.type	pdlogger_register_appender, %function
  90              	pdlogger_register_appender:
  91              	.LVL0:
  92              	.LFB0:
  93              		.file 1 "src/pdantler/pdlogger.c"
   1:src/pdantler/pdlogger.c **** /** This file is managed by pdantler.
   2:src/pdantler/pdlogger.c **** 
   3:src/pdantler/pdlogger.c ****     Any changes you make to it will be overwritten next time pdantler is run.
   4:src/pdantler/pdlogger.c **** 
   5:src/pdantler/pdlogger.c ****     Logger for logging on Playdate that can also handle logging in a
   6:src/pdantler/pdlogger.c ****    non-playdate setup (eg offline tests)
   7:src/pdantler/pdlogger.c **** 
   8:src/pdantler/pdlogger.c ****     Inspired by https://github.com/empyreanx/pico_headers but simplified and
   9:src/pdantler/pdlogger.c ****    adapted for Playdate
  10:src/pdantler/pdlogger.c ****  */
  11:src/pdantler/pdlogger.c **** 
  12:src/pdantler/pdlogger.c **** #ifndef PDLOGGER_INCLUDE
  13:src/pdantler/pdlogger.c **** #define PDLOGGER_INCLUDE
  14:src/pdantler/pdlogger.c **** #include "pdlogger.h"
  15:src/pdantler/pdlogger.c **** #include "printf.h"
  16:src/pdantler/pdlogger.c **** 
  17:src/pdantler/pdlogger.c **** static struct Logger {
  18:src/pdantler/pdlogger.c ****   void (*log_appender_fn)(const char *entry, void *userdata);
  19:src/pdantler/pdlogger.c ****   void *userdata;
  20:src/pdantler/pdlogger.c **** } logger;
  21:src/pdantler/pdlogger.c **** 
ARM GAS  /tmp/ccS8T3ln.s 			page 3


  22:src/pdantler/pdlogger.c **** void pdlogger_register_appender(log_appender_fn appender_fn, void *userdata) {
  94              		.loc 1 22 78 view -0
  95              		.cfi_startproc
  96              		@ args = 0, pretend = 0, frame = 0
  97              		@ frame_needed = 0, uses_anonymous_args = 0
  98              		@ link register save eliminated.
  23:src/pdantler/pdlogger.c ****   logger.log_appender_fn = appender_fn;
  99              		.loc 1 23 3 view .LVU1
 100              	@ src/pdantler/pdlogger.c:23:   logger.log_appender_fn = appender_fn;
 101              		.loc 1 23 26 is_stmt 0 view .LVU2
 102 0000 014B     		ldr	r3, .L3	@ tmp115,
 103              	@ src/pdantler/pdlogger.c:24:   logger.userdata = userdata;
  24:src/pdantler/pdlogger.c ****   logger.userdata = userdata;
 104              		.loc 1 24 19 view .LVU3
 105 0002 C3E90001 		strd	r0, r1, [r3]	@ tmp117, tmp118, tmp115
 106              	@ src/pdantler/pdlogger.c:25: }
  25:src/pdantler/pdlogger.c **** }
 107              		.loc 1 25 1 view .LVU4
 108 0006 7047     		bx	lr	@
 109              	.L4:
 110              		.align	2
 111              	.L3:
 112 0008 00000000 		.word	.LANCHOR0
 113              		.cfi_endproc
 114              	.LFE0:
 115              		.size	pdlogger_register_appender, .-pdlogger_register_appender
 116              		.section	.text.pdlogger_info,"ax",%progbits
 117              		.align	1
 118              		.p2align 4,,15
 119              		.global	pdlogger_info
 120              		.syntax unified
 121              		.thumb
 122              		.thumb_func
 123              		.fpu fpv5-sp-d16
 124              		.type	pdlogger_info, %function
 125              	pdlogger_info:
 126              	.LVL1:
 127              	.LFB1:
  26:src/pdantler/pdlogger.c **** 
  27:src/pdantler/pdlogger.c **** void pdlogger_info(const char *message, ...) {
 128              		.loc 1 27 46 is_stmt 1 view -0
 129              		.cfi_startproc
 130              		@ args = 4, pretend = 16, frame = 408
 131              		@ frame_needed = 0, uses_anonymous_args = 1
  28:src/pdantler/pdlogger.c ****   if (logger.log_appender_fn) {
 132              		.loc 1 28 3 view .LVU6
 133              	@ src/pdantler/pdlogger.c:27: void pdlogger_info(const char *message, ...) {
  27:src/pdantler/pdlogger.c ****   if (logger.log_appender_fn) {
 134              		.loc 1 27 46 is_stmt 0 view .LVU7
 135 0000 0FB4     		push	{r0, r1, r2, r3}	@
 136              	.LCFI0:
 137              		.cfi_def_cfa_offset 16
 138              		.cfi_offset 0, -16
 139              		.cfi_offset 1, -12
 140              		.cfi_offset 2, -8
 141              		.cfi_offset 3, -4
 142 0002 10B5     		push	{r4, lr}	@
ARM GAS  /tmp/ccS8T3ln.s 			page 4


 143              	.LCFI1:
 144              		.cfi_def_cfa_offset 24
 145              		.cfi_offset 4, -24
 146              		.cfi_offset 14, -20
 147              	@ src/pdantler/pdlogger.c:28:   if (logger.log_appender_fn) {
 148              		.loc 1 28 13 view .LVU8
 149 0004 104C     		ldr	r4, .L11	@ tmp117,
 150              	@ src/pdantler/pdlogger.c:27: void pdlogger_info(const char *message, ...) {
  27:src/pdantler/pdlogger.c ****   if (logger.log_appender_fn) {
 151              		.loc 1 27 46 view .LVU9
 152 0006 E6B0     		sub	sp, sp, #408	@,,
 153              	.LCFI2:
 154              		.cfi_def_cfa_offset 432
 155              	@ src/pdantler/pdlogger.c:28:   if (logger.log_appender_fn) {
 156              		.loc 1 28 6 view .LVU10
 157 0008 2368     		ldr	r3, [r4]	@ logger.log_appender_fn, logger.log_appender_fn
 158 000a BBB1     		cbz	r3, .L5	@ logger.log_appender_fn,
 159              	.LBB2:
  29:src/pdantler/pdlogger.c ****     char log_buffer[LOG_BUFFER_SIZE] = "[INFO ] ";
 160              		.loc 1 29 5 is_stmt 1 view .LVU11
 161              	@ src/pdantler/pdlogger.c:29:     char log_buffer[LOG_BUFFER_SIZE] = "[INFO ] ";
 162              		.loc 1 29 10 is_stmt 0 view .LVU12
 163 000c 0F4A     		ldr	r2, .L11+4	@ tmp122,
 164 000e 02AB     		add	r3, sp, #8	@ tmp144,,
 165 0010 07CA     		ldm	r2, {r0, r1, r2}	@ tmp122,,,
 166 0012 03C3     		stmia	r3!, {r0, r1}	@ tmp123,,
 167 0014 0021     		movs	r1, #0	@,
 168 0016 1A70     		strb	r2, [r3]	@, log_buffer
 169 0018 0DF11100 		add	r0, sp, #17	@,,
 170 001c 40F28712 		movw	r2, #391	@,
 171 0020 FFF7FEFF 		bl	memset		@
 172              	.LVL2:
  30:src/pdantler/pdlogger.c ****     va_list va;
 173              		.loc 1 30 5 is_stmt 1 view .LVU13
  31:src/pdantler/pdlogger.c ****     va_start(va, message);
 174              		.loc 1 31 5 view .LVU14
 175 0024 69AB     		add	r3, sp, #420	@ tmp128,,
 176              	@ src/pdantler/pdlogger.c:32:     vsnprintf(log_buffer + LOG_BUFFER_PREFIX_SIZE,
  32:src/pdantler/pdlogger.c ****     vsnprintf(log_buffer + LOG_BUFFER_PREFIX_SIZE,
 177              		.loc 1 32 5 is_stmt 0 view .LVU15
 178 0026 4FF4C471 		mov	r1, #392	@,
 179 002a 689A     		ldr	r2, [sp, #416]	@, message
 180 002c 04A8     		add	r0, sp, #16	@,,
 181              	@ src/pdantler/pdlogger.c:31:     va_start(va, message);
  31:src/pdantler/pdlogger.c ****     va_start(va, message);
 182              		.loc 1 31 5 view .LVU16
 183 002e 0193     		str	r3, [sp, #4]	@ tmp128, MEM[(struct  *)&va].__ap
 184              		.loc 1 32 5 is_stmt 1 view .LVU17
 185 0030 FFF7FEFF 		bl	vsnprintf_		@
 186              	.LVL3:
  33:src/pdantler/pdlogger.c ****               LOG_BUFFER_SIZE - LOG_BUFFER_PREFIX_SIZE, message, va);
  34:src/pdantler/pdlogger.c ****     logger.log_appender_fn(log_buffer, logger.userdata);
 187              		.loc 1 34 5 view .LVU18
 188 0034 02A8     		add	r0, sp, #8	@ tmp145,,
 189 0036 D4E90031 		ldrd	r3, r1, [r4]	@ logger.log_appender_fn,, tmp117
 190 003a 9847     		blx	r3		@ logger.log_appender_fn
 191              	.LVL4:
ARM GAS  /tmp/ccS8T3ln.s 			page 5


  35:src/pdantler/pdlogger.c ****     va_end(va);
 192              		.loc 1 35 5 view .LVU19
 193              	.L5:
 194              	.LBE2:
 195              	@ src/pdantler/pdlogger.c:37: }
  36:src/pdantler/pdlogger.c ****   }
  37:src/pdantler/pdlogger.c **** }
 196              		.loc 1 37 1 is_stmt 0 view .LVU20
 197 003c 66B0     		add	sp, sp, #408	@,,
 198              	.LCFI3:
 199              		.cfi_def_cfa_offset 24
 200              		@ sp needed	@
 201 003e BDE81040 		pop	{r4, lr}	@
 202              	.LCFI4:
 203              		.cfi_restore 14
 204              		.cfi_restore 4
 205              		.cfi_def_cfa_offset 16
 206 0042 04B0     		add	sp, sp, #16	@,,
 207              	.LCFI5:
 208              		.cfi_restore 3
 209              		.cfi_restore 2
 210              		.cfi_restore 1
 211              		.cfi_restore 0
 212              		.cfi_def_cfa_offset 0
 213 0044 7047     		bx	lr	@
 214              	.L12:
 215 0046 00BF     		.align	2
 216              	.L11:
 217 0048 00000000 		.word	.LANCHOR0
 218 004c 00000000 		.word	.LANCHOR1
 219              		.cfi_endproc
 220              	.LFE1:
 221              		.size	pdlogger_info, .-pdlogger_info
 222              		.section	.text.pdlogger_error,"ax",%progbits
 223              		.align	1
 224              		.p2align 4,,15
 225              		.global	pdlogger_error
 226              		.syntax unified
 227              		.thumb
 228              		.thumb_func
 229              		.fpu fpv5-sp-d16
 230              		.type	pdlogger_error, %function
 231              	pdlogger_error:
 232              	.LVL5:
 233              	.LFB2:
  38:src/pdantler/pdlogger.c **** 
  39:src/pdantler/pdlogger.c **** void pdlogger_error(const char *message, ...) {
 234              		.loc 1 39 47 is_stmt 1 view -0
 235              		.cfi_startproc
 236              		@ args = 4, pretend = 16, frame = 408
 237              		@ frame_needed = 0, uses_anonymous_args = 1
  40:src/pdantler/pdlogger.c ****   if (logger.log_appender_fn) {
 238              		.loc 1 40 3 view .LVU22
 239              	@ src/pdantler/pdlogger.c:39: void pdlogger_error(const char *message, ...) {
  39:src/pdantler/pdlogger.c ****   if (logger.log_appender_fn) {
 240              		.loc 1 39 47 is_stmt 0 view .LVU23
 241 0000 0FB4     		push	{r0, r1, r2, r3}	@
ARM GAS  /tmp/ccS8T3ln.s 			page 6


 242              	.LCFI6:
 243              		.cfi_def_cfa_offset 16
 244              		.cfi_offset 0, -16
 245              		.cfi_offset 1, -12
 246              		.cfi_offset 2, -8
 247              		.cfi_offset 3, -4
 248 0002 10B5     		push	{r4, lr}	@
 249              	.LCFI7:
 250              		.cfi_def_cfa_offset 24
 251              		.cfi_offset 4, -24
 252              		.cfi_offset 14, -20
 253              	@ src/pdantler/pdlogger.c:40:   if (logger.log_appender_fn) {
 254              		.loc 1 40 13 view .LVU24
 255 0004 124C     		ldr	r4, .L19	@ tmp119,
 256              	@ src/pdantler/pdlogger.c:39: void pdlogger_error(const char *message, ...) {
  39:src/pdantler/pdlogger.c ****   if (logger.log_appender_fn) {
 257              		.loc 1 39 47 view .LVU25
 258 0006 E6B0     		sub	sp, sp, #408	@,,
 259              	.LCFI8:
 260              		.cfi_def_cfa_offset 432
 261              	@ src/pdantler/pdlogger.c:40:   if (logger.log_appender_fn) {
 262              		.loc 1 40 6 view .LVU26
 263 0008 2368     		ldr	r3, [r4]	@ logger.log_appender_fn, logger.log_appender_fn
 264 000a DBB1     		cbz	r3, .L13	@ logger.log_appender_fn,
 265              	.LBB3:
  41:src/pdantler/pdlogger.c ****     char log_buffer[LOG_BUFFER_SIZE] = "[ERROR] ";
 266              		.loc 1 41 5 is_stmt 1 view .LVU27
 267              	@ src/pdantler/pdlogger.c:41:     char log_buffer[LOG_BUFFER_SIZE] = "[ERROR] ";
 268              		.loc 1 41 10 is_stmt 0 view .LVU28
 269 000c 114A     		ldr	r2, .L19+4	@ tmp126,
 270 000e 02AB     		add	r3, sp, #8	@ tmp150,,
 271 0010 07CA     		ldm	r2, {r0, r1, r2}	@ tmp126,,,
 272 0012 03C3     		stmia	r3!, {r0, r1}	@ tmp125,,
 273 0014 0021     		movs	r1, #0	@,
 274 0016 1A70     		strb	r2, [r3]	@, log_buffer
 275 0018 0DF11100 		add	r0, sp, #17	@,,
 276 001c 40F28712 		movw	r2, #391	@,
 277 0020 FFF7FEFF 		bl	memset		@
 278              	.LVL6:
  42:src/pdantler/pdlogger.c ****     va_list va;
 279              		.loc 1 42 5 is_stmt 1 view .LVU29
  43:src/pdantler/pdlogger.c ****     va_start(va, message);
 280              		.loc 1 43 5 view .LVU30
 281 0024 69AB     		add	r3, sp, #420	@ tmp130,,
 282              	@ src/pdantler/pdlogger.c:44:     vsnprintf(log_buffer + LOG_BUFFER_PREFIX_SIZE,
  44:src/pdantler/pdlogger.c ****     vsnprintf(log_buffer + LOG_BUFFER_PREFIX_SIZE,
 283              		.loc 1 44 5 is_stmt 0 view .LVU31
 284 0026 689A     		ldr	r2, [sp, #416]	@, message
 285 0028 4FF4C471 		mov	r1, #392	@,
 286 002c 04A8     		add	r0, sp, #16	@,,
 287              	@ src/pdantler/pdlogger.c:43:     va_start(va, message);
  43:src/pdantler/pdlogger.c ****     va_start(va, message);
 288              		.loc 1 43 5 view .LVU32
 289 002e 0193     		str	r3, [sp, #4]	@ tmp130, MEM[(struct  *)&va].__ap
 290              		.loc 1 44 5 is_stmt 1 view .LVU33
 291 0030 FFF7FEFF 		bl	vsnprintf_		@
 292              	.LVL7:
ARM GAS  /tmp/ccS8T3ln.s 			page 7


  45:src/pdantler/pdlogger.c ****               LOG_BUFFER_SIZE - LOG_BUFFER_PREFIX_SIZE, message, va);
  46:src/pdantler/pdlogger.c ****     logger.log_appender_fn(log_buffer, logger.userdata);
 293              		.loc 1 46 5 view .LVU34
 294 0034 6168     		ldr	r1, [r4, #4]	@, logger.userdata
 295 0036 02A8     		add	r0, sp, #8	@ tmp151,,
 296 0038 2368     		ldr	r3, [r4]	@ logger.log_appender_fn, logger.log_appender_fn
 297 003a 9847     		blx	r3		@ logger.log_appender_fn
 298              	.LVL8:
  47:src/pdantler/pdlogger.c ****     va_end(va);
 299              		.loc 1 47 5 view .LVU35
  48:src/pdantler/pdlogger.c ****     logger.log_appender_fn(message, logger.userdata);
 300              		.loc 1 48 5 view .LVU36
 301 003c 6898     		ldr	r0, [sp, #416]	@, message
 302 003e D4E90031 		ldrd	r3, r1, [r4]	@ logger.log_appender_fn,, tmp119
 303 0042 9847     		blx	r3		@ logger.log_appender_fn
 304              	.LVL9:
 305              	.L13:
 306              	.LBE3:
 307              	@ src/pdantler/pdlogger.c:50: }
  49:src/pdantler/pdlogger.c ****   }
  50:src/pdantler/pdlogger.c **** }
 308              		.loc 1 50 1 is_stmt 0 view .LVU37
 309 0044 66B0     		add	sp, sp, #408	@,,
 310              	.LCFI9:
 311              		.cfi_def_cfa_offset 24
 312              		@ sp needed	@
 313 0046 BDE81040 		pop	{r4, lr}	@
 314              	.LCFI10:
 315              		.cfi_restore 14
 316              		.cfi_restore 4
 317              		.cfi_def_cfa_offset 16
 318 004a 04B0     		add	sp, sp, #16	@,,
 319              	.LCFI11:
 320              		.cfi_restore 3
 321              		.cfi_restore 2
 322              		.cfi_restore 1
 323              		.cfi_restore 0
 324              		.cfi_def_cfa_offset 0
 325 004c 7047     		bx	lr	@
 326              	.L20:
 327 004e 00BF     		.align	2
 328              	.L19:
 329 0050 00000000 		.word	.LANCHOR0
 330 0054 90010000 		.word	.LANCHOR1+400
 331              		.cfi_endproc
 332              	.LFE2:
 333              		.size	pdlogger_error, .-pdlogger_error
 334              		.section	.text._putchar,"ax",%progbits
 335              		.align	1
 336              		.p2align 4,,15
 337              		.global	_putchar
 338              		.syntax unified
 339              		.thumb
 340              		.thumb_func
 341              		.fpu fpv5-sp-d16
 342              		.type	_putchar, %function
 343              	_putchar:
ARM GAS  /tmp/ccS8T3ln.s 			page 8


 344              	.LVL10:
 345              	.LFB3:
  51:src/pdantler/pdlogger.c **** 
  52:src/pdantler/pdlogger.c **** // For use with printf.h
  53:src/pdantler/pdlogger.c **** // The printf functions are unused so this can be a stub
  54:src/pdantler/pdlogger.c **** void _putchar(char character) {}
 346              		.loc 1 54 31 is_stmt 1 view -0
 347              		.cfi_startproc
 348              		@ args = 0, pretend = 0, frame = 0
 349              		@ frame_needed = 0, uses_anonymous_args = 0
 350              		@ link register save eliminated.
 351              		.loc 1 54 32 view .LVU39
 352 0000 7047     		bx	lr	@
 353              		.cfi_endproc
 354              	.LFE3:
 355              		.size	_putchar, .-_putchar
 356 0002 00BF     		.section	.rodata
 357              		.align	2
 358              		.set	.LANCHOR1,. + 0
 359              	.LC0:
 360 0000 5B494E46 		.ascii	"[INFO ] \000"
 360      4F205D20 
 360      00
 361 0009 00000000 		.space	391
 361      00000000 
 361      00000000 
 361      00000000 
 361      00000000 
 362              	.LC1:
 363 0190 5B455252 		.ascii	"[ERROR] \000"
 363      4F525D20 
 363      00
 364 0199 00000000 		.space	391
 364      00000000 
 364      00000000 
 364      00000000 
 364      00000000 
 365              		.section	.bss.logger,"aw",%nobits
 366              		.align	2
 367              		.set	.LANCHOR0,. + 0
 368              		.type	logger, %object
 369              		.size	logger, 8
 370              	logger:
 371 0000 00000000 		.space	8
 371      00000000 
 372              		.text
 373              	.Letext0:
 374              		.file 2 "src/pdantler/pdlogger.h"
 375              		.file 3 "/usr/lib/gcc/arm-none-eabi/10.3.1/include/stdarg.h"
 376              		.file 4 "<built-in>"
 377              		.file 5 "src/pdantler/printf.h"