ARM GAS  /tmp/ccFy9xbE.s 			page 1


   1              		.cpu cortex-m7
   2              		.eabi_attribute 27, 1	@ Tag_ABI_HardFP_use
   3              		.eabi_attribute 28, 1	@ Tag_ABI_VFP_args
   4              		.eabi_attribute 20, 1	@ Tag_ABI_FP_denormal
   5              		.eabi_attribute 21, 1	@ Tag_ABI_FP_exceptions
   6              		.eabi_attribute 23, 3	@ Tag_ABI_FP_number_model
   7              		.eabi_attribute 24, 1	@ Tag_ABI_align8_needed
   8              		.eabi_attribute 25, 1	@ Tag_ABI_align8_preserved
   9              		.eabi_attribute 26, 1	@ Tag_ABI_enum_size
  10              		.eabi_attribute 30, 2	@ Tag_ABI_optimization_goals
  11              		.eabi_attribute 34, 1	@ Tag_CPU_unaligned_access
  12              		.eabi_attribute 18, 4	@ Tag_ABI_PCS_wchar_t
  13              		.file	"printf.c"
  14              	@ GNU C17 (15:10.3-2021.07-4) version 10.3.1 20210621 (release) (arm-none-eabi)
  15              	@	compiled by GNU C version 11.2.0, GMP version 6.2.1, MPFR version 4.1.0, MPC version 1.2.1, isl v
  16              	
  17              	@ GGC heuristics: --param ggc-min-expand=100 --param ggc-min-heapsize=131072
  18              	@ options passed:  -I . -I .
  19              	@ -I /home/mchristensen/src/PlaydateSDK-2.2.0/C_API
  20              	@ -imultilib thumb/v7e-m+fp/hard -MD build/src/pdantler/printf.d
  21              	@ -MF build/dep/printf.o.d -MP -MQ build/src/pdantler/printf.o
  22              	@ -D__USES_INITFINI__ -D __FPU_USED=1 -D TARGET_PLAYDATE=1
  23              	@ -D TARGET_EXTENSION=1 src/pdantler/printf.c -mthumb -mcpu=cortex-m7
  24              	@ -mfloat-abi=hard -mfpu=fpv5-sp-d16 -mword-relocations
  25              	@ -mlibarch=armv7e-m+fpv5 -march=armv7e-m+fpv5
  26              	@ -auxbase-strip build/src/pdantler/printf.o -g3 -gdwarf-2 -O2 -Wall
  27              	@ -Wno-unused -Wstrict-prototypes -Wno-unknown-pragmas -Wdouble-promotion
  28              	@ -falign-functions=16 -fomit-frame-pointer -fverbose-asm -fno-common
  29              	@ -ffunction-sections -fdata-sections
  30              	@ options enabled:  -faggressive-loop-optimizations -falign-functions
  31              	@ -falign-jumps -falign-labels -falign-loops -fallocation-dce
  32              	@ -fauto-inc-dec -fbranch-count-reg -fcaller-saves
  33              	@ -fcombine-stack-adjustments -fcompare-elim -fcprop-registers
  34              	@ -fcrossjumping -fcse-follow-jumps -fdata-sections -fdefer-pop
  35              	@ -fdelete-null-pointer-checks -fdevirtualize -fdevirtualize-speculatively
  36              	@ -fdwarf2-cfi-asm -fearly-inlining -feliminate-unused-debug-symbols
  37              	@ -feliminate-unused-debug-types -fexpensive-optimizations
  38              	@ -fforward-propagate -ffp-int-builtin-inexact -ffunction-cse
  39              	@ -ffunction-sections -fgcse -fgcse-lm -fgnu-unique
  40              	@ -fguess-branch-probability -fhoist-adjacent-loads -fident -fif-conversion
  41              	@ -fif-conversion2 -findirect-inlining -finline -finline-atomics
  42              	@ -finline-functions -finline-functions-called-once
  43              	@ -finline-small-functions -fipa-bit-cp -fipa-cp -fipa-icf
  44              	@ -fipa-icf-functions -fipa-icf-variables -fipa-profile -fipa-pure-const
  45              	@ -fipa-ra -fipa-reference -fipa-reference-addressable -fipa-sra
  46              	@ -fipa-stack-alignment -fipa-vrp -fira-hoist-pressure
  47              	@ -fira-share-save-slots -fira-share-spill-slots
  48              	@ -fisolate-erroneous-paths-dereference -fivopts -fkeep-static-consts
  49              	@ -fleading-underscore -flifetime-dse -flra-remat -fmath-errno
  50              	@ -fmerge-constants -fmerge-debug-strings -fmove-loop-invariants
  51              	@ -fomit-frame-pointer -foptimize-sibling-calls -foptimize-strlen
  52              	@ -fpartial-inlining -fpeephole -fpeephole2 -fplt -fprefetch-loop-arrays
  53              	@ -freg-struct-return -freorder-blocks -freorder-functions
  54              	@ -frerun-cse-after-loop -fsched-critical-path-heuristic
  55              	@ -fsched-dep-count-heuristic -fsched-group-heuristic -fsched-interblock
  56              	@ -fsched-last-insn-heuristic -fsched-pressure -fsched-rank-heuristic
  57              	@ -fsched-spec -fsched-spec-insn-heuristic -fsched-stalled-insns-dep
ARM GAS  /tmp/ccFy9xbE.s 			page 2


  58              	@ -fschedule-insns -fschedule-insns2 -fsection-anchors
  59              	@ -fsemantic-interposition -fshow-column -fshrink-wrap
  60              	@ -fshrink-wrap-separate -fsigned-zeros -fsplit-ivs-in-unroller
  61              	@ -fsplit-wide-types -fssa-backprop -fssa-phiopt -fstdarg-opt
  62              	@ -fstore-merging -fstrict-aliasing -fstrict-volatile-bitfields
  63              	@ -fsync-libcalls -fthread-jumps -ftoplevel-reorder -ftrapping-math
  64              	@ -ftree-bit-ccp -ftree-builtin-call-dce -ftree-ccp -ftree-ch
  65              	@ -ftree-coalesce-vars -ftree-copy-prop -ftree-cselim -ftree-dce
  66              	@ -ftree-dominator-opts -ftree-dse -ftree-forwprop -ftree-fre
  67              	@ -ftree-loop-distribute-patterns -ftree-loop-if-convert -ftree-loop-im
  68              	@ -ftree-loop-ivcanon -ftree-loop-optimize -ftree-parallelize-loops=
  69              	@ -ftree-phiprop -ftree-pre -ftree-pta -ftree-reassoc -ftree-scev-cprop
  70              	@ -ftree-sink -ftree-slsr -ftree-sra -ftree-switch-conversion
  71              	@ -ftree-tail-merge -ftree-ter -ftree-vrp -funit-at-a-time -fvar-tracking
  72              	@ -fvar-tracking-assignments -fverbose-asm -fzero-initialized-in-bss
  73              	@ -masm-syntax-unified -mbe32 -mlittle-endian -mpic-data-is-text-relative
  74              	@ -msched-prolog -mthumb -munaligned-access -mvectorize-with-neon-quad
  75              	@ -mword-relocations
  76              	
  77              		.text
  78              	.Ltext0:
  79              		.cfi_sections	.debug_frame
  80              		.section	.text._out_buffer,"ax",%progbits
  81              		.align	1
  82              		.p2align 4,,15
  83              		.arch armv7e-m
  84              		.syntax unified
  85              		.thumb
  86              		.thumb_func
  87              		.fpu fpv5-sp-d16
  88              		.type	_out_buffer, %function
  89              	_out_buffer:
  90              	.LVL0:
  91              	.LFB0:
  92              		.file 1 "src/pdantler/printf.c"
   1:src/pdantler/printf.c **** ///////////////////////////////////////////////////////////////////////////////
   2:src/pdantler/printf.c **** // \author (c) Marco Paland (info@paland.com)
   3:src/pdantler/printf.c **** //             2014-2019, PALANDesign Hannover, Germany
   4:src/pdantler/printf.c **** //
   5:src/pdantler/printf.c **** // \license The MIT License (MIT)
   6:src/pdantler/printf.c **** //
   7:src/pdantler/printf.c **** // Permission is hereby granted, free of charge, to any person obtaining a copy
   8:src/pdantler/printf.c **** // of this software and associated documentation files (the "Software"), to deal
   9:src/pdantler/printf.c **** // in the Software without restriction, including without limitation the rights
  10:src/pdantler/printf.c **** // to use, copy, modify, merge, publish, distribute, sublicense, and/or sell
  11:src/pdantler/printf.c **** // copies of the Software, and to permit persons to whom the Software is
  12:src/pdantler/printf.c **** // furnished to do so, subject to the following conditions:
  13:src/pdantler/printf.c **** //
  14:src/pdantler/printf.c **** // The above copyright notice and this permission notice shall be included in
  15:src/pdantler/printf.c **** // all copies or substantial portions of the Software.
  16:src/pdantler/printf.c **** //
  17:src/pdantler/printf.c **** // THE SOFTWARE IS PROVIDED "AS IS", WITHOUT WARRANTY OF ANY KIND, EXPRESS OR
  18:src/pdantler/printf.c **** // IMPLIED, INCLUDING BUT NOT LIMITED TO THE WARRANTIES OF MERCHANTABILITY,
  19:src/pdantler/printf.c **** // FITNESS FOR A PARTICULAR PURPOSE AND NONINFRINGEMENT. IN NO EVENT SHALL THE
  20:src/pdantler/printf.c **** // AUTHORS OR COPYRIGHT HOLDERS BE LIABLE FOR ANY CLAIM, DAMAGES OR OTHER
  21:src/pdantler/printf.c **** // LIABILITY, WHETHER IN AN ACTION OF CONTRACT, TORT OR OTHERWISE, ARISING FROM,
  22:src/pdantler/printf.c **** // OUT OF OR IN CONNECTION WITH THE SOFTWARE OR THE USE OR OTHER DEALINGS IN
ARM GAS  /tmp/ccFy9xbE.s 			page 3


  23:src/pdantler/printf.c **** // THE SOFTWARE.
  24:src/pdantler/printf.c **** //
  25:src/pdantler/printf.c **** // \brief Tiny printf, sprintf and (v)snprintf implementation, optimized for
  26:src/pdantler/printf.c **** // speed on
  27:src/pdantler/printf.c **** //        embedded systems with a very limited resources. These routines are
  28:src/pdantler/printf.c **** //        thread safe and reentrant! Use this instead of the bloated
  29:src/pdantler/printf.c **** //        standard/newlib printf cause these use malloc for printf (and may not
  30:src/pdantler/printf.c **** //        be thread safe).
  31:src/pdantler/printf.c **** //
  32:src/pdantler/printf.c **** ///////////////////////////////////////////////////////////////////////////////
  33:src/pdantler/printf.c **** 
  34:src/pdantler/printf.c **** #include <stdbool.h>
  35:src/pdantler/printf.c **** #include <stdint.h>
  36:src/pdantler/printf.c **** 
  37:src/pdantler/printf.c **** #include "printf.h"
  38:src/pdantler/printf.c **** 
  39:src/pdantler/printf.c **** // define this globally (e.g. gcc -DPRINTF_INCLUDE_CONFIG_H ...) to include the
  40:src/pdantler/printf.c **** // printf_config.h header file
  41:src/pdantler/printf.c **** // default: undefined
  42:src/pdantler/printf.c **** #ifdef PRINTF_INCLUDE_CONFIG_H
  43:src/pdantler/printf.c **** #include "printf_config.h"
  44:src/pdantler/printf.c **** #endif
  45:src/pdantler/printf.c **** 
  46:src/pdantler/printf.c **** // 'ntoa' conversion buffer size, this must be big enough to hold one converted
  47:src/pdantler/printf.c **** // numeric number including padded zeros (dynamically created on stack)
  48:src/pdantler/printf.c **** // default: 32 byte
  49:src/pdantler/printf.c **** #ifndef PRINTF_NTOA_BUFFER_SIZE
  50:src/pdantler/printf.c **** #define PRINTF_NTOA_BUFFER_SIZE 32U
  51:src/pdantler/printf.c **** #endif
  52:src/pdantler/printf.c **** 
  53:src/pdantler/printf.c **** // 'ftoa' conversion buffer size, this must be big enough to hold one converted
  54:src/pdantler/printf.c **** // float number including padded zeros (dynamically created on stack)
  55:src/pdantler/printf.c **** // default: 32 byte
  56:src/pdantler/printf.c **** #ifndef PRINTF_FTOA_BUFFER_SIZE
  57:src/pdantler/printf.c **** #define PRINTF_FTOA_BUFFER_SIZE 32U
  58:src/pdantler/printf.c **** #endif
  59:src/pdantler/printf.c **** 
  60:src/pdantler/printf.c **** // support for the floating point type (%f)
  61:src/pdantler/printf.c **** // default: activated
  62:src/pdantler/printf.c **** #ifndef PRINTF_DISABLE_SUPPORT_FLOAT
  63:src/pdantler/printf.c **** #define PRINTF_SUPPORT_FLOAT
  64:src/pdantler/printf.c **** #endif
  65:src/pdantler/printf.c **** 
  66:src/pdantler/printf.c **** // support for exponential floating point notation (%e/%g)
  67:src/pdantler/printf.c **** // default: activated
  68:src/pdantler/printf.c **** #ifndef PRINTF_DISABLE_SUPPORT_EXPONENTIAL
  69:src/pdantler/printf.c **** #define PRINTF_SUPPORT_EXPONENTIAL
  70:src/pdantler/printf.c **** #endif
  71:src/pdantler/printf.c **** 
  72:src/pdantler/printf.c **** // define the default floating point precision
  73:src/pdantler/printf.c **** // default: 6 digits
  74:src/pdantler/printf.c **** #ifndef PRINTF_DEFAULT_FLOAT_PRECISION
  75:src/pdantler/printf.c **** #define PRINTF_DEFAULT_FLOAT_PRECISION 6U
  76:src/pdantler/printf.c **** #endif
  77:src/pdantler/printf.c **** 
  78:src/pdantler/printf.c **** // define the largest float suitable to print with %f
  79:src/pdantler/printf.c **** // default: 1e9
ARM GAS  /tmp/ccFy9xbE.s 			page 4


  80:src/pdantler/printf.c **** #ifndef PRINTF_MAX_FLOAT
  81:src/pdantler/printf.c **** #define PRINTF_MAX_FLOAT 1e9
  82:src/pdantler/printf.c **** #endif
  83:src/pdantler/printf.c **** 
  84:src/pdantler/printf.c **** // support for the long long types (%llu or %p)
  85:src/pdantler/printf.c **** // default: activated
  86:src/pdantler/printf.c **** #ifndef PRINTF_DISABLE_SUPPORT_LONG_LONG
  87:src/pdantler/printf.c **** #define PRINTF_SUPPORT_LONG_LONG
  88:src/pdantler/printf.c **** #endif
  89:src/pdantler/printf.c **** 
  90:src/pdantler/printf.c **** // support for the ptrdiff_t type (%t)
  91:src/pdantler/printf.c **** // ptrdiff_t is normally defined in <stddef.h> as long or long long type
  92:src/pdantler/printf.c **** // default: activated
  93:src/pdantler/printf.c **** #ifndef PRINTF_DISABLE_SUPPORT_PTRDIFF_T
  94:src/pdantler/printf.c **** #define PRINTF_SUPPORT_PTRDIFF_T
  95:src/pdantler/printf.c **** #endif
  96:src/pdantler/printf.c **** 
  97:src/pdantler/printf.c **** ///////////////////////////////////////////////////////////////////////////////
  98:src/pdantler/printf.c **** 
  99:src/pdantler/printf.c **** // internal flag definitions
 100:src/pdantler/printf.c **** #define FLAGS_ZEROPAD (1U << 0U)
 101:src/pdantler/printf.c **** #define FLAGS_LEFT (1U << 1U)
 102:src/pdantler/printf.c **** #define FLAGS_PLUS (1U << 2U)
 103:src/pdantler/printf.c **** #define FLAGS_SPACE (1U << 3U)
 104:src/pdantler/printf.c **** #define FLAGS_HASH (1U << 4U)
 105:src/pdantler/printf.c **** #define FLAGS_UPPERCASE (1U << 5U)
 106:src/pdantler/printf.c **** #define FLAGS_CHAR (1U << 6U)
 107:src/pdantler/printf.c **** #define FLAGS_SHORT (1U << 7U)
 108:src/pdantler/printf.c **** #define FLAGS_LONG (1U << 8U)
 109:src/pdantler/printf.c **** #define FLAGS_LONG_LONG (1U << 9U)
 110:src/pdantler/printf.c **** #define FLAGS_PRECISION (1U << 10U)
 111:src/pdantler/printf.c **** #define FLAGS_ADAPT_EXP (1U << 11U)
 112:src/pdantler/printf.c **** 
 113:src/pdantler/printf.c **** // import float.h for DBL_MAX
 114:src/pdantler/printf.c **** #if defined(PRINTF_SUPPORT_FLOAT)
 115:src/pdantler/printf.c **** #include <float.h>
 116:src/pdantler/printf.c **** #endif
 117:src/pdantler/printf.c **** 
 118:src/pdantler/printf.c **** // output function type
 119:src/pdantler/printf.c **** typedef void (*out_fct_type)(char character, void *buffer, size_t idx,
 120:src/pdantler/printf.c ****                              size_t maxlen);
 121:src/pdantler/printf.c **** 
 122:src/pdantler/printf.c **** // wrapper (used as buffer) for output function type
 123:src/pdantler/printf.c **** typedef struct {
 124:src/pdantler/printf.c ****   void (*fct)(char character, void *arg);
 125:src/pdantler/printf.c ****   void *arg;
 126:src/pdantler/printf.c **** } out_fct_wrap_type;
 127:src/pdantler/printf.c **** 
 128:src/pdantler/printf.c **** // internal buffer output
 129:src/pdantler/printf.c **** static inline void _out_buffer(char character, void *buffer, size_t idx,
 130:src/pdantler/printf.c ****                                size_t maxlen) {
  93              		.loc 1 130 47 view -0
  94              		.cfi_startproc
  95              		@ args = 0, pretend = 0, frame = 0
  96              		@ frame_needed = 0, uses_anonymous_args = 0
  97              		@ link register save eliminated.
 131:src/pdantler/printf.c ****   if (idx < maxlen) {
ARM GAS  /tmp/ccFy9xbE.s 			page 5


  98              		.loc 1 131 3 view .LVU1
  99              	@ src/pdantler/printf.c:131:   if (idx < maxlen) {
 100              		.loc 1 131 6 is_stmt 0 view .LVU2
 101 0000 9A42     		cmp	r2, r3	@ idx, tmp123
 132:src/pdantler/printf.c ****     ((char *)buffer)[idx] = character;
 102              		.loc 1 132 5 is_stmt 1 view .LVU3
 103              	@ src/pdantler/printf.c:132:     ((char *)buffer)[idx] = character;
 104              		.loc 1 132 27 is_stmt 0 view .LVU4
 105 0002 38BF     		it	cc
 106 0004 8854     		strbcc	r0, [r1, r2]	@ character, *_1
 107              	@ src/pdantler/printf.c:134: }
 133:src/pdantler/printf.c ****   }
 134:src/pdantler/printf.c **** }
 108              		.loc 1 134 1 view .LVU5
 109 0006 7047     		bx	lr	@
 110              		.cfi_endproc
 111              	.LFE0:
 112              		.size	_out_buffer, .-_out_buffer
 113              		.section	.text._out_null,"ax",%progbits
 114              		.align	1
 115              		.p2align 4,,15
 116              		.syntax unified
 117              		.thumb
 118              		.thumb_func
 119              		.fpu fpv5-sp-d16
 120              		.type	_out_null, %function
 121              	_out_null:
 122              	.LVL1:
 123              	.LFB1:
 135:src/pdantler/printf.c **** 
 136:src/pdantler/printf.c **** // internal null output
 137:src/pdantler/printf.c **** static inline void _out_null(char character, void *buffer, size_t idx,
 138:src/pdantler/printf.c ****                              size_t maxlen) {
 124              		.loc 1 138 45 is_stmt 1 view -0
 125              		.cfi_startproc
 126              		@ args = 0, pretend = 0, frame = 0
 127              		@ frame_needed = 0, uses_anonymous_args = 0
 128              		@ link register save eliminated.
 139:src/pdantler/printf.c ****   (void)character;
 129              		.loc 1 139 3 view .LVU7
 140:src/pdantler/printf.c ****   (void)buffer;
 130              		.loc 1 140 3 view .LVU8
 141:src/pdantler/printf.c ****   (void)idx;
 131              		.loc 1 141 3 view .LVU9
 142:src/pdantler/printf.c ****   (void)maxlen;
 132              		.loc 1 142 3 view .LVU10
 133              	@ src/pdantler/printf.c:143: }
 143:src/pdantler/printf.c **** }
 134              		.loc 1 143 1 is_stmt 0 view .LVU11
 135 0000 7047     		bx	lr	@
 136              		.cfi_endproc
 137              	.LFE1:
 138              		.size	_out_null, .-_out_null
 139 0002 00BF     		.section	.text._out_rev,"ax",%progbits
 140              		.align	1
 141              		.p2align 4,,15
 142              		.syntax unified
ARM GAS  /tmp/ccFy9xbE.s 			page 6


 143              		.thumb
 144              		.thumb_func
 145              		.fpu fpv5-sp-d16
 146              		.type	_out_rev, %function
 147              	_out_rev:
 148              	.LVL2:
 149              	.LFB7:
 144:src/pdantler/printf.c **** 
 145:src/pdantler/printf.c **** // internal _putchar wrapper
 146:src/pdantler/printf.c **** static inline void _out_char(char character, void *buffer, size_t idx,
 147:src/pdantler/printf.c ****                              size_t maxlen) {
 148:src/pdantler/printf.c ****   (void)buffer;
 149:src/pdantler/printf.c ****   (void)idx;
 150:src/pdantler/printf.c ****   (void)maxlen;
 151:src/pdantler/printf.c ****   if (character) {
 152:src/pdantler/printf.c ****     _putchar(character);
 153:src/pdantler/printf.c ****   }
 154:src/pdantler/printf.c **** }
 155:src/pdantler/printf.c **** 
 156:src/pdantler/printf.c **** // internal output function wrapper
 157:src/pdantler/printf.c **** static inline void _out_fct(char character, void *buffer, size_t idx,
 158:src/pdantler/printf.c ****                             size_t maxlen) {
 159:src/pdantler/printf.c ****   (void)idx;
 160:src/pdantler/printf.c ****   (void)maxlen;
 161:src/pdantler/printf.c ****   if (character) {
 162:src/pdantler/printf.c ****     // buffer is the output fct pointer
 163:src/pdantler/printf.c ****     ((out_fct_wrap_type *)buffer)
 164:src/pdantler/printf.c ****         ->fct(character, ((out_fct_wrap_type *)buffer)->arg);
 165:src/pdantler/printf.c ****   }
 166:src/pdantler/printf.c **** }
 167:src/pdantler/printf.c **** 
 168:src/pdantler/printf.c **** // internal secure strlen
 169:src/pdantler/printf.c **** // \return The length of the string (excluding the terminating 0) limited by
 170:src/pdantler/printf.c **** // 'maxsize'
 171:src/pdantler/printf.c **** static inline unsigned int _strnlen_s(const char *str, size_t maxsize) {
 172:src/pdantler/printf.c ****   const char *s;
 173:src/pdantler/printf.c ****   for (s = str; *s && maxsize--; ++s)
 174:src/pdantler/printf.c ****     ;
 175:src/pdantler/printf.c ****   return (unsigned int)(s - str);
 176:src/pdantler/printf.c **** }
 177:src/pdantler/printf.c **** 
 178:src/pdantler/printf.c **** // internal test if char is a digit (0-9)
 179:src/pdantler/printf.c **** // \return true if char is a digit
 180:src/pdantler/printf.c **** static inline bool _is_digit(char ch) { return (ch >= '0') && (ch <= '9'); }
 181:src/pdantler/printf.c **** 
 182:src/pdantler/printf.c **** // internal ASCII string to unsigned int conversion
 183:src/pdantler/printf.c **** static unsigned int _atoi(const char **str) {
 184:src/pdantler/printf.c ****   unsigned int i = 0U;
 185:src/pdantler/printf.c ****   while (_is_digit(**str)) {
 186:src/pdantler/printf.c ****     i = i * 10U + (unsigned int)(*((*str)++) - '0');
 187:src/pdantler/printf.c ****   }
 188:src/pdantler/printf.c ****   return i;
 189:src/pdantler/printf.c **** }
 190:src/pdantler/printf.c **** 
 191:src/pdantler/printf.c **** // output the specified string in reverse, taking care of any zero-padding
 192:src/pdantler/printf.c **** static size_t _out_rev(out_fct_type out, char *buffer, size_t idx,
 193:src/pdantler/printf.c ****                        size_t maxlen, const char *buf, size_t len,
ARM GAS  /tmp/ccFy9xbE.s 			page 7


 194:src/pdantler/printf.c ****                        unsigned int width, unsigned int flags) {
 150              		.loc 1 194 64 is_stmt 1 view -0
 151              		.cfi_startproc
 152              		@ args = 16, pretend = 0, frame = 0
 153              		@ frame_needed = 0, uses_anonymous_args = 0
 154              		.loc 1 194 64 is_stmt 0 view .LVU13
 155 0000 2DE9F84F 		push	{r3, r4, r5, r6, r7, r8, r9, r10, fp, lr}	@
 156              	.LCFI0:
 157              		.cfi_def_cfa_offset 40
 158              		.cfi_offset 3, -40
 159              		.cfi_offset 4, -36
 160              		.cfi_offset 5, -32
 161              		.cfi_offset 6, -28
 162              		.cfi_offset 7, -24
 163              		.cfi_offset 8, -20
 164              		.cfi_offset 9, -16
 165              		.cfi_offset 10, -12
 166              		.cfi_offset 11, -8
 167              		.cfi_offset 14, -4
 168              	@ src/pdantler/printf.c:194:                        unsigned int width, unsigned int flags) {
 169              		.loc 1 194 64 view .LVU14
 170 0004 9A46     		mov	r10, r3	@ maxlen, tmp149
 195:src/pdantler/printf.c ****   const size_t start_idx = idx;
 171              		.loc 1 195 3 is_stmt 1 view .LVU15
 172              	@ src/pdantler/printf.c:198:   if (!(flags & FLAGS_LEFT) && !(flags & FLAGS_ZEROPAD)) {
 196:src/pdantler/printf.c **** 
 197:src/pdantler/printf.c ****   // pad spaces up to given width
 198:src/pdantler/printf.c ****   if (!(flags & FLAGS_LEFT) && !(flags & FLAGS_ZEROPAD)) {
 173              		.loc 1 198 6 is_stmt 0 view .LVU16
 174 0006 0D9B     		ldr	r3, [sp, #52]	@ tmp172, flags
 175              	.LVL3:
 176              	@ src/pdantler/printf.c:194:                        unsigned int width, unsigned int flags) {
 194:src/pdantler/printf.c ****   const size_t start_idx = idx;
 177              		.loc 1 194 64 view .LVU17
 178 0008 1746     		mov	r7, r2	@ idx, tmp148
 179              	.LVL4:
 180              		.loc 1 198 3 is_stmt 1 view .LVU18
 181              	@ src/pdantler/printf.c:194:                        unsigned int width, unsigned int flags) {
 194:src/pdantler/printf.c ****   const size_t start_idx = idx;
 182              		.loc 1 194 64 is_stmt 0 view .LVU19
 183 000a 0646     		mov	r6, r0	@ out, tmp146
 184              	@ src/pdantler/printf.c:198:   if (!(flags & FLAGS_LEFT) && !(flags & FLAGS_ZEROPAD)) {
 185              		.loc 1 198 6 view .LVU20
 186 000c 9A07     		lsls	r2, r3, #30	@, tmp172,
 187              	.LVL5:
 188              	@ src/pdantler/printf.c:194:                        unsigned int width, unsigned int flags) {
 194:src/pdantler/printf.c ****   const size_t start_idx = idx;
 189              		.loc 1 194 64 view .LVU21
 190 000e 8B46     		mov	fp, r1	@ buffer, tmp147
 191 0010 DDF82880 		ldr	r8, [sp, #40]	@ buf, buf
 192              	@ src/pdantler/printf.c:198:   if (!(flags & FLAGS_LEFT) && !(flags & FLAGS_ZEROPAD)) {
 193              		.loc 1 198 6 view .LVU22
 194 0014 11D1     		bne	.L13		@,
 195              	.LVL6:
 196              	.LBB20:
 199:src/pdantler/printf.c ****     for (size_t i = len; i < width; i++) {
 197              		.loc 1 199 26 is_stmt 1 view .LVU23
ARM GAS  /tmp/ccFy9xbE.s 			page 8


 198              	@ src/pdantler/printf.c:199:     for (size_t i = len; i < width; i++) {
 199              		.loc 1 199 5 is_stmt 0 view .LVU24
 200 0016 DDE90B32 		ldrd	r3, r2, [sp, #44]	@ tmp173, tmp174,,
 201 001a 9342     		cmp	r3, r2	@ tmp173, tmp174
 202 001c 0DD2     		bcs	.L13		@,
 203 001e 1346     		mov	r3, r2	@ tmp175, tmp174
 204 0020 0B9A     		ldr	r2, [sp, #44]	@ tmp176, len
 205 0022 3C46     		mov	r4, r7	@ idx, idx
 206 0024 9D1A     		subs	r5, r3, r2	@ tmp138, tmp175, tmp176
 207 0026 3D44     		add	r5, r5, r7	@ <retval>, idx
 208              	.LVL7:
 209              	.L7:
 200:src/pdantler/printf.c ****       out(' ', buffer, idx++, maxlen);
 210              		.loc 1 200 7 is_stmt 1 discriminator 3 view .LVU25
 211 0028 2246     		mov	r2, r4	@ idx, idx
 212 002a 0134     		adds	r4, r4, #1	@ idx, idx,
 213              	.LVL8:
 214              		.loc 1 200 7 is_stmt 0 discriminator 3 view .LVU26
 215 002c 5346     		mov	r3, r10	@, maxlen
 216 002e 5946     		mov	r1, fp	@, buffer
 217 0030 2020     		movs	r0, #32	@,
 218 0032 B047     		blx	r6		@ out
 219              	.LVL9:
 199:src/pdantler/printf.c ****     for (size_t i = len; i < width; i++) {
 220              		.loc 1 199 37 is_stmt 1 discriminator 3 view .LVU27
 199:src/pdantler/printf.c ****     for (size_t i = len; i < width; i++) {
 221              		.loc 1 199 26 discriminator 3 view .LVU28
 222              	@ src/pdantler/printf.c:199:     for (size_t i = len; i < width; i++) {
 199:src/pdantler/printf.c ****     for (size_t i = len; i < width; i++) {
 223              		.loc 1 199 5 is_stmt 0 discriminator 3 view .LVU29
 224 0034 AC42     		cmp	r4, r5	@ idx, <retval>
 225 0036 F7D1     		bne	.L7		@,
 226 0038 00E0     		b	.L6		@
 227              	.LVL10:
 228              	.L13:
 229              	@ src/pdantler/printf.c:199:     for (size_t i = len; i < width; i++) {
 199:src/pdantler/printf.c ****     for (size_t i = len; i < width; i++) {
 230              		.loc 1 199 5 view .LVU30
 231 003a 3D46     		mov	r5, r7	@ <retval>, idx
 232              	.LVL11:
 233              	.L6:
 199:src/pdantler/printf.c ****     for (size_t i = len; i < width; i++) {
 234              		.loc 1 199 5 view .LVU31
 235              	.LBE20:
 201:src/pdantler/printf.c ****     }
 202:src/pdantler/printf.c ****   }
 203:src/pdantler/printf.c **** 
 204:src/pdantler/printf.c ****   // reverse string
 205:src/pdantler/printf.c ****   while (len) {
 236              		.loc 1 205 9 is_stmt 1 view .LVU32
 237 003c 0B9B     		ldr	r3, [sp, #44]	@ tmp177, len
 238 003e 73B1     		cbz	r3, .L8	@ tmp177,
 239 0040 08EB0304 		add	r4, r8, r3	@ ivtmp.159, buf, tmp178
 240 0044 04EB0509 		add	r9, r4, r5	@ tmp143, ivtmp.159, <retval>
 241              	.LVL12:
 242              	.L9:
 243              		.loc 1 205 9 is_stmt 0 view .LVU33
ARM GAS  /tmp/ccFy9xbE.s 			page 9


 244 0048 A9EB0402 		sub	r2, r9, r4	@ _43, tmp143, ivtmp.159
 245              	.LVL13:
 206:src/pdantler/printf.c ****     out(buf[--len], buffer, idx++, maxlen);
 246              		.loc 1 206 5 is_stmt 1 view .LVU34
 247              		.loc 1 206 5 is_stmt 0 view .LVU35
 248 004c 14F8010D 		ldrb	r0, [r4, #-1]!	@ zero_extendqisi2	@, MEM[base: _7, offset: 0B]
 249              	.LVL14:
 250              		.loc 1 206 5 view .LVU36
 251 0050 5346     		mov	r3, r10	@, maxlen
 252 0052 5946     		mov	r1, fp	@, buffer
 253 0054 B047     		blx	r6		@ out
 254              	.LVL15:
 205:src/pdantler/printf.c ****     out(buf[--len], buffer, idx++, maxlen);
 255              		.loc 1 205 9 is_stmt 1 view .LVU37
 256 0056 4445     		cmp	r4, r8	@ ivtmp.159, buf
 257 0058 F6D1     		bne	.L9		@,
 258              	@ src/pdantler/printf.c:206:     out(buf[--len], buffer, idx++, maxlen);
 259              		.loc 1 206 5 is_stmt 0 view .LVU38
 260 005a 0B9B     		ldr	r3, [sp, #44]	@ tmp179, len
 261 005c 1D44     		add	r5, r5, r3	@ <retval>, tmp179
 262              	.LVL16:
 263              	.L8:
 207:src/pdantler/printf.c ****   }
 208:src/pdantler/printf.c **** 
 209:src/pdantler/printf.c ****   // append pad spaces up to given width
 210:src/pdantler/printf.c ****   if (flags & FLAGS_LEFT) {
 264              		.loc 1 210 3 is_stmt 1 view .LVU39
 265              	@ src/pdantler/printf.c:210:   if (flags & FLAGS_LEFT) {
 266              		.loc 1 210 6 is_stmt 0 view .LVU40
 267 005e 0D9B     		ldr	r3, [sp, #52]	@ tmp180, flags
 268 0060 9B07     		lsls	r3, r3, #30	@, tmp180,
 269 0062 0DD5     		bpl	.L5		@,
 270              	.LVL17:
 211:src/pdantler/printf.c ****     while (idx - start_idx < width) {
 271              		.loc 1 211 11 is_stmt 1 view .LVU41
 272              	@ src/pdantler/printf.c:211:     while (idx - start_idx < width) {
 273              		.loc 1 211 16 is_stmt 0 view .LVU42
 274 0064 EF1B     		subs	r7, r5, r7	@ ivtmp.149, <retval>, idx
 275              	.LVL18:
 276              	@ src/pdantler/printf.c:211:     while (idx - start_idx < width) {
 277              		.loc 1 211 11 view .LVU43
 278 0066 0C9B     		ldr	r3, [sp, #48]	@ tmp181, width
 279 0068 BB42     		cmp	r3, r7	@ tmp181, ivtmp.149
 280 006a 09D9     		bls	.L5		@,
 281 006c 1C46     		mov	r4, r3	@ width, tmp181
 282              	.L11:
 212:src/pdantler/printf.c ****       out(' ', buffer, idx++, maxlen);
 283              		.loc 1 212 7 is_stmt 1 view .LVU44
 284              	@ src/pdantler/printf.c:211:     while (idx - start_idx < width) {
 211:src/pdantler/printf.c ****     while (idx - start_idx < width) {
 285              		.loc 1 211 11 is_stmt 0 view .LVU45
 286 006e 0137     		adds	r7, r7, #1	@ ivtmp.149, ivtmp.149,
 287 0070 2A46     		mov	r2, r5	@ idx, <retval>
 288              	@ src/pdantler/printf.c:212:       out(' ', buffer, idx++, maxlen);
 289              		.loc 1 212 7 view .LVU46
 290 0072 5346     		mov	r3, r10	@, maxlen
 291 0074 5946     		mov	r1, fp	@, buffer
ARM GAS  /tmp/ccFy9xbE.s 			page 10


 292 0076 2020     		movs	r0, #32	@,
 293 0078 0135     		adds	r5, r5, #1	@ <retval>, <retval>,
 294              	.LVL19:
 295              		.loc 1 212 7 view .LVU47
 296 007a B047     		blx	r6		@ out
 297              	.LVL20:
 211:src/pdantler/printf.c ****     while (idx - start_idx < width) {
 298              		.loc 1 211 11 is_stmt 1 view .LVU48
 299 007c A742     		cmp	r7, r4	@ ivtmp.149, width
 300 007e F6D3     		bcc	.L11		@,
 301              	.LVL21:
 302              	.L5:
 303              	@ src/pdantler/printf.c:217: }
 213:src/pdantler/printf.c ****     }
 214:src/pdantler/printf.c ****   }
 215:src/pdantler/printf.c **** 
 216:src/pdantler/printf.c ****   return idx;
 217:src/pdantler/printf.c **** }
 304              		.loc 1 217 1 is_stmt 0 view .LVU49
 305 0080 2846     		mov	r0, r5	@, <retval>
 306 0082 BDE8F88F 		pop	{r3, r4, r5, r6, r7, r8, r9, r10, fp, pc}	@
 307              		.loc 1 217 1 view .LVU50
 308              		.cfi_endproc
 309              	.LFE7:
 310              		.size	_out_rev, .-_out_rev
 311 0086 00BF     		.section	.text._ntoa_format,"ax",%progbits
 312              		.align	1
 313              		.p2align 4,,15
 314              		.syntax unified
 315              		.thumb
 316              		.thumb_func
 317              		.fpu fpv5-sp-d16
 318              		.type	_ntoa_format, %function
 319              	_ntoa_format:
 320              	.LVL22:
 321              	.LFB8:
 218:src/pdantler/printf.c **** 
 219:src/pdantler/printf.c **** // internal itoa format
 220:src/pdantler/printf.c **** static size_t _ntoa_format(out_fct_type out, char *buffer, size_t idx,
 221:src/pdantler/printf.c ****                            size_t maxlen, char *buf, size_t len, bool negative,
 222:src/pdantler/printf.c ****                            unsigned int base, unsigned int prec,
 223:src/pdantler/printf.c ****                            unsigned int width, unsigned int flags) {
 322              		.loc 1 223 68 is_stmt 1 view -0
 323              		.cfi_startproc
 324              		@ args = 28, pretend = 0, frame = 0
 325              		@ frame_needed = 0, uses_anonymous_args = 0
 224:src/pdantler/printf.c ****   // pad leading zeros
 225:src/pdantler/printf.c ****   if (!(flags & FLAGS_LEFT)) {
 326              		.loc 1 225 3 view .LVU52
 327              	@ src/pdantler/printf.c:223:                            unsigned int width, unsigned int flags) {
 223:src/pdantler/printf.c ****   // pad leading zeros
 328              		.loc 1 223 68 is_stmt 0 view .LVU53
 329 0000 2DE9F04F 		push	{r4, r5, r6, r7, r8, r9, r10, fp, lr}	@
 330              	.LCFI1:
 331              		.cfi_def_cfa_offset 36
 332              		.cfi_offset 4, -36
 333              		.cfi_offset 5, -32
ARM GAS  /tmp/ccFy9xbE.s 			page 11


 334              		.cfi_offset 6, -28
 335              		.cfi_offset 7, -24
 336              		.cfi_offset 8, -20
 337              		.cfi_offset 9, -16
 338              		.cfi_offset 10, -12
 339              		.cfi_offset 11, -8
 340              		.cfi_offset 14, -4
 341              	@ src/pdantler/printf.c:223:                            unsigned int width, unsigned int flags) {
 223:src/pdantler/printf.c ****   // pad leading zeros
 342              		.loc 1 223 68 view .LVU54
 343 0004 0F9E     		ldr	r6, [sp, #60]	@ flags, flags
 344 0006 DDF824E0 		ldr	lr, [sp, #36]	@ buf, buf
 345              	@ src/pdantler/printf.c:225:   if (!(flags & FLAGS_LEFT)) {
 346              		.loc 1 225 6 view .LVU55
 347 000a 16F0020F 		tst	r6, #2	@ flags,
 348              	@ src/pdantler/printf.c:223:                            unsigned int width, unsigned int flags) {
 223:src/pdantler/printf.c ****   // pad leading zeros
 349              		.loc 1 223 68 view .LVU56
 350 000e 0A9C     		ldr	r4, [sp, #40]	@ len, len
 351 0010 9DF82C90 		ldrb	r9, [sp, #44]	@ zero_extendqisi2	@ negative, negative
 352 0014 0E9D     		ldr	r5, [sp, #56]	@ width, width
 353 0016 DDE90C87 		ldrd	r8, r7, [sp, #48]	@ base, prec,,
 354              	@ src/pdantler/printf.c:225:   if (!(flags & FLAGS_LEFT)) {
 355              		.loc 1 225 6 view .LVU57
 356 001a 2ED1     		bne	.L25		@,
 226:src/pdantler/printf.c ****     if (width && (flags & FLAGS_ZEROPAD) &&
 357              		.loc 1 226 5 is_stmt 1 view .LVU58
 358              	@ src/pdantler/printf.c:226:     if (width && (flags & FLAGS_ZEROPAD) &&
 359              		.loc 1 226 8 is_stmt 0 view .LVU59
 360 001c 002D     		cmp	r5, #0	@ width
 361 001e 6FD1     		bne	.L122	@
 362              	.LVL23:
 227:src/pdantler/printf.c ****         (negative || (flags & (FLAGS_PLUS | FLAGS_SPACE)))) {
 228:src/pdantler/printf.c ****       width--;
 229:src/pdantler/printf.c ****     }
 230:src/pdantler/printf.c ****     while ((len < prec) && (len < PRINTF_NTOA_BUFFER_SIZE)) {
 363              		.loc 1 230 11 is_stmt 1 view .LVU60
 364 0020 1F2C     		cmp	r4, #31	@ len,
 365              	@ src/pdantler/printf.c:226:     if (width && (flags & FLAGS_ZEROPAD) &&
 226:src/pdantler/printf.c ****     if (width && (flags & FLAGS_ZEROPAD) &&
 366              		.loc 1 226 25 is_stmt 0 view .LVU61
 367 0022 06F0010A 		and	r10, r6, #1	@ prephitmp_117, flags,
 368              	@ src/pdantler/printf.c:230:     while ((len < prec) && (len < PRINTF_NTOA_BUFFER_SIZE)) {
 369              		.loc 1 230 11 view .LVU62
 370 0026 0DD8     		bhi	.L32		@,
 371 0028 BC42     		cmp	r4, r7	@ len, prec
 372 002a 0BD2     		bcs	.L32		@,
 373              	.LVL24:
 374              	.L51:
 375              		.loc 1 230 11 view .LVU63
 376 002c 04F1FF3C 		add	ip, r4, #-1	@ tmp186, len,
 377              	@ src/pdantler/printf.c:231:       buf[len++] = '0';
 231:src/pdantler/printf.c ****       buf[len++] = '0';
 378              		.loc 1 231 18 view .LVU64
 379 0030 4FF0300B 		mov	fp, #48	@ tmp187,
 380 0034 F444     		add	ip, ip, lr	@ ivtmp.181, buf
 381              	.L30:
ARM GAS  /tmp/ccFy9xbE.s 			page 12


 382              		.loc 1 231 7 is_stmt 1 view .LVU65
 383              	@ src/pdantler/printf.c:231:       buf[len++] = '0';
 384              		.loc 1 231 14 is_stmt 0 view .LVU66
 385 0036 0134     		adds	r4, r4, #1	@ len, len,
 386              	.LVL25:
 387              	@ src/pdantler/printf.c:231:       buf[len++] = '0';
 388              		.loc 1 231 18 view .LVU67
 389 0038 0CF801BF 		strb	fp, [ip, #1]!	@ tmp187, MEM[base: _122, offset: 0B]
 230:src/pdantler/printf.c ****       buf[len++] = '0';
 390              		.loc 1 230 11 is_stmt 1 view .LVU68
 391 003c A742     		cmp	r7, r4	@ prec, len
 392 003e 01D9     		bls	.L32		@,
 393 0040 1F2C     		cmp	r4, #31	@ len,
 394 0042 F8D9     		bls	.L30		@,
 395              	.L32:
 232:src/pdantler/printf.c ****     }
 233:src/pdantler/printf.c ****     while ((flags & FLAGS_ZEROPAD) && (len < width) &&
 396              		.loc 1 233 11 view .LVU69
 397 0044 BAF1000F 		cmp	r10, #0	@ prephitmp_117
 398 0048 17D0     		beq	.L25	@
 399              	@ src/pdantler/printf.c:234:            (len < PRINTF_NTOA_BUFFER_SIZE)) {
 234:src/pdantler/printf.c ****            (len < PRINTF_NTOA_BUFFER_SIZE)) {
 400              		.loc 1 234 17 is_stmt 0 view .LVU70
 401 004a 1F2C     		cmp	r4, #31	@ len,
 402 004c 8CBF     		ite	hi
 403 004e 4FF0000C 		movhi	ip, #0	@ prephitmp_111,
 404 0052 4FF0010C 		movls	ip, #1	@ prephitmp_111,
 405              	.L54:
 406              	@ src/pdantler/printf.c:233:     while ((flags & FLAGS_ZEROPAD) && (len < width) &&
 233:src/pdantler/printf.c ****            (len < PRINTF_NTOA_BUFFER_SIZE)) {
 407              		.loc 1 233 53 view .LVU71
 408 0056 A542     		cmp	r5, r4	@ width, len
 409 0058 0FD9     		bls	.L25		@,
 233:src/pdantler/printf.c ****            (len < PRINTF_NTOA_BUFFER_SIZE)) {
 410              		.loc 1 233 53 view .LVU72
 411 005a BCF1000F 		cmp	ip, #0	@ prephitmp_111
 412 005e 0CD0     		beq	.L25	@
 413 0060 04F1FF3C 		add	ip, r4, #-1	@ tmp206, len,
 414              	@ src/pdantler/printf.c:235:       buf[len++] = '0';
 235:src/pdantler/printf.c ****       buf[len++] = '0';
 415              		.loc 1 235 18 view .LVU73
 416 0064 4FF0300A 		mov	r10, #48	@ tmp207,
 417 0068 F444     		add	ip, ip, lr	@ ivtmp.175, buf
 418 006a 01E0     		b	.L35		@
 419              	.L123:
 420              	@ src/pdantler/printf.c:233:     while ((flags & FLAGS_ZEROPAD) && (len < width) &&
 233:src/pdantler/printf.c ****            (len < PRINTF_NTOA_BUFFER_SIZE)) {
 421              		.loc 1 233 53 view .LVU74
 422 006c 1F2C     		cmp	r4, #31	@ len,
 423 006e 04D8     		bhi	.L25		@,
 424              	.L35:
 425              		.loc 1 235 7 is_stmt 1 view .LVU75
 426              	@ src/pdantler/printf.c:235:       buf[len++] = '0';
 427              		.loc 1 235 14 is_stmt 0 view .LVU76
 428 0070 0134     		adds	r4, r4, #1	@ len, len,
 429              	.LVL26:
 430              	@ src/pdantler/printf.c:235:       buf[len++] = '0';
ARM GAS  /tmp/ccFy9xbE.s 			page 13


 431              		.loc 1 235 18 view .LVU77
 432 0072 0CF801AF 		strb	r10, [ip, #1]!	@ tmp207, MEM[base: _141, offset: 0B]
 233:src/pdantler/printf.c ****            (len < PRINTF_NTOA_BUFFER_SIZE)) {
 433              		.loc 1 233 11 is_stmt 1 view .LVU78
 434              	@ src/pdantler/printf.c:233:     while ((flags & FLAGS_ZEROPAD) && (len < width) &&
 233:src/pdantler/printf.c ****            (len < PRINTF_NTOA_BUFFER_SIZE)) {
 435              		.loc 1 233 53 is_stmt 0 view .LVU79
 436 0076 AC42     		cmp	r4, r5	@ len, width
 437 0078 F8D3     		bcc	.L123		@,
 438              	.LVL27:
 439              	.L25:
 236:src/pdantler/printf.c ****     }
 237:src/pdantler/printf.c ****   }
 238:src/pdantler/printf.c **** 
 239:src/pdantler/printf.c ****   // handle hash
 240:src/pdantler/printf.c ****   if (flags & FLAGS_HASH) {
 440              		.loc 1 240 3 is_stmt 1 view .LVU80
 441              	@ src/pdantler/printf.c:240:   if (flags & FLAGS_HASH) {
 442              		.loc 1 240 6 is_stmt 0 view .LVU81
 443 007a 16F0100F 		tst	r6, #16	@ flags,
 444 007e 2ED0     		beq	.L37		@,
 241:src/pdantler/printf.c ****     if (!(flags & FLAGS_PRECISION) && len &&
 445              		.loc 1 241 5 is_stmt 1 view .LVU82
 446              	@ src/pdantler/printf.c:241:     if (!(flags & FLAGS_PRECISION) && len &&
 447              		.loc 1 241 8 is_stmt 0 view .LVU83
 448 0080 16F4806F 		tst	r6, #1024	@ flags,
 449 0084 18D0     		beq	.L124		@,
 450              	.L38:
 242:src/pdantler/printf.c ****         ((len == prec) || (len == width))) {
 243:src/pdantler/printf.c ****       len--;
 244:src/pdantler/printf.c ****       if (len && (base == 16U)) {
 245:src/pdantler/printf.c ****         len--;
 246:src/pdantler/printf.c ****       }
 247:src/pdantler/printf.c ****     }
 248:src/pdantler/printf.c ****     if ((base == 16U) && !(flags & FLAGS_UPPERCASE) &&
 451              		.loc 1 248 5 is_stmt 1 view .LVU84
 452              	@ src/pdantler/printf.c:248:     if ((base == 16U) && !(flags & FLAGS_UPPERCASE) &&
 453              		.loc 1 248 8 is_stmt 0 view .LVU85
 454 0086 B8F1100F 		cmp	r8, #16	@ base,
 455 008a 7DD0     		beq	.L125		@,
 249:src/pdantler/printf.c ****         (len < PRINTF_NTOA_BUFFER_SIZE)) {
 250:src/pdantler/printf.c ****       buf[len++] = 'x';
 251:src/pdantler/printf.c ****     } else if ((base == 16U) && (flags & FLAGS_UPPERCASE) &&
 456              		.loc 1 251 12 is_stmt 1 view .LVU86
 252:src/pdantler/printf.c ****                (len < PRINTF_NTOA_BUFFER_SIZE)) {
 253:src/pdantler/printf.c ****       buf[len++] = 'X';
 254:src/pdantler/printf.c ****     } else if ((base == 2U) && (len < PRINTF_NTOA_BUFFER_SIZE)) {
 457              		.loc 1 254 12 view .LVU87
 458              	@ src/pdantler/printf.c:254:     } else if ((base == 2U) && (len < PRINTF_NTOA_BUFFER_SIZE)) {
 459              		.loc 1 254 15 is_stmt 0 view .LVU88
 460 008c B8F1020F 		cmp	r8, #2	@ base,
 461 0090 08D1     		bne	.L47		@,
 462 0092 1F2C     		cmp	r4, #31	@ len,
 463 0094 06D8     		bhi	.L47		@,
 255:src/pdantler/printf.c ****       buf[len++] = 'b';
 464              		.loc 1 255 7 is_stmt 1 view .LVU89
 465              	.LVL28:
ARM GAS  /tmp/ccFy9xbE.s 			page 14


 466              	@ src/pdantler/printf.c:255:       buf[len++] = 'b';
 467              		.loc 1 255 10 is_stmt 0 view .LVU90
 468 0096 0EEB0407 		add	r7, lr, r4	@ _114, buf, len
 469              	@ src/pdantler/printf.c:255:       buf[len++] = 'b';
 470              		.loc 1 255 18 view .LVU91
 471 009a 4FF0620C 		mov	ip, #98	@ tmp250,
 472 009e 0134     		adds	r4, r4, #1	@ len, len,
 473 00a0 87F800C0 		strb	ip, [r7]	@ tmp250, *_114
 474              	.LVL29:
 475              	.L47:
 256:src/pdantler/printf.c ****     }
 257:src/pdantler/printf.c ****     if (len < PRINTF_NTOA_BUFFER_SIZE) {
 476              		.loc 1 257 5 is_stmt 1 view .LVU92
 477              	@ src/pdantler/printf.c:257:     if (len < PRINTF_NTOA_BUFFER_SIZE) {
 478              		.loc 1 257 8 is_stmt 0 view .LVU93
 479 00a4 202C     		cmp	r4, #32	@ len,
 480 00a6 13D1     		bne	.L44		@,
 481              	.LVL30:
 482              	.L48:
 258:src/pdantler/printf.c ****       buf[len++] = '0';
 259:src/pdantler/printf.c ****     }
 260:src/pdantler/printf.c ****   }
 261:src/pdantler/printf.c **** 
 262:src/pdantler/printf.c ****   if (len < PRINTF_NTOA_BUFFER_SIZE) {
 263:src/pdantler/printf.c ****     if (negative) {
 264:src/pdantler/printf.c ****       buf[len++] = '-';
 265:src/pdantler/printf.c ****     } else if (flags & FLAGS_PLUS) {
 266:src/pdantler/printf.c ****       buf[len++] = '+'; // ignore the space if the '+' exists
 267:src/pdantler/printf.c ****     } else if (flags & FLAGS_SPACE) {
 268:src/pdantler/printf.c ****       buf[len++] = ' ';
 269:src/pdantler/printf.c ****     }
 270:src/pdantler/printf.c ****   }
 271:src/pdantler/printf.c **** 
 272:src/pdantler/printf.c ****   return _out_rev(out, buffer, idx, maxlen, buf, len, width, flags);
 483              		.loc 1 272 3 is_stmt 1 view .LVU94
 484              	@ src/pdantler/printf.c:272:   return _out_rev(out, buffer, idx, maxlen, buf, len, width, flags);
 485              		.loc 1 272 10 is_stmt 0 view .LVU95
 486 00a8 CDE90B56 		strd	r5, r6, [sp, #44]	@ width, flags,,
 487 00ac CDE909E4 		strd	lr, r4, [sp, #36]	@ buf, len,,
 488              	@ src/pdantler/printf.c:273: }
 273:src/pdantler/printf.c **** }
 489              		.loc 1 273 1 view .LVU96
 490 00b0 BDE8F04F 		pop	{r4, r5, r6, r7, r8, r9, r10, fp, lr}	@
 491              	.LCFI2:
 492              		.cfi_remember_state
 493              		.cfi_restore 14
 494              		.cfi_restore 11
 495              		.cfi_restore 10
 496              		.cfi_restore 9
 497              		.cfi_restore 8
 498              		.cfi_restore 7
 499              		.cfi_restore 6
 500              		.cfi_restore 5
 501              		.cfi_restore 4
 502              		.cfi_def_cfa_offset 0
 503              	.LVL31:
 504              	@ src/pdantler/printf.c:272:   return _out_rev(out, buffer, idx, maxlen, buf, len, width, flags);
ARM GAS  /tmp/ccFy9xbE.s 			page 15


 272:src/pdantler/printf.c **** }
 505              		.loc 1 272 10 view .LVU97
 506 00b4 FFF7FEBF 		b	_out_rev		@
 507              	.LVL32:
 508              	.L124:
 509              	.LCFI3:
 510              		.cfi_restore_state
 511              	@ src/pdantler/printf.c:241:     if (!(flags & FLAGS_PRECISION) && len &&
 241:src/pdantler/printf.c ****         ((len == prec) || (len == width))) {
 512              		.loc 1 241 36 discriminator 1 view .LVU98
 513 00b8 002C     		cmp	r4, #0	@ len
 514 00ba 51D1     		bne	.L126	@
 515              	.LVL33:
 248:src/pdantler/printf.c ****         (len < PRINTF_NTOA_BUFFER_SIZE)) {
 516              		.loc 1 248 5 is_stmt 1 view .LVU99
 517              	@ src/pdantler/printf.c:248:     if ((base == 16U) && !(flags & FLAGS_UPPERCASE) &&
 248:src/pdantler/printf.c ****         (len < PRINTF_NTOA_BUFFER_SIZE)) {
 518              		.loc 1 248 8 is_stmt 0 view .LVU100
 519 00bc B8F1100F 		cmp	r8, #16	@ base,
 520 00c0 7BD0     		beq	.L56		@,
 251:src/pdantler/printf.c ****                (len < PRINTF_NTOA_BUFFER_SIZE)) {
 521              		.loc 1 251 12 is_stmt 1 view .LVU101
 254:src/pdantler/printf.c ****       buf[len++] = 'b';
 522              		.loc 1 254 12 view .LVU102
 523              	@ src/pdantler/printf.c:254:     } else if ((base == 2U) && (len < PRINTF_NTOA_BUFFER_SIZE)) {
 254:src/pdantler/printf.c ****       buf[len++] = 'b';
 524              		.loc 1 254 15 is_stmt 0 view .LVU103
 525 00c2 B8F1020F 		cmp	r8, #2	@ base,
 526 00c6 7AD1     		bne	.L127		@,
 255:src/pdantler/printf.c ****     }
 527              		.loc 1 255 7 is_stmt 1 view .LVU104
 528              	.LVL34:
 529              	@ src/pdantler/printf.c:255:       buf[len++] = 'b';
 255:src/pdantler/printf.c ****     }
 530              		.loc 1 255 18 is_stmt 0 view .LVU105
 531 00c8 6224     		movs	r4, #98	@ tmp230,
 532 00ca 8EF80040 		strb	r4, [lr]	@ tmp230, *buf_57(D)
 533              	.LVL35:
 257:src/pdantler/printf.c ****       buf[len++] = '0';
 534              		.loc 1 257 5 is_stmt 1 view .LVU106
 535              	@ src/pdantler/printf.c:255:       buf[len++] = 'b';
 255:src/pdantler/printf.c ****     }
 536              		.loc 1 255 18 is_stmt 0 view .LVU107
 537 00ce 0124     		movs	r4, #1	@ len,
 538              	.LVL36:
 539              	.L44:
 258:src/pdantler/printf.c ****     }
 540              		.loc 1 258 7 is_stmt 1 view .LVU108
 541              	@ src/pdantler/printf.c:258:       buf[len++] = '0';
 258:src/pdantler/printf.c ****     }
 542              		.loc 1 258 10 is_stmt 0 view .LVU109
 543 00d0 0EEB0407 		add	r7, lr, r4	@ _110, buf, len
 544              	@ src/pdantler/printf.c:258:       buf[len++] = '0';
 258:src/pdantler/printf.c ****     }
 545              		.loc 1 258 18 view .LVU110
 546 00d4 4FF0300C 		mov	ip, #48	@ tmp252,
 547 00d8 0134     		adds	r4, r4, #1	@ len, len,
ARM GAS  /tmp/ccFy9xbE.s 			page 16


 548 00da 87F800C0 		strb	ip, [r7]	@ tmp252, *_110
 549              	.L37:
 550              	.LVL37:
 262:src/pdantler/printf.c ****     if (negative) {
 551              		.loc 1 262 3 is_stmt 1 view .LVU111
 552              	@ src/pdantler/printf.c:262:   if (len < PRINTF_NTOA_BUFFER_SIZE) {
 262:src/pdantler/printf.c ****     if (negative) {
 553              		.loc 1 262 6 is_stmt 0 view .LVU112
 554 00de 202C     		cmp	r4, #32	@ len,
 555 00e0 E2D0     		beq	.L48		@,
 263:src/pdantler/printf.c ****       buf[len++] = '-';
 556              		.loc 1 263 5 is_stmt 1 view .LVU113
 557              	@ src/pdantler/printf.c:263:     if (negative) {
 263:src/pdantler/printf.c ****       buf[len++] = '-';
 558              		.loc 1 263 8 is_stmt 0 view .LVU114
 559 00e2 B9F1000F 		cmp	r9, #0	@ negative
 560 00e6 20D0     		beq	.L49	@
 561              	.LVL38:
 562              	.L130:
 264:src/pdantler/printf.c ****     } else if (flags & FLAGS_PLUS) {
 563              		.loc 1 264 7 is_stmt 1 view .LVU115
 564              	@ src/pdantler/printf.c:264:       buf[len++] = '-';
 264:src/pdantler/printf.c ****     } else if (flags & FLAGS_PLUS) {
 565              		.loc 1 264 18 is_stmt 0 view .LVU116
 566 00e8 2D27     		movs	r7, #45	@ tmp254,
 567 00ea 0EF80470 		strb	r7, [lr, r4]	@ tmp254,* len
 568              	@ src/pdantler/printf.c:264:       buf[len++] = '-';
 264:src/pdantler/printf.c ****     } else if (flags & FLAGS_PLUS) {
 569              		.loc 1 264 14 view .LVU117
 570 00ee 0134     		adds	r4, r4, #1	@ len, len,
 571              	.LVL39:
 272:src/pdantler/printf.c **** }
 572              		.loc 1 272 3 is_stmt 1 view .LVU118
 573              	@ src/pdantler/printf.c:272:   return _out_rev(out, buffer, idx, maxlen, buf, len, width, flags);
 272:src/pdantler/printf.c **** }
 574              		.loc 1 272 10 is_stmt 0 view .LVU119
 575 00f0 CDE90B56 		strd	r5, r6, [sp, #44]	@ width, flags,,
 576 00f4 CDE909E4 		strd	lr, r4, [sp, #36]	@ buf, len,,
 577              	@ src/pdantler/printf.c:273: }
 578              		.loc 1 273 1 view .LVU120
 579 00f8 BDE8F04F 		pop	{r4, r5, r6, r7, r8, r9, r10, fp, lr}	@
 580              	.LCFI4:
 581              		.cfi_remember_state
 582              		.cfi_restore 14
 583              		.cfi_restore 11
 584              		.cfi_restore 10
 585              		.cfi_restore 9
 586              		.cfi_restore 8
 587              		.cfi_restore 7
 588              		.cfi_restore 6
 589              		.cfi_restore 5
 590              		.cfi_restore 4
 591              		.cfi_def_cfa_offset 0
 592              	.LVL40:
 593              	@ src/pdantler/printf.c:272:   return _out_rev(out, buffer, idx, maxlen, buf, len, width, flags);
 272:src/pdantler/printf.c **** }
 594              		.loc 1 272 10 view .LVU121
ARM GAS  /tmp/ccFy9xbE.s 			page 17


 595 00fc FFF7FEBF 		b	_out_rev		@
 596              	.LVL41:
 597              	.L122:
 598              	.LCFI5:
 599              		.cfi_restore_state
 600              	@ src/pdantler/printf.c:226:     if (width && (flags & FLAGS_ZEROPAD) &&
 226:src/pdantler/printf.c ****         (negative || (flags & (FLAGS_PLUS | FLAGS_SPACE)))) {
 601              		.loc 1 226 15 discriminator 1 view .LVU122
 602 0100 16F0010A 		ands	r10, r6, #1	@ prephitmp_117, flags,
 603 0104 26D0     		beq	.L27		@,
 604              	@ src/pdantler/printf.c:226:     if (width && (flags & FLAGS_ZEROPAD) &&
 226:src/pdantler/printf.c ****         (negative || (flags & (FLAGS_PLUS | FLAGS_SPACE)))) {
 605              		.loc 1 226 42 discriminator 2 view .LVU123
 606 0106 B9F1000F 		cmp	r9, #0	@ negative
 607 010a 3BD1     		bne	.L28	@
 608              	@ src/pdantler/printf.c:227:         (negative || (flags & (FLAGS_PLUS | FLAGS_SPACE)))) {
 227:src/pdantler/printf.c ****       width--;
 609              		.loc 1 227 19 view .LVU124
 610 010c 16F00C0F 		tst	r6, #12	@ flags,
 611 0110 38D1     		bne	.L28		@,
 612              	.LVL42:
 613              	.L29:
 230:src/pdantler/printf.c ****       buf[len++] = '0';
 614              		.loc 1 230 11 is_stmt 1 view .LVU125
 615              	@ src/pdantler/printf.c:230:     while ((len < prec) && (len < PRINTF_NTOA_BUFFER_SIZE)) {
 230:src/pdantler/printf.c ****       buf[len++] = '0';
 616              		.loc 1 230 33 is_stmt 0 view .LVU126
 617 0112 1F2C     		cmp	r4, #31	@ len,
 618 0114 8CBF     		ite	hi
 619 0116 4FF0000C 		movhi	ip, #0	@ prephitmp_111,
 620 011a 4FF0010C 		movls	ip, #1	@ prephitmp_111,
 621              	@ src/pdantler/printf.c:230:     while ((len < prec) && (len < PRINTF_NTOA_BUFFER_SIZE)) {
 230:src/pdantler/printf.c ****       buf[len++] = '0';
 622              		.loc 1 230 11 view .LVU127
 623 011e BC42     		cmp	r4, r7	@ len, prec
 624 0120 99D2     		bcs	.L54		@,
 625 0122 BCF1000F 		cmp	ip, #0	@ prephitmp_111
 626 0126 81D1     		bne	.L51	@
 627 0128 95E7     		b	.L54		@
 628              	.LVL43:
 629              	.L49:
 265:src/pdantler/printf.c ****       buf[len++] = '+'; // ignore the space if the '+' exists
 630              		.loc 1 265 12 is_stmt 1 view .LVU128
 631              	@ src/pdantler/printf.c:265:     } else if (flags & FLAGS_PLUS) {
 265:src/pdantler/printf.c ****       buf[len++] = '+'; // ignore the space if the '+' exists
 632              		.loc 1 265 15 is_stmt 0 view .LVU129
 633 012a 7707     		lsls	r7, r6, #29	@, flags,
 634 012c 06D4     		bmi	.L128		@,
 267:src/pdantler/printf.c ****       buf[len++] = ' ';
 635              		.loc 1 267 12 is_stmt 1 view .LVU130
 636              	@ src/pdantler/printf.c:267:     } else if (flags & FLAGS_SPACE) {
 267:src/pdantler/printf.c ****       buf[len++] = ' ';
 637              		.loc 1 267 15 is_stmt 0 view .LVU131
 638 012e 3707     		lsls	r7, r6, #28	@, flags,
 639 0130 BAD5     		bpl	.L48		@,
 268:src/pdantler/printf.c ****     }
 640              		.loc 1 268 7 is_stmt 1 view .LVU132
ARM GAS  /tmp/ccFy9xbE.s 			page 18


 641              	.LVL44:
 642              	@ src/pdantler/printf.c:268:       buf[len++] = ' ';
 268:src/pdantler/printf.c ****     }
 643              		.loc 1 268 18 is_stmt 0 view .LVU133
 644 0132 2027     		movs	r7, #32	@ tmp260,
 645 0134 0EF80470 		strb	r7, [lr, r4]	@ tmp260,* len
 646              	@ src/pdantler/printf.c:268:       buf[len++] = ' ';
 268:src/pdantler/printf.c ****     }
 647              		.loc 1 268 14 view .LVU134
 648 0138 0134     		adds	r4, r4, #1	@ len, len,
 649              	.LVL45:
 268:src/pdantler/printf.c ****     }
 650              		.loc 1 268 14 view .LVU135
 651 013a B5E7     		b	.L48		@
 652              	.LVL46:
 653              	.L128:
 266:src/pdantler/printf.c ****     } else if (flags & FLAGS_SPACE) {
 654              		.loc 1 266 7 is_stmt 1 view .LVU136
 655              	@ src/pdantler/printf.c:266:       buf[len++] = '+'; // ignore the space if the '+' exists
 266:src/pdantler/printf.c ****     } else if (flags & FLAGS_SPACE) {
 656              		.loc 1 266 18 is_stmt 0 view .LVU137
 657 013c 2B27     		movs	r7, #43	@ tmp257,
 658 013e 0EF80470 		strb	r7, [lr, r4]	@ tmp257,* len
 659              	@ src/pdantler/printf.c:266:       buf[len++] = '+'; // ignore the space if the '+' exists
 266:src/pdantler/printf.c ****     } else if (flags & FLAGS_SPACE) {
 660              		.loc 1 266 14 view .LVU138
 661 0142 0134     		adds	r4, r4, #1	@ len, len,
 662              	.LVL47:
 272:src/pdantler/printf.c **** }
 663              		.loc 1 272 3 is_stmt 1 view .LVU139
 664              	@ src/pdantler/printf.c:272:   return _out_rev(out, buffer, idx, maxlen, buf, len, width, flags);
 272:src/pdantler/printf.c **** }
 665              		.loc 1 272 10 is_stmt 0 view .LVU140
 666 0144 CDE90B56 		strd	r5, r6, [sp, #44]	@ width, flags,,
 667 0148 CDE909E4 		strd	lr, r4, [sp, #36]	@ buf, len,,
 668              	@ src/pdantler/printf.c:273: }
 669              		.loc 1 273 1 view .LVU141
 670 014c BDE8F04F 		pop	{r4, r5, r6, r7, r8, r9, r10, fp, lr}	@
 671              	.LCFI6:
 672              		.cfi_remember_state
 673              		.cfi_restore 14
 674              		.cfi_restore 11
 675              		.cfi_restore 10
 676              		.cfi_restore 9
 677              		.cfi_restore 8
 678              		.cfi_restore 7
 679              		.cfi_restore 6
 680              		.cfi_restore 5
 681              		.cfi_restore 4
 682              		.cfi_def_cfa_offset 0
 683              	.LVL48:
 684              	@ src/pdantler/printf.c:272:   return _out_rev(out, buffer, idx, maxlen, buf, len, width, flags);
 272:src/pdantler/printf.c **** }
 685              		.loc 1 272 10 view .LVU142
 686 0150 FFF7FEBF 		b	_out_rev		@
 687              	.LVL49:
 688              	.L27:
ARM GAS  /tmp/ccFy9xbE.s 			page 19


 689              	.LCFI7:
 690              		.cfi_restore_state
 230:src/pdantler/printf.c ****       buf[len++] = '0';
 691              		.loc 1 230 11 is_stmt 1 view .LVU143
 692 0154 BC42     		cmp	r4, r7	@ len, prec
 693 0156 90D2     		bcs	.L25		@,
 694 0158 1F2C     		cmp	r4, #31	@ len,
 695 015a 7FF667AF 		bls	.L51		@,
 696 015e 8CE7     		b	.L25		@
 697              	.L126:
 698              	@ src/pdantler/printf.c:241:     if (!(flags & FLAGS_PRECISION) && len &&
 241:src/pdantler/printf.c ****         ((len == prec) || (len == width))) {
 699              		.loc 1 241 43 is_stmt 0 discriminator 2 view .LVU144
 700 0160 BC42     		cmp	r4, r7	@ len, prec
 701 0162 01D0     		beq	.L58		@,
 702 0164 AC42     		cmp	r4, r5	@ len, width
 703 0166 8ED1     		bne	.L38		@,
 704              	.L58:
 243:src/pdantler/printf.c ****       if (len && (base == 16U)) {
 705              		.loc 1 243 7 is_stmt 1 view .LVU145
 706              	.LVL50:
 244:src/pdantler/printf.c ****         len--;
 707              		.loc 1 244 7 view .LVU146
 708              	@ src/pdantler/printf.c:244:       if (len && (base == 16U)) {
 244:src/pdantler/printf.c ****         len--;
 709              		.loc 1 244 11 is_stmt 0 view .LVU147
 710 0168 B4F1010C 		subs	ip, r4, #1	@ len, len,
 711              	.LVL51:
 244:src/pdantler/printf.c ****         len--;
 712              		.loc 1 244 11 view .LVU148
 713 016c 14BF     		ite	ne
 714 016e 0127     		movne	r7, #1	@ tmp224,
 715 0170 0027     		moveq	r7, #0	@ tmp224,
 716              	@ src/pdantler/printf.c:244:       if (len && (base == 16U)) {
 244:src/pdantler/printf.c ****         len--;
 717              		.loc 1 244 15 view .LVU149
 718 0172 B8F1100F 		cmp	r8, #16	@ base,
 719 0176 14BF     		ite	ne		@
 720 0178 0027     		movne	r7, #0	@, _86
 721 017a 07F00107 		andeq	r7, r7, #1	@,, _86, tmp224
 722              	@ src/pdantler/printf.c:244:       if (len && (base == 16U)) {
 244:src/pdantler/printf.c ****         len--;
 723              		.loc 1 244 10 view .LVU150
 724 017e D7B1     		cbz	r7, .L55	@ _86,
 245:src/pdantler/printf.c ****       }
 725              		.loc 1 245 9 is_stmt 1 view .LVU151
 726              	@ src/pdantler/printf.c:245:         len--;
 245:src/pdantler/printf.c ****       }
 727              		.loc 1 245 12 is_stmt 0 view .LVU152
 728 0180 023C     		subs	r4, r4, #2	@ len, len,
 729              	.LVL52:
 248:src/pdantler/printf.c ****         (len < PRINTF_NTOA_BUFFER_SIZE)) {
 730              		.loc 1 248 5 is_stmt 1 view .LVU153
 731 0182 05E0     		b	.L41		@
 732              	.LVL53:
 733              	.L28:
 228:src/pdantler/printf.c ****     }
ARM GAS  /tmp/ccFy9xbE.s 			page 20


 734              		.loc 1 228 7 view .LVU154
 735              	@ src/pdantler/printf.c:228:       width--;
 228:src/pdantler/printf.c ****     }
 736              		.loc 1 228 12 is_stmt 0 view .LVU155
 737 0184 013D     		subs	r5, r5, #1	@ width, width,
 738              	.LVL54:
 228:src/pdantler/printf.c ****     }
 739              		.loc 1 228 12 view .LVU156
 740 0186 C4E7     		b	.L29		@
 741              	.LVL55:
 742              	.L125:
 743              	@ src/pdantler/printf.c:248:     if ((base == 16U) && !(flags & FLAGS_UPPERCASE) &&
 248:src/pdantler/printf.c ****         (len < PRINTF_NTOA_BUFFER_SIZE)) {
 744              		.loc 1 248 53 view .LVU157
 745 0188 1F2C     		cmp	r4, #31	@ len,
 746 018a 8CBF     		ite	hi
 747 018c 0027     		movhi	r7, #0	@ _86,
 748 018e 0127     		movls	r7, #1	@ _86,
 749              	.LVL56:
 750              	.L41:
 751              	@ src/pdantler/printf.c:248:     if ((base == 16U) && !(flags & FLAGS_UPPERCASE) &&
 248:src/pdantler/printf.c ****         (len < PRINTF_NTOA_BUFFER_SIZE)) {
 752              		.loc 1 248 23 discriminator 1 view .LVU158
 753 0190 16F0200C 		ands	ip, r6, #32	@ _21, flags,
 754              	@ src/pdantler/printf.c:248:     if ((base == 16U) && !(flags & FLAGS_UPPERCASE) &&
 248:src/pdantler/printf.c ****         (len < PRINTF_NTOA_BUFFER_SIZE)) {
 755              		.loc 1 248 53 discriminator 1 view .LVU159
 756 0194 00D1     		bne	.L46		@,
 757 0196 4FB9     		cbnz	r7, .L129	@ _86,
 758              	.L46:
 251:src/pdantler/printf.c ****                (len < PRINTF_NTOA_BUFFER_SIZE)) {
 759              		.loc 1 251 12 is_stmt 1 discriminator 1 view .LVU160
 760              	@ src/pdantler/printf.c:251:     } else if ((base == 16U) && (flags & FLAGS_UPPERCASE) &&
 251:src/pdantler/printf.c ****                (len < PRINTF_NTOA_BUFFER_SIZE)) {
 761              		.loc 1 251 59 is_stmt 0 discriminator 1 view .LVU161
 762 0198 BCF1000F 		cmp	ip, #0	@ _21
 763 019c 82D0     		beq	.L47	@
 764 019e 002F     		cmp	r7, #0	@ _86
 765 01a0 80D0     		beq	.L47	@
 253:src/pdantler/printf.c ****     } else if ((base == 2U) && (len < PRINTF_NTOA_BUFFER_SIZE)) {
 766              		.loc 1 253 7 is_stmt 1 view .LVU162
 767              	.LVL57:
 768              	@ src/pdantler/printf.c:253:       buf[len++] = 'X';
 253:src/pdantler/printf.c ****     } else if ((base == 2U) && (len < PRINTF_NTOA_BUFFER_SIZE)) {
 769              		.loc 1 253 18 is_stmt 0 view .LVU163
 770 01a2 5827     		movs	r7, #88	@ tmp242,
 771 01a4 0EF80470 		strb	r7, [lr, r4]	@ tmp242,* len
 772              	.LVL58:
 773              	@ src/pdantler/printf.c:253:       buf[len++] = 'X';
 253:src/pdantler/printf.c ****     } else if ((base == 2U) && (len < PRINTF_NTOA_BUFFER_SIZE)) {
 774              		.loc 1 253 14 view .LVU164
 775 01a8 0134     		adds	r4, r4, #1	@ len, len,
 776              	.LVL59:
 777              	@ src/pdantler/printf.c:253:       buf[len++] = 'X';
 253:src/pdantler/printf.c ****     } else if ((base == 2U) && (len < PRINTF_NTOA_BUFFER_SIZE)) {
 778              		.loc 1 253 18 view .LVU165
 779 01aa 7BE7     		b	.L47		@
ARM GAS  /tmp/ccFy9xbE.s 			page 21


 780              	.LVL60:
 781              	.L129:
 250:src/pdantler/printf.c ****     } else if ((base == 16U) && (flags & FLAGS_UPPERCASE) &&
 782              		.loc 1 250 7 is_stmt 1 view .LVU166
 783              	@ src/pdantler/printf.c:250:       buf[len++] = 'x';
 250:src/pdantler/printf.c ****     } else if ((base == 16U) && (flags & FLAGS_UPPERCASE) &&
 784              		.loc 1 250 18 is_stmt 0 view .LVU167
 785 01ac 7827     		movs	r7, #120	@ tmp237,
 786 01ae 0EF80470 		strb	r7, [lr, r4]	@ tmp237,* len
 787              	.LVL61:
 788              	@ src/pdantler/printf.c:250:       buf[len++] = 'x';
 250:src/pdantler/printf.c ****     } else if ((base == 16U) && (flags & FLAGS_UPPERCASE) &&
 789              		.loc 1 250 14 view .LVU168
 790 01b2 0134     		adds	r4, r4, #1	@ len, len,
 791              	.LVL62:
 792              	@ src/pdantler/printf.c:250:       buf[len++] = 'x';
 250:src/pdantler/printf.c ****     } else if ((base == 16U) && (flags & FLAGS_UPPERCASE) &&
 793              		.loc 1 250 18 view .LVU169
 794 01b4 76E7     		b	.L47		@
 795              	.LVL63:
 796              	.L55:
 797              	@ src/pdantler/printf.c:243:       len--;
 243:src/pdantler/printf.c ****       if (len && (base == 16U)) {
 798              		.loc 1 243 10 view .LVU170
 799 01b6 6446     		mov	r4, ip	@ len, len
 800 01b8 65E7     		b	.L38		@
 801              	.LVL64:
 802              	.L56:
 803              	@ src/pdantler/printf.c:248:     if ((base == 16U) && !(flags & FLAGS_UPPERCASE) &&
 248:src/pdantler/printf.c ****         (len < PRINTF_NTOA_BUFFER_SIZE)) {
 804              		.loc 1 248 8 view .LVU171
 805 01ba 0127     		movs	r7, #1	@ _86,
 806 01bc E8E7     		b	.L41		@
 807              	.L127:
 808              	.LVL65:
 258:src/pdantler/printf.c ****     }
 809              		.loc 1 258 7 is_stmt 1 view .LVU172
 810              	@ src/pdantler/printf.c:258:       buf[len++] = '0';
 258:src/pdantler/printf.c ****     }
 811              		.loc 1 258 18 is_stmt 0 view .LVU173
 812 01be 3024     		movs	r4, #48	@ tmp228,
 813 01c0 8EF80040 		strb	r4, [lr]	@ tmp228, *buf_57(D)
 814              	.LVL66:
 262:src/pdantler/printf.c ****     if (negative) {
 815              		.loc 1 262 3 is_stmt 1 view .LVU174
 816              	@ src/pdantler/printf.c:258:       buf[len++] = '0';
 258:src/pdantler/printf.c ****     }
 817              		.loc 1 258 18 is_stmt 0 view .LVU175
 818 01c4 0124     		movs	r4, #1	@ len,
 263:src/pdantler/printf.c ****       buf[len++] = '-';
 819              		.loc 1 263 5 is_stmt 1 view .LVU176
 820              	@ src/pdantler/printf.c:263:     if (negative) {
 263:src/pdantler/printf.c ****       buf[len++] = '-';
 821              		.loc 1 263 8 is_stmt 0 view .LVU177
 822 01c6 B9F1000F 		cmp	r9, #0	@ negative
 823 01ca AED0     		beq	.L49	@
 824 01cc 8CE7     		b	.L130		@
ARM GAS  /tmp/ccFy9xbE.s 			page 22


 825              		.cfi_endproc
 826              	.LFE8:
 827              		.size	_ntoa_format, .-_ntoa_format
 828 01ce 00BF     		.section	.text._ntoa_long,"ax",%progbits
 829              		.align	1
 830              		.p2align 4,,15
 831              		.syntax unified
 832              		.thumb
 833              		.thumb_func
 834              		.fpu fpv5-sp-d16
 835              		.type	_ntoa_long, %function
 836              	_ntoa_long:
 837              	.LVL67:
 838              	.LFB9:
 274:src/pdantler/printf.c **** 
 275:src/pdantler/printf.c **** // internal itoa for 'long' type
 276:src/pdantler/printf.c **** static size_t _ntoa_long(out_fct_type out, char *buffer, size_t idx,
 277:src/pdantler/printf.c ****                          size_t maxlen, unsigned long value, bool negative,
 278:src/pdantler/printf.c ****                          unsigned long base, unsigned int prec,
 279:src/pdantler/printf.c ****                          unsigned int width, unsigned int flags) {
 839              		.loc 1 279 66 is_stmt 1 view -0
 840              		.cfi_startproc
 841              		@ args = 24, pretend = 0, frame = 40
 842              		@ frame_needed = 0, uses_anonymous_args = 0
 280:src/pdantler/printf.c ****   char buf[PRINTF_NTOA_BUFFER_SIZE];
 843              		.loc 1 280 3 view .LVU179
 281:src/pdantler/printf.c ****   size_t len = 0U;
 844              		.loc 1 281 3 view .LVU180
 282:src/pdantler/printf.c **** 
 283:src/pdantler/printf.c ****   // no hash for 0 values
 284:src/pdantler/printf.c ****   if (!value) {
 845              		.loc 1 284 3 view .LVU181
 846              	@ src/pdantler/printf.c:279:                          unsigned int width, unsigned int flags) {
 279:src/pdantler/printf.c ****   char buf[PRINTF_NTOA_BUFFER_SIZE];
 847              		.loc 1 279 66 is_stmt 0 view .LVU182
 848 0000 2DE9F04F 		push	{r4, r5, r6, r7, r8, r9, r10, fp, lr}	@
 849              	.LCFI8:
 850              		.cfi_def_cfa_offset 36
 851              		.cfi_offset 4, -36
 852              		.cfi_offset 5, -32
 853              		.cfi_offset 6, -28
 854              		.cfi_offset 7, -24
 855              		.cfi_offset 8, -20
 856              		.cfi_offset 9, -16
 857              		.cfi_offset 10, -12
 858              		.cfi_offset 11, -8
 859              		.cfi_offset 14, -4
 860 0004 93B0     		sub	sp, sp, #76	@,,
 861              	.LCFI9:
 862              		.cfi_def_cfa_offset 112
 863              	@ src/pdantler/printf.c:279:                          unsigned int width, unsigned int flags) {
 279:src/pdantler/printf.c ****   char buf[PRINTF_NTOA_BUFFER_SIZE];
 864              		.loc 1 279 66 view .LVU183
 865 0006 9DF87450 		ldrb	r5, [sp, #116]	@ zero_extendqisi2	@ negative, negative
 866 000a 1C9C     		ldr	r4, [sp, #112]	@ value, value
 867 000c 0995     		str	r5, [sp, #36]	@ negative, %sfp
 868 000e DDF884A0 		ldr	r10, [sp, #132]	@ flags, flags
ARM GAS  /tmp/ccFy9xbE.s 			page 23


 869 0012 1E9D     		ldr	r5, [sp, #120]	@ base, base
 870              	@ src/pdantler/printf.c:284:   if (!value) {
 871              		.loc 1 284 6 view .LVU184
 872 0014 CCB9     		cbnz	r4, .L132	@ value,
 285:src/pdantler/printf.c ****     flags &= ~FLAGS_HASH;
 873              		.loc 1 285 5 is_stmt 1 view .LVU185
 874              	@ src/pdantler/printf.c:285:     flags &= ~FLAGS_HASH;
 875              		.loc 1 285 11 is_stmt 0 view .LVU186
 876 0016 2AF01006 		bic	r6, r10, #16	@ flags, flags,
 877              	.LVL68:
 286:src/pdantler/printf.c ****   }
 287:src/pdantler/printf.c **** 
 288:src/pdantler/printf.c ****   // write if precision != 0 and value is != 0
 289:src/pdantler/printf.c ****   if (!(flags & FLAGS_PRECISION) || value) {
 878              		.loc 1 289 3 is_stmt 1 view .LVU187
 879              	@ src/pdantler/printf.c:289:   if (!(flags & FLAGS_PRECISION) || value) {
 880              		.loc 1 289 6 is_stmt 0 view .LVU188
 881 001a 1AF4806F 		tst	r10, #1024	@ flags,
 882              	@ src/pdantler/printf.c:285:     flags &= ~FLAGS_HASH;
 285:src/pdantler/printf.c ****     flags &= ~FLAGS_HASH;
 883              		.loc 1 285 11 view .LVU189
 884 001e B246     		mov	r10, r6	@ flags, flags
 885              	@ src/pdantler/printf.c:289:   if (!(flags & FLAGS_PRECISION) || value) {
 886              		.loc 1 289 6 view .LVU190
 887 0020 13D0     		beq	.L132		@,
 888              	@ src/pdantler/printf.c:281:   size_t len = 0U;
 281:src/pdantler/printf.c **** 
 889              		.loc 1 281 10 view .LVU191
 890 0022 2646     		mov	r6, r4	@ len, value
 891              	.LVL69:
 281:src/pdantler/printf.c **** 
 892              		.loc 1 281 10 view .LVU192
 893 0024 0DF1280B 		add	fp, sp, #40	@ tmp160,,
 894              	.LVL70:
 895              	.L133:
 290:src/pdantler/printf.c ****     do {
 291:src/pdantler/printf.c ****       const char digit = (char)(value % base);
 292:src/pdantler/printf.c ****       buf[len++] = digit < 10
 293:src/pdantler/printf.c ****                        ? '0' + digit
 294:src/pdantler/printf.c ****                        : (flags & FLAGS_UPPERCASE ? 'A' : 'a') + digit - 10;
 295:src/pdantler/printf.c ****       value /= base;
 296:src/pdantler/printf.c ****     } while (value && (len < PRINTF_NTOA_BUFFER_SIZE));
 297:src/pdantler/printf.c ****   }
 298:src/pdantler/printf.c **** 
 299:src/pdantler/printf.c ****   return _ntoa_format(out, buffer, idx, maxlen, buf, len, negative,
 896              		.loc 1 299 3 is_stmt 1 view .LVU193
 897              	@ src/pdantler/printf.c:299:   return _ntoa_format(out, buffer, idx, maxlen, buf, len, negative,
 898              		.loc 1 299 10 is_stmt 0 view .LVU194
 899 0028 209C     		ldr	r4, [sp, #128]	@ tmp180, width
 900 002a CDF818A0 		str	r10, [sp, #24]	@ flags,
 901 002e 0594     		str	r4, [sp, #20]	@ tmp180,
 902 0030 1F9C     		ldr	r4, [sp, #124]	@ tmp181, prec
 903 0032 CDF800B0 		str	fp, [sp]	@ tmp160,
 904 0036 CDE90354 		strd	r5, r4, [sp, #12]	@ base, tmp181,,
 905 003a 099C     		ldr	r4, [sp, #36]	@ negative, %sfp
 906 003c CDE90164 		strd	r6, r4, [sp, #4]	@ len, negative,,
 907 0040 FFF7FEFF 		bl	_ntoa_format		@
ARM GAS  /tmp/ccFy9xbE.s 			page 24


 908              	.LVL71:
 909              	@ src/pdantler/printf.c:301: }
 300:src/pdantler/printf.c ****                       (unsigned int)base, prec, width, flags);
 301:src/pdantler/printf.c **** }
 910              		.loc 1 301 1 view .LVU195
 911 0044 13B0     		add	sp, sp, #76	@,,
 912              	.LCFI10:
 913              		.cfi_remember_state
 914              		.cfi_def_cfa_offset 36
 915              		@ sp needed	@
 916 0046 BDE8F08F 		pop	{r4, r5, r6, r7, r8, r9, r10, fp, pc}	@
 917              	.LVL72:
 918              	.L132:
 919              	.LCFI11:
 920              		.cfi_restore_state
 921              		.loc 1 301 1 view .LVU196
 922 004a 1AF0200F 		tst	r10, #32	@ flags,
 923 004e 0DF1280B 		add	fp, sp, #40	@ tmp160,,
 924              	.LBB21:
 925              	@ src/pdantler/printf.c:294:                        : (flags & FLAGS_UPPERCASE ? 'A' : 'a') + digit
 294:src/pdantler/printf.c ****       value /= base;
 926              		.loc 1 294 33 view .LVU197
 927 0052 4FF00006 		mov	r6, #0	@ len,
 928 0056 14BF     		ite	ne
 929 0058 4FF04109 		movne	r9, #65	@ iftmp.111_13,
 930 005c 4FF06109 		moveq	r9, #97	@ iftmp.111_13,
 931 0060 D846     		mov	r8, fp	@ ivtmp.190, tmp160
 932              	@ src/pdantler/printf.c:292:       buf[len++] = digit < 10
 292:src/pdantler/printf.c ****                        ? '0' + digit
 933              		.loc 1 292 18 view .LVU198
 934 0062 A9F10A09 		sub	r9, r9, #10	@ tmp161, iftmp.111_13,
 935              	.LVL73:
 936              	.L136:
 292:src/pdantler/printf.c ****                        ? '0' + digit
 937              		.loc 1 292 18 view .LVU199
 938              	.LBE21:
 290:src/pdantler/printf.c ****       const char digit = (char)(value % base);
 939              		.loc 1 290 5 is_stmt 1 view .LVU200
 940              	.LBB22:
 291:src/pdantler/printf.c ****       buf[len++] = digit < 10
 941              		.loc 1 291 7 view .LVU201
 942              	@ src/pdantler/printf.c:292:       buf[len++] = digit < 10
 292:src/pdantler/printf.c ****                        ? '0' + digit
 943              		.loc 1 292 14 is_stmt 0 view .LVU202
 944 0066 0136     		adds	r6, r6, #1	@ len, len,
 945              	.LVL74:
 946              	@ src/pdantler/printf.c:291:       const char digit = (char)(value % base);
 291:src/pdantler/printf.c ****       buf[len++] = digit < 10
 947              		.loc 1 291 39 view .LVU203
 948 0068 B4FBF5FE 		udiv	lr, r4, r5	@ value, value, base
 949 006c 05FB1E4C 		mls	ip, r5, lr, r4	@ _2, base, value, value
 950              	@ src/pdantler/printf.c:291:       const char digit = (char)(value % base);
 291:src/pdantler/printf.c ****       buf[len++] = digit < 10
 951              		.loc 1 291 18 view .LVU204
 952 0070 5FFA8CF7 		uxtb	r7, ip	@ digit, _2
 953              	.LVL75:
 292:src/pdantler/printf.c ****                        ? '0' + digit
ARM GAS  /tmp/ccFy9xbE.s 			page 25


 954              		.loc 1 292 7 is_stmt 1 view .LVU205
 955              	@ src/pdantler/printf.c:292:       buf[len++] = digit < 10
 292:src/pdantler/printf.c ****                        ? '0' + digit
 956              		.loc 1 292 18 is_stmt 0 view .LVU206
 957 0074 BCF1090F 		cmp	ip, #9	@ _2,
 958 0078 07EB090C 		add	ip, r7, r9	@ tmp149, digit, tmp161
 959 007c 07F13007 		add	r7, r7, #48	@ tmp146, digit,
 960              	.LVL76:
 292:src/pdantler/printf.c ****                        ? '0' + digit
 961              		.loc 1 292 18 view .LVU207
 962 0080 8CBF     		ite	hi
 963 0082 5FFA8CF7 		uxtbhi	r7, ip	@ iftmp.110_12, tmp149
 964              	.LVL77:
 292:src/pdantler/printf.c ****                        ? '0' + digit
 965              		.loc 1 292 18 view .LVU208
 966 0086 FFB2     		uxtbls	r7, r7	@ iftmp.110_12, tmp146
 967              	.LBE22:
 968              	@ src/pdantler/printf.c:296:     } while (value && (len < PRINTF_NTOA_BUFFER_SIZE));
 296:src/pdantler/printf.c ****   }
 969              		.loc 1 296 5 view .LVU209
 970 0088 AC42     		cmp	r4, r5	@ value, base
 971              	.LBB23:
 972              	@ src/pdantler/printf.c:295:       value /= base;
 295:src/pdantler/printf.c ****     } while (value && (len < PRINTF_NTOA_BUFFER_SIZE));
 973              		.loc 1 295 13 view .LVU210
 974 008a 7446     		mov	r4, lr	@ value, value
 975              	.LVL78:
 976              	@ src/pdantler/printf.c:292:       buf[len++] = digit < 10
 292:src/pdantler/printf.c ****                        ? '0' + digit
 977              		.loc 1 292 18 view .LVU211
 978 008c 08F8017B 		strb	r7, [r8], #1	@ iftmp.110_12, MEM[base: _37, offset: 0B]
 295:src/pdantler/printf.c ****     } while (value && (len < PRINTF_NTOA_BUFFER_SIZE));
 979              		.loc 1 295 7 is_stmt 1 view .LVU212
 980              	.LVL79:
 295:src/pdantler/printf.c ****     } while (value && (len < PRINTF_NTOA_BUFFER_SIZE));
 981              		.loc 1 295 7 is_stmt 0 view .LVU213
 982              	.LBE23:
 296:src/pdantler/printf.c ****   }
 983              		.loc 1 296 13 is_stmt 1 view .LVU214
 984              	@ src/pdantler/printf.c:296:     } while (value && (len < PRINTF_NTOA_BUFFER_SIZE));
 296:src/pdantler/printf.c ****   }
 985              		.loc 1 296 5 is_stmt 0 view .LVU215
 986 0090 CAD3     		bcc	.L133		@,
 987              	@ src/pdantler/printf.c:296:     } while (value && (len < PRINTF_NTOA_BUFFER_SIZE));
 296:src/pdantler/printf.c ****   }
 988              		.loc 1 296 5 discriminator 3 view .LVU216
 989 0092 1F2E     		cmp	r6, #31	@ len,
 990 0094 E7D9     		bls	.L136		@,
 991 0096 C7E7     		b	.L133		@
 992              		.cfi_endproc
 993              	.LFE9:
 994              		.size	_ntoa_long, .-_ntoa_long
 995              		.global	__aeabi_uldivmod
 996              		.section	.text._ntoa_long_long,"ax",%progbits
 997              		.align	1
 998              		.p2align 4,,15
 999              		.syntax unified
ARM GAS  /tmp/ccFy9xbE.s 			page 26


 1000              		.thumb
 1001              		.thumb_func
 1002              		.fpu fpv5-sp-d16
 1003              		.type	_ntoa_long_long, %function
 1004              	_ntoa_long_long:
 1005              	.LVL80:
 1006              	.LFB10:
 302:src/pdantler/printf.c **** 
 303:src/pdantler/printf.c **** // internal itoa for 'long long' type
 304:src/pdantler/printf.c **** #if defined(PRINTF_SUPPORT_LONG_LONG)
 305:src/pdantler/printf.c **** static size_t _ntoa_long_long(out_fct_type out, char *buffer, size_t idx,
 306:src/pdantler/printf.c ****                               size_t maxlen, unsigned long long value,
 307:src/pdantler/printf.c ****                               bool negative, unsigned long long base,
 308:src/pdantler/printf.c ****                               unsigned int prec, unsigned int width,
 309:src/pdantler/printf.c ****                               unsigned int flags) {
 1007              		.loc 1 309 51 is_stmt 1 view -0
 1008              		.cfi_startproc
 1009              		@ args = 36, pretend = 0, frame = 40
 1010              		@ frame_needed = 0, uses_anonymous_args = 0
 310:src/pdantler/printf.c ****   char buf[PRINTF_NTOA_BUFFER_SIZE];
 1011              		.loc 1 310 3 view .LVU218
 311:src/pdantler/printf.c ****   size_t len = 0U;
 1012              		.loc 1 311 3 view .LVU219
 312:src/pdantler/printf.c **** 
 313:src/pdantler/printf.c ****   // no hash for 0 values
 314:src/pdantler/printf.c ****   if (!value) {
 1013              		.loc 1 314 3 view .LVU220
 1014              	@ src/pdantler/printf.c:309:                               unsigned int flags) {
 309:src/pdantler/printf.c ****   char buf[PRINTF_NTOA_BUFFER_SIZE];
 1015              		.loc 1 309 51 is_stmt 0 view .LVU221
 1016 0000 2DE9F04F 		push	{r4, r5, r6, r7, r8, r9, r10, fp, lr}	@
 1017              	.LCFI12:
 1018              		.cfi_def_cfa_offset 36
 1019              		.cfi_offset 4, -36
 1020              		.cfi_offset 5, -32
 1021              		.cfi_offset 6, -28
 1022              		.cfi_offset 7, -24
 1023              		.cfi_offset 8, -20
 1024              		.cfi_offset 9, -16
 1025              		.cfi_offset 10, -12
 1026              		.cfi_offset 11, -8
 1027              		.cfi_offset 14, -4
 1028 0004 2DED048B 		vpush.64	{d8, d9}	@
 1029              	.LCFI13:
 1030              		.cfi_def_cfa_offset 52
 1031              		.cfi_offset 80, -52
 1032              		.cfi_offset 81, -48
 1033              		.cfi_offset 82, -44
 1034              		.cfi_offset 83, -40
 1035 0008 93B0     		sub	sp, sp, #76	@,,
 1036              	.LCFI14:
 1037              		.cfi_def_cfa_offset 128
 1038              	@ src/pdantler/printf.c:309:                               unsigned int flags) {
 309:src/pdantler/printf.c ****   char buf[PRINTF_NTOA_BUFFER_SIZE];
 1039              		.loc 1 309 51 view .LVU222
 1040 000a 9B46     		mov	fp, r3	@ maxlen, tmp172
 1041 000c 08EE100A 		vmov	s16, r0	@ int	@ out, tmp169
ARM GAS  /tmp/ccFy9xbE.s 			page 27


 1042 0010 08EE901A 		vmov	s17, r1	@ int	@ buffer, tmp170
 1043 0014 9DF88830 		ldrb	r3, [sp, #136]	@ zero_extendqisi2	@ negative, negative
 1044              	.LVL81:
 309:src/pdantler/printf.c ****   char buf[PRINTF_NTOA_BUFFER_SIZE];
 1045              		.loc 1 309 51 view .LVU223
 1046 0018 09EE102A 		vmov	s18, r2	@ int	@ idx, tmp171
 1047 001c 209C     		ldr	r4, [sp, #128]	@ value, value
 1048 001e 219D     		ldr	r5, [sp, #132]	@ value, value
 1049 0020 0893     		str	r3, [sp, #32]	@ negative, %sfp
 1050              	@ src/pdantler/printf.c:314:   if (!value) {
 1051              		.loc 1 314 6 view .LVU224
 1052 0022 54EA0503 		orrs	r3, r4, r5	@ tmp188, value, value
 1053              	@ src/pdantler/printf.c:309:                               unsigned int flags) {
 309:src/pdantler/printf.c ****   char buf[PRINTF_NTOA_BUFFER_SIZE];
 1054              		.loc 1 309 51 view .LVU225
 1055 0026 DDE92478 		ldrd	r7, r8, [sp, #144]	@ base, base,,
 1056              	@ src/pdantler/printf.c:314:   if (!value) {
 1057              		.loc 1 314 6 view .LVU226
 1058 002a 23D1     		bne	.L146		@,
 315:src/pdantler/printf.c ****     flags &= ~FLAGS_HASH;
 1059              		.loc 1 315 5 is_stmt 1 view .LVU227
 1060              	@ src/pdantler/printf.c:315:     flags &= ~FLAGS_HASH;
 1061              		.loc 1 315 11 is_stmt 0 view .LVU228
 1062 002c 289B     		ldr	r3, [sp, #160]	@ tmp192, flags
 1063              	@ src/pdantler/printf.c:319:   if (!(flags & FLAGS_PRECISION) || value) {
 316:src/pdantler/printf.c ****   }
 317:src/pdantler/printf.c **** 
 318:src/pdantler/printf.c ****   // write if precision != 0 and value is != 0
 319:src/pdantler/printf.c ****   if (!(flags & FLAGS_PRECISION) || value) {
 1064              		.loc 1 319 6 view .LVU229
 1065 002e 289A     		ldr	r2, [sp, #160]	@ tmp193, flags
 1066              	.LVL82:
 1067              	@ src/pdantler/printf.c:315:     flags &= ~FLAGS_HASH;
 315:src/pdantler/printf.c ****     flags &= ~FLAGS_HASH;
 1068              		.loc 1 315 11 view .LVU230
 1069 0030 23F01003 		bic	r3, r3, #16	@ flags, tmp192,
 1070              	.LVL83:
 1071              		.loc 1 319 3 is_stmt 1 view .LVU231
 1072              	@ src/pdantler/printf.c:315:     flags &= ~FLAGS_HASH;
 315:src/pdantler/printf.c ****     flags &= ~FLAGS_HASH;
 1073              		.loc 1 315 11 is_stmt 0 view .LVU232
 1074 0034 2893     		str	r3, [sp, #160]	@ flags, flags
 1075              	@ src/pdantler/printf.c:319:   if (!(flags & FLAGS_PRECISION) || value) {
 1076              		.loc 1 319 6 view .LVU233
 1077 0036 5305     		lsls	r3, r2, #21	@, tmp193,
 1078              	.LVL84:
 1079              		.loc 1 319 6 view .LVU234
 1080 0038 1CD5     		bpl	.L146		@,
 1081 003a 0AAB     		add	r3, sp, #40	@ tmp167,,
 1082              	@ src/pdantler/printf.c:311:   size_t len = 0U;
 311:src/pdantler/printf.c **** 
 1083              		.loc 1 311 10 view .LVU235
 1084 003c 0026     		movs	r6, #0	@ len,
 1085 003e 0993     		str	r3, [sp, #36]	@ tmp167, %sfp
 1086              	.LVL85:
 1087              	.L147:
 320:src/pdantler/printf.c ****     do {
ARM GAS  /tmp/ccFy9xbE.s 			page 28


 321:src/pdantler/printf.c ****       const char digit = (char)(value % base);
 322:src/pdantler/printf.c ****       buf[len++] = digit < 10
 323:src/pdantler/printf.c ****                        ? '0' + digit
 324:src/pdantler/printf.c ****                        : (flags & FLAGS_UPPERCASE ? 'A' : 'a') + digit - 10;
 325:src/pdantler/printf.c ****       value /= base;
 326:src/pdantler/printf.c ****     } while (value && (len < PRINTF_NTOA_BUFFER_SIZE));
 327:src/pdantler/printf.c ****   }
 328:src/pdantler/printf.c **** 
 329:src/pdantler/printf.c ****   return _ntoa_format(out, buffer, idx, maxlen, buf, len, negative,
 1088              		.loc 1 329 3 is_stmt 1 view .LVU236
 1089              	@ src/pdantler/printf.c:329:   return _ntoa_format(out, buffer, idx, maxlen, buf, len, negative,
 1090              		.loc 1 329 10 is_stmt 0 view .LVU237
 1091 0040 289B     		ldr	r3, [sp, #160]	@ tmp199, flags
 1092 0042 19EE102A 		vmov	r2, s18	@ int	@, idx
 1093 0046 099C     		ldr	r4, [sp, #36]	@ tmp167, %sfp
 1094 0048 18EE901A 		vmov	r1, s17	@ int	@, buffer
 1095 004c 0693     		str	r3, [sp, #24]	@ tmp199,
 1096 004e 18EE100A 		vmov	r0, s16	@ int	@, out
 1097 0052 279B     		ldr	r3, [sp, #156]	@ tmp200, width
 1098 0054 0094     		str	r4, [sp]	@ tmp167,
 1099 0056 0593     		str	r3, [sp, #20]	@ tmp200,
 1100 0058 269B     		ldr	r3, [sp, #152]	@ tmp201, prec
 1101 005a CDE90373 		strd	r7, r3, [sp, #12]	@ base, tmp201,,
 1102 005e 089B     		ldr	r3, [sp, #32]	@ negative, %sfp
 1103 0060 CDE90163 		strd	r6, r3, [sp, #4]	@ len, negative,,
 1104 0064 5B46     		mov	r3, fp	@, maxlen
 1105 0066 FFF7FEFF 		bl	_ntoa_format		@
 1106              	.LVL86:
 1107              	@ src/pdantler/printf.c:331: }
 330:src/pdantler/printf.c ****                       (unsigned int)base, prec, width, flags);
 331:src/pdantler/printf.c **** }
 1108              		.loc 1 331 1 view .LVU238
 1109 006a 13B0     		add	sp, sp, #76	@,,
 1110              	.LCFI15:
 1111              		.cfi_remember_state
 1112              		.cfi_def_cfa_offset 52
 1113              		@ sp needed	@
 1114 006c BDEC048B 		vldm	sp!, {d8-d9}	@,
 1115              	.LCFI16:
 1116              		.cfi_restore 82
 1117              		.cfi_restore 83
 1118              		.cfi_restore 80
 1119              		.cfi_restore 81
 1120              		.cfi_def_cfa_offset 36
 1121              	.LVL87:
 1122              		.loc 1 331 1 view .LVU239
 1123 0070 BDE8F08F 		pop	{r4, r5, r6, r7, r8, r9, r10, fp, pc}	@
 1124              	.LVL88:
 1125              	.L146:
 1126              	.LCFI17:
 1127              		.cfi_restore_state
 1128              		.loc 1 331 1 view .LVU240
 1129 0074 289B     		ldr	r3, [sp, #160]	@ tmp194, flags
 1130              	.LBB24:
 1131              	@ src/pdantler/printf.c:324:                        : (flags & FLAGS_UPPERCASE ? 'A' : 'a') + digit
 324:src/pdantler/printf.c ****       value /= base;
 1132              		.loc 1 324 33 view .LVU241
ARM GAS  /tmp/ccFy9xbE.s 			page 29


 1133 0076 0026     		movs	r6, #0	@ len,
 1134 0078 13F0200F 		tst	r3, #32	@ tmp194,
 1135 007c 0AAB     		add	r3, sp, #40	@ tmp167,,
 1136 007e 14BF     		ite	ne
 1137 0080 4FF0410A 		movne	r10, #65	@ iftmp.75_14,
 1138 0084 4FF0610A 		moveq	r10, #97	@ iftmp.75_14,
 1139 0088 9946     		mov	r9, r3	@ ivtmp.198, tmp167
 1140 008a 0993     		str	r3, [sp, #36]	@ tmp167, %sfp
 1141              	@ src/pdantler/printf.c:322:       buf[len++] = digit < 10
 322:src/pdantler/printf.c ****                        ? '0' + digit
 1142              		.loc 1 322 18 view .LVU242
 1143 008c AAF10A0A 		sub	r10, r10, #10	@ tmp168, iftmp.75_14,
 1144              	.LVL89:
 1145              	.L150:
 322:src/pdantler/printf.c ****                        ? '0' + digit
 1146              		.loc 1 322 18 view .LVU243
 1147              	.LBE24:
 320:src/pdantler/printf.c ****       const char digit = (char)(value % base);
 1148              		.loc 1 320 5 is_stmt 1 view .LVU244
 1149              	.LBB25:
 321:src/pdantler/printf.c ****       buf[len++] = digit < 10
 1150              		.loc 1 321 7 view .LVU245
 1151 0090 2046     		mov	r0, r4	@, value
 1152 0092 2946     		mov	r1, r5	@, value
 1153 0094 3A46     		mov	r2, r7	@, base
 1154 0096 4346     		mov	r3, r8	@, base
 1155 0098 FFF7FEFF 		bl	__aeabi_uldivmod		@
 1156              	.LVL90:
 1157              	@ src/pdantler/printf.c:322:       buf[len++] = digit < 10
 322:src/pdantler/printf.c ****                        ? '0' + digit
 1158              		.loc 1 322 14 is_stmt 0 view .LVU246
 1159 009c 0136     		adds	r6, r6, #1	@ len, len,
 1160              	.LVL91:
 1161              	@ src/pdantler/printf.c:321:       const char digit = (char)(value % base);
 321:src/pdantler/printf.c ****       buf[len++] = digit < 10
 1162              		.loc 1 321 18 view .LVU247
 1163 009e D2B2     		uxtb	r2, r2	@ digit, tmp174
 1164              	.LVL92:
 322:src/pdantler/printf.c ****                        ? '0' + digit
 1165              		.loc 1 322 7 is_stmt 1 view .LVU248
 1166              	@ src/pdantler/printf.c:322:       buf[len++] = digit < 10
 322:src/pdantler/printf.c ****                        ? '0' + digit
 1167              		.loc 1 322 18 is_stmt 0 view .LVU249
 1168 00a0 092A     		cmp	r2, #9	@ digit,
 1169 00a2 02EB0A03 		add	r3, r2, r10	@ tmp150, digit, tmp168
 1170 00a6 02F13002 		add	r2, r2, #48	@ tmp147, digit,
 1171              	.LVL93:
 322:src/pdantler/printf.c ****                        ? '0' + digit
 1172              		.loc 1 322 18 view .LVU250
 1173 00aa DBB2     		uxtb	r3, r3	@ iftmp.74_13, tmp150
 1174 00ac 98BF     		it	ls
 1175 00ae D3B2     		uxtbls	r3, r2	@ iftmp.74_13, tmp147
 1176              	.LBE25:
 1177              	@ src/pdantler/printf.c:326:     } while (value && (len < PRINTF_NTOA_BUFFER_SIZE));
 326:src/pdantler/printf.c ****   }
 1178              		.loc 1 326 14 view .LVU251
 1179 00b0 BC42     		cmp	r4, r7	@ value, base
ARM GAS  /tmp/ccFy9xbE.s 			page 30


 1180              	.LBB26:
 1181              	@ src/pdantler/printf.c:325:       value /= base;
 325:src/pdantler/printf.c ****     } while (value && (len < PRINTF_NTOA_BUFFER_SIZE));
 1182              		.loc 1 325 13 view .LVU252
 1183 00b2 0446     		mov	r4, r0	@ value, divmod_tmp_43
 1184              	.LVL94:
 1185              	@ src/pdantler/printf.c:322:       buf[len++] = digit < 10
 322:src/pdantler/printf.c ****                        ? '0' + digit
 1186              		.loc 1 322 18 view .LVU253
 1187 00b4 09F8013B 		strb	r3, [r9], #1	@ iftmp.74_13, MEM[base: _38, offset: 0B]
 325:src/pdantler/printf.c ****     } while (value && (len < PRINTF_NTOA_BUFFER_SIZE));
 1188              		.loc 1 325 7 is_stmt 1 view .LVU254
 1189              	.LVL95:
 325:src/pdantler/printf.c ****     } while (value && (len < PRINTF_NTOA_BUFFER_SIZE));
 1190              		.loc 1 325 7 is_stmt 0 view .LVU255
 1191              	.LBE26:
 326:src/pdantler/printf.c ****   }
 1192              		.loc 1 326 13 is_stmt 1 view .LVU256
 1193              	@ src/pdantler/printf.c:326:     } while (value && (len < PRINTF_NTOA_BUFFER_SIZE));
 326:src/pdantler/printf.c ****   }
 1194              		.loc 1 326 5 is_stmt 0 view .LVU257
 1195 00b8 75EB0803 		sbcs	r3, r5, r8	@ tmp189, value, base
 1196              	.LBB27:
 1197              	@ src/pdantler/printf.c:325:       value /= base;
 325:src/pdantler/printf.c ****     } while (value && (len < PRINTF_NTOA_BUFFER_SIZE));
 1198              		.loc 1 325 13 view .LVU258
 1199 00bc 0D46     		mov	r5, r1	@ value, divmod_tmp_43
 1200              	.LBE27:
 1201              	@ src/pdantler/printf.c:326:     } while (value && (len < PRINTF_NTOA_BUFFER_SIZE));
 326:src/pdantler/printf.c ****   }
 1202              		.loc 1 326 5 view .LVU259
 1203 00be BFD3     		bcc	.L147		@,
 1204              	@ src/pdantler/printf.c:326:     } while (value && (len < PRINTF_NTOA_BUFFER_SIZE));
 326:src/pdantler/printf.c ****   }
 1205              		.loc 1 326 5 discriminator 3 view .LVU260
 1206 00c0 1F2E     		cmp	r6, #31	@ len,
 1207 00c2 E5D9     		bls	.L150		@,
 1208 00c4 BCE7     		b	.L147		@
 1209              		.cfi_endproc
 1210              	.LFE10:
 1211              		.size	_ntoa_long_long, .-_ntoa_long_long
 1212              		.global	__aeabi_dcmpeq
 1213              		.global	__aeabi_dcmpgt
 1214              		.global	__aeabi_dcmplt
 1215              		.global	__aeabi_i2d
 1216              		.global	__aeabi_dmul
 1217              		.global	__aeabi_dadd
 1218              		.global	__aeabi_dsub
 1219              		.global	__aeabi_d2iz
 1220              		.global	__aeabi_ddiv
 1221              		.global	__aeabi_dcmpge
 1222 00c6 00BF     		.section	.text._etoa,"ax",%progbits
 1223              		.align	1
 1224              		.p2align 4,,15
 1225              		.syntax unified
 1226              		.thumb
 1227              		.thumb_func
ARM GAS  /tmp/ccFy9xbE.s 			page 31


 1228              		.fpu fpv5-sp-d16
 1229              		.type	_etoa, %function
 1230              	_etoa:
 1231              	.LVL96:
 1232              	.LFB12:
 332:src/pdantler/printf.c **** #endif // PRINTF_SUPPORT_LONG_LONG
 333:src/pdantler/printf.c **** 
 334:src/pdantler/printf.c **** #if defined(PRINTF_SUPPORT_FLOAT)
 335:src/pdantler/printf.c **** 
 336:src/pdantler/printf.c **** #if defined(PRINTF_SUPPORT_EXPONENTIAL)
 337:src/pdantler/printf.c **** // forward declaration so that _ftoa can switch to exp notation for values >
 338:src/pdantler/printf.c **** // PRINTF_MAX_FLOAT
 339:src/pdantler/printf.c **** static size_t _etoa(out_fct_type out, char *buffer, size_t idx, size_t maxlen,
 340:src/pdantler/printf.c ****                     double value, unsigned int prec, unsigned int width,
 341:src/pdantler/printf.c ****                     unsigned int flags);
 342:src/pdantler/printf.c **** #endif
 343:src/pdantler/printf.c **** 
 344:src/pdantler/printf.c **** // internal ftoa for fixed decimal floating point
 345:src/pdantler/printf.c **** static size_t _ftoa(out_fct_type out, char *buffer, size_t idx, size_t maxlen,
 346:src/pdantler/printf.c ****                     double value, unsigned int prec, unsigned int width,
 347:src/pdantler/printf.c ****                     unsigned int flags) {
 348:src/pdantler/printf.c ****   char buf[PRINTF_FTOA_BUFFER_SIZE];
 349:src/pdantler/printf.c ****   size_t len = 0U;
 350:src/pdantler/printf.c ****   double diff = 0.0;
 351:src/pdantler/printf.c **** 
 352:src/pdantler/printf.c ****   // powers of 10
 353:src/pdantler/printf.c ****   static const double pow10[] = {1,         10,        100,     1000,
 354:src/pdantler/printf.c ****                                  10000,     100000,    1000000, 10000000,
 355:src/pdantler/printf.c ****                                  100000000, 1000000000};
 356:src/pdantler/printf.c **** 
 357:src/pdantler/printf.c ****   // test for special values
 358:src/pdantler/printf.c ****   if (value != value)
 359:src/pdantler/printf.c ****     return _out_rev(out, buffer, idx, maxlen, "nan", 3, width, flags);
 360:src/pdantler/printf.c ****   if (value < -DBL_MAX)
 361:src/pdantler/printf.c ****     return _out_rev(out, buffer, idx, maxlen, "fni-", 4, width, flags);
 362:src/pdantler/printf.c ****   if (value > DBL_MAX)
 363:src/pdantler/printf.c ****     return _out_rev(out, buffer, idx, maxlen,
 364:src/pdantler/printf.c ****                     (flags & FLAGS_PLUS) ? "fni+" : "fni",
 365:src/pdantler/printf.c ****                     (flags & FLAGS_PLUS) ? 4U : 3U, width, flags);
 366:src/pdantler/printf.c **** 
 367:src/pdantler/printf.c ****   // test for very large values
 368:src/pdantler/printf.c ****   // standard printf behavior is to print EVERY whole number digit -- which
 369:src/pdantler/printf.c ****   // could be 100s of characters overflowing your buffers == bad
 370:src/pdantler/printf.c ****   if ((value > PRINTF_MAX_FLOAT) || (value < -PRINTF_MAX_FLOAT)) {
 371:src/pdantler/printf.c **** #if defined(PRINTF_SUPPORT_EXPONENTIAL)
 372:src/pdantler/printf.c ****     return _etoa(out, buffer, idx, maxlen, value, prec, width, flags);
 373:src/pdantler/printf.c **** #else
 374:src/pdantler/printf.c ****     return 0U;
 375:src/pdantler/printf.c **** #endif
 376:src/pdantler/printf.c ****   }
 377:src/pdantler/printf.c **** 
 378:src/pdantler/printf.c ****   // test for negative
 379:src/pdantler/printf.c ****   bool negative = false;
 380:src/pdantler/printf.c ****   if (value < 0) {
 381:src/pdantler/printf.c ****     negative = true;
 382:src/pdantler/printf.c ****     value = 0 - value;
 383:src/pdantler/printf.c ****   }
ARM GAS  /tmp/ccFy9xbE.s 			page 32


 384:src/pdantler/printf.c **** 
 385:src/pdantler/printf.c ****   // set default precision, if not set explicitly
 386:src/pdantler/printf.c ****   if (!(flags & FLAGS_PRECISION)) {
 387:src/pdantler/printf.c ****     prec = PRINTF_DEFAULT_FLOAT_PRECISION;
 388:src/pdantler/printf.c ****   }
 389:src/pdantler/printf.c ****   // limit precision to 9, cause a prec >= 10 can lead to overflow errors
 390:src/pdantler/printf.c ****   while ((len < PRINTF_FTOA_BUFFER_SIZE) && (prec > 9U)) {
 391:src/pdantler/printf.c ****     buf[len++] = '0';
 392:src/pdantler/printf.c ****     prec--;
 393:src/pdantler/printf.c ****   }
 394:src/pdantler/printf.c **** 
 395:src/pdantler/printf.c ****   int whole = (int)value;
 396:src/pdantler/printf.c ****   double tmp = (value - whole) * pow10[prec];
 397:src/pdantler/printf.c ****   unsigned long frac = (unsigned long)tmp;
 398:src/pdantler/printf.c ****   diff = tmp - frac;
 399:src/pdantler/printf.c **** 
 400:src/pdantler/printf.c ****   if (diff > 0.5) {
 401:src/pdantler/printf.c ****     ++frac;
 402:src/pdantler/printf.c ****     // handle rollover, e.g. case 0.99 with prec 1 is 1.0
 403:src/pdantler/printf.c ****     if (frac >= pow10[prec]) {
 404:src/pdantler/printf.c ****       frac = 0;
 405:src/pdantler/printf.c ****       ++whole;
 406:src/pdantler/printf.c ****     }
 407:src/pdantler/printf.c ****   } else if (diff < 0.5) {
 408:src/pdantler/printf.c ****   } else if ((frac == 0U) || (frac & 1U)) {
 409:src/pdantler/printf.c ****     // if halfway, round up if odd OR if last digit is 0
 410:src/pdantler/printf.c ****     ++frac;
 411:src/pdantler/printf.c ****   }
 412:src/pdantler/printf.c **** 
 413:src/pdantler/printf.c ****   if (prec == 0U) {
 414:src/pdantler/printf.c ****     diff = value - (double)whole;
 415:src/pdantler/printf.c ****     if ((!(diff < 0.5) || (diff > 0.5)) && (whole & 1)) {
 416:src/pdantler/printf.c ****       // exactly 0.5 and ODD, then round up
 417:src/pdantler/printf.c ****       // 1.5 -> 2, but 2.5 -> 2
 418:src/pdantler/printf.c ****       ++whole;
 419:src/pdantler/printf.c ****     }
 420:src/pdantler/printf.c ****   } else {
 421:src/pdantler/printf.c ****     unsigned int count = prec;
 422:src/pdantler/printf.c ****     // now do fractional part, as an unsigned number
 423:src/pdantler/printf.c ****     while (len < PRINTF_FTOA_BUFFER_SIZE) {
 424:src/pdantler/printf.c ****       --count;
 425:src/pdantler/printf.c ****       buf[len++] = (char)(48U + (frac % 10U));
 426:src/pdantler/printf.c ****       if (!(frac /= 10U)) {
 427:src/pdantler/printf.c ****         break;
 428:src/pdantler/printf.c ****       }
 429:src/pdantler/printf.c ****     }
 430:src/pdantler/printf.c ****     // add extra 0s
 431:src/pdantler/printf.c ****     while ((len < PRINTF_FTOA_BUFFER_SIZE) && (count-- > 0U)) {
 432:src/pdantler/printf.c ****       buf[len++] = '0';
 433:src/pdantler/printf.c ****     }
 434:src/pdantler/printf.c ****     if (len < PRINTF_FTOA_BUFFER_SIZE) {
 435:src/pdantler/printf.c ****       // add decimal
 436:src/pdantler/printf.c ****       buf[len++] = '.';
 437:src/pdantler/printf.c ****     }
 438:src/pdantler/printf.c ****   }
 439:src/pdantler/printf.c **** 
 440:src/pdantler/printf.c ****   // do whole part, number is reversed
ARM GAS  /tmp/ccFy9xbE.s 			page 33


 441:src/pdantler/printf.c ****   while (len < PRINTF_FTOA_BUFFER_SIZE) {
 442:src/pdantler/printf.c ****     buf[len++] = (char)(48 + (whole % 10));
 443:src/pdantler/printf.c ****     if (!(whole /= 10)) {
 444:src/pdantler/printf.c ****       break;
 445:src/pdantler/printf.c ****     }
 446:src/pdantler/printf.c ****   }
 447:src/pdantler/printf.c **** 
 448:src/pdantler/printf.c ****   // pad leading zeros
 449:src/pdantler/printf.c ****   if (!(flags & FLAGS_LEFT) && (flags & FLAGS_ZEROPAD)) {
 450:src/pdantler/printf.c ****     if (width && (negative || (flags & (FLAGS_PLUS | FLAGS_SPACE)))) {
 451:src/pdantler/printf.c ****       width--;
 452:src/pdantler/printf.c ****     }
 453:src/pdantler/printf.c ****     while ((len < width) && (len < PRINTF_FTOA_BUFFER_SIZE)) {
 454:src/pdantler/printf.c ****       buf[len++] = '0';
 455:src/pdantler/printf.c ****     }
 456:src/pdantler/printf.c ****   }
 457:src/pdantler/printf.c **** 
 458:src/pdantler/printf.c ****   if (len < PRINTF_FTOA_BUFFER_SIZE) {
 459:src/pdantler/printf.c ****     if (negative) {
 460:src/pdantler/printf.c ****       buf[len++] = '-';
 461:src/pdantler/printf.c ****     } else if (flags & FLAGS_PLUS) {
 462:src/pdantler/printf.c ****       buf[len++] = '+'; // ignore the space if the '+' exists
 463:src/pdantler/printf.c ****     } else if (flags & FLAGS_SPACE) {
 464:src/pdantler/printf.c ****       buf[len++] = ' ';
 465:src/pdantler/printf.c ****     }
 466:src/pdantler/printf.c ****   }
 467:src/pdantler/printf.c **** 
 468:src/pdantler/printf.c ****   return _out_rev(out, buffer, idx, maxlen, buf, len, width, flags);
 469:src/pdantler/printf.c **** }
 470:src/pdantler/printf.c **** 
 471:src/pdantler/printf.c **** #if defined(PRINTF_SUPPORT_EXPONENTIAL)
 472:src/pdantler/printf.c **** // internal ftoa variant for exponential floating-point type, contributed by
 473:src/pdantler/printf.c **** // Martijn Jasperse <m.jasperse@gmail.com>
 474:src/pdantler/printf.c **** static size_t _etoa(out_fct_type out, char *buffer, size_t idx, size_t maxlen,
 475:src/pdantler/printf.c ****                     double value, unsigned int prec, unsigned int width,
 476:src/pdantler/printf.c ****                     unsigned int flags) {
 1233              		.loc 1 476 41 is_stmt 1 view -0
 1234              		.cfi_startproc
 1235              		@ args = 20, pretend = 0, frame = 48
 1236              		@ frame_needed = 0, uses_anonymous_args = 0
 477:src/pdantler/printf.c ****   // check for NaN and special values
 478:src/pdantler/printf.c ****   if ((value != value) || (value > DBL_MAX) || (value < -DBL_MAX)) {
 1237              		.loc 1 478 3 view .LVU262
 1238              	@ src/pdantler/printf.c:476:                     unsigned int flags) {
 476:src/pdantler/printf.c ****   // check for NaN and special values
 1239              		.loc 1 476 41 is_stmt 0 view .LVU263
 1240 0000 2DE9F04F 		push	{r4, r5, r6, r7, r8, r9, r10, fp, lr}	@
 1241              	.LCFI18:
 1242              		.cfi_def_cfa_offset 36
 1243              		.cfi_offset 4, -36
 1244              		.cfi_offset 5, -32
 1245              		.cfi_offset 6, -28
 1246              		.cfi_offset 7, -24
 1247              		.cfi_offset 8, -20
 1248              		.cfi_offset 9, -16
 1249              		.cfi_offset 10, -12
 1250              		.cfi_offset 11, -8
ARM GAS  /tmp/ccFy9xbE.s 			page 34


 1251              		.cfi_offset 14, -4
 1252 0004 2DED048B 		vpush.64	{d8, d9}	@
 1253              	.LCFI19:
 1254              		.cfi_def_cfa_offset 52
 1255              		.cfi_offset 80, -52
 1256              		.cfi_offset 81, -48
 1257              		.cfi_offset 82, -44
 1258              		.cfi_offset 83, -40
 1259 0008 93B0     		sub	sp, sp, #76	@,,
 1260              	.LCFI20:
 1261              		.cfi_def_cfa_offset 128
 1262              	@ src/pdantler/printf.c:476:                     unsigned int flags) {
 476:src/pdantler/printf.c ****   // check for NaN and special values
 1263              		.loc 1 476 41 view .LVU264
 1264 000a 1D46     		mov	r5, r3	@ maxlen, tmp285
 1265 000c 0746     		mov	r7, r0	@ out, tmp282
 1266 000e 0C46     		mov	r4, r1	@ buffer, tmp283
 1267 0010 229B     		ldr	r3, [sp, #136]	@ prec, prec
 1268              	.LVL97:
 476:src/pdantler/printf.c ****   // check for NaN and special values
 1269              		.loc 1 476 41 view .LVU265
 1270 0012 0C92     		str	r2, [sp, #48]	@ tmp284, %sfp
 1271 0014 0A93     		str	r3, [sp, #40]	@ prec, %sfp
 1272 0016 239B     		ldr	r3, [sp, #140]	@ width, width
 1273 0018 DDE920AB 		ldrd	r10, [sp, #128]	@ value,,
 1274 001c 0B93     		str	r3, [sp, #44]	@ width, %sfp
 1275 001e 249B     		ldr	r3, [sp, #144]	@ flags, flags
 1276              	@ src/pdantler/printf.c:478:   if ((value != value) || (value > DBL_MAX) || (value < -DBL_MAX)) {
 1277              		.loc 1 478 6 view .LVU266
 1278 0020 5246     		mov	r2, r10	@, value
 1279              	.LVL98:
 1280              		.loc 1 478 6 view .LVU267
 1281 0022 5046     		mov	r0, r10	@, value
 1282              	.LVL99:
 1283              		.loc 1 478 6 view .LVU268
 1284 0024 5946     		mov	r1, fp	@, value
 1285              	.LVL100:
 1286              	@ src/pdantler/printf.c:476:                     unsigned int flags) {
 476:src/pdantler/printf.c ****   // check for NaN and special values
 1287              		.loc 1 476 41 view .LVU269
 1288 0026 0793     		str	r3, [sp, #28]	@ flags, %sfp
 1289              	@ src/pdantler/printf.c:478:   if ((value != value) || (value > DBL_MAX) || (value < -DBL_MAX)) {
 1290              		.loc 1 478 6 view .LVU270
 1291 0028 5B46     		mov	r3, fp	@, value
 1292 002a FFF7FEFF 		bl	__aeabi_dcmpeq		@
 1293              	.LVL101:
 1294 002e 0028     		cmp	r0, #0	@ tmp286
 1295 0030 00F01B81 		beq	.L160	@
 1296              	@ src/pdantler/printf.c:478:   if ((value != value) || (value > DBL_MAX) || (value < -DBL_MAX)) {
 1297              		.loc 1 478 24 discriminator 1 view .LVU271
 1298 0034 4FF0FF32 		mov	r2, #-1	@,
 1299 0038 AB4B     		ldr	r3, .L224+64	@,
 1300 003a 5046     		mov	r0, r10	@, value
 1301 003c 5946     		mov	r1, fp	@, value
 1302 003e FFF7FEFF 		bl	__aeabi_dcmpgt		@
 1303              	.LVL102:
 1304 0042 0028     		cmp	r0, #0	@ tmp287
ARM GAS  /tmp/ccFy9xbE.s 			page 35


 1305 0044 40F01181 		bne	.L160	@
 1306              	@ src/pdantler/printf.c:478:   if ((value != value) || (value > DBL_MAX) || (value < -DBL_MAX)) {
 1307              		.loc 1 478 45 discriminator 2 view .LVU272
 1308 0048 4FF0FF32 		mov	r2, #-1	@,
 1309 004c 6FF48013 		mvn	r3, #1048576	@,
 1310 0050 5046     		mov	r0, r10	@, value
 1311 0052 5946     		mov	r1, fp	@, value
 1312 0054 FFF7FEFF 		bl	__aeabi_dcmplt		@
 1313              	.LVL103:
 1314 0058 0028     		cmp	r0, #0	@ tmp288
 1315 005a 40F00681 		bne	.L160	@
 479:src/pdantler/printf.c ****     return _ftoa(out, buffer, idx, maxlen, value, prec, width, flags);
 480:src/pdantler/printf.c ****   }
 481:src/pdantler/printf.c **** 
 482:src/pdantler/printf.c ****   // determine the sign
 483:src/pdantler/printf.c ****   const bool negative = value < 0;
 1316              		.loc 1 483 3 is_stmt 1 view .LVU273
 1317              	.LVL104:
 484:src/pdantler/printf.c ****   if (negative) {
 1318              		.loc 1 484 3 view .LVU274
 1319              	@ src/pdantler/printf.c:484:   if (negative) {
 1320              		.loc 1 484 6 is_stmt 0 view .LVU275
 1321 005e 0022     		movs	r2, #0	@,
 1322 0060 0023     		movs	r3, #0	@,
 1323 0062 5046     		mov	r0, r10	@, value
 1324 0064 5946     		mov	r1, fp	@, value
 1325 0066 FFF7FEFF 		bl	__aeabi_dcmplt		@
 1326              	.LVL105:
 1327 006a 0028     		cmp	r0, #0	@ tmp289
 1328 006c 40F0D681 		bne	.L220	@
 1329 0070 CDE908AB 		strd	r10, [sp, #32]	@ value,,
 1330              	.LVL106:
 1331              	.L163:
 485:src/pdantler/printf.c ****     value = -value;
 486:src/pdantler/printf.c ****   }
 487:src/pdantler/printf.c **** 
 488:src/pdantler/printf.c ****   // default precision
 489:src/pdantler/printf.c ****   if (!(flags & FLAGS_PRECISION)) {
 1332              		.loc 1 489 3 is_stmt 1 view .LVU276
 1333              	@ src/pdantler/printf.c:490:     prec = PRINTF_DEFAULT_FLOAT_PRECISION;
 490:src/pdantler/printf.c ****     prec = PRINTF_DEFAULT_FLOAT_PRECISION;
 1334              		.loc 1 490 10 is_stmt 0 view .LVU277
 1335 0074 079B     		ldr	r3, [sp, #28]	@ flags, %sfp
 1336              	@ src/pdantler/printf.c:500:   conv.F = value;
 491:src/pdantler/printf.c ****   }
 492:src/pdantler/printf.c **** 
 493:src/pdantler/printf.c ****   // determine the decimal exponent
 494:src/pdantler/printf.c ****   // based on the algorithm by David Gay (https://www.ampl.com/netlib/fp/dtoa.c)
 495:src/pdantler/printf.c ****   union {
 496:src/pdantler/printf.c ****     uint64_t U;
 497:src/pdantler/printf.c ****     double F;
 498:src/pdantler/printf.c ****   } conv;
 499:src/pdantler/printf.c **** 
 500:src/pdantler/printf.c ****   conv.F = value;
 1337              		.loc 1 500 10 view .LVU278
 1338 0076 DDE90812 		ldrd	r1, [sp, #32]	@ value,,
 1339              	@ src/pdantler/printf.c:490:     prec = PRINTF_DEFAULT_FLOAT_PRECISION;
ARM GAS  /tmp/ccFy9xbE.s 			page 36


 490:src/pdantler/printf.c ****     prec = PRINTF_DEFAULT_FLOAT_PRECISION;
 1340              		.loc 1 490 10 view .LVU279
 1341 007a 13F48063 		ands	r3, r3, #1024	@ _1, flags,
 1342              	@ src/pdantler/printf.c:501:   int exp2 = (int)((conv.U >> 52U) & 0x07FFU) - 1023; // effectively l
 501:src/pdantler/printf.c ****   int exp2 = (int)((conv.U >> 52U) & 0x07FFU) - 1023; // effectively log2
 1343              		.loc 1 501 14 view .LVU280
 1344 007e C2F30A50 		ubfx	r0, r2, #20, #11	@ tmp201, _83,,
 1345              	@ src/pdantler/printf.c:500:   conv.F = value;
 500:src/pdantler/printf.c ****   int exp2 = (int)((conv.U >> 52U) & 0x07FFU) - 1023; // effectively log2
 1346              		.loc 1 500 10 view .LVU281
 1347 0082 9146     		mov	r9, r2	@ _83, value
 1348              	@ src/pdantler/printf.c:490:     prec = PRINTF_DEFAULT_FLOAT_PRECISION;
 490:src/pdantler/printf.c ****   }
 1349              		.loc 1 490 10 view .LVU282
 1350 0084 1193     		str	r3, [sp, #68]	@ _1, %sfp
 1351              	@ src/pdantler/printf.c:500:   conv.F = value;
 500:src/pdantler/printf.c ****   int exp2 = (int)((conv.U >> 52U) & 0x07FFU) - 1023; // effectively log2
 1352              		.loc 1 500 10 view .LVU283
 1353 0086 0E46     		mov	r6, r1	@ _83, value
 1354              	@ src/pdantler/printf.c:490:     prec = PRINTF_DEFAULT_FLOAT_PRECISION;
 490:src/pdantler/printf.c ****   }
 1355              		.loc 1 490 10 view .LVU284
 1356 0088 0A9B     		ldr	r3, [sp, #40]	@ prec, %sfp
 1357 008a 08BF     		it	eq
 1358 008c 0623     		moveq	r3, #6	@ prec,
 1359              	@ src/pdantler/printf.c:506:   int expval = (int)(0.1760912590558 + exp2 * 0.301029995663981 +
 502:src/pdantler/printf.c ****   conv.U = (conv.U & ((1ULL << 52U) - 1U)) |
 503:src/pdantler/printf.c ****            (1023ULL << 52U); // drop the exponent so conv.F is now in [1,2)
 504:src/pdantler/printf.c ****   // now approximate log10 from the log2 integer part and an expansion of ln
 505:src/pdantler/printf.c ****   // around 1.5
 506:src/pdantler/printf.c ****   int expval = (int)(0.1760912590558 + exp2 * 0.301029995663981 +
 1360              		.loc 1 506 45 view .LVU285
 1361 008e A0F2FF30 		subw	r0, r0, #1023	@, tmp201,
 1362              	@ src/pdantler/printf.c:490:     prec = PRINTF_DEFAULT_FLOAT_PRECISION;
 490:src/pdantler/printf.c ****   }
 1363              		.loc 1 490 10 view .LVU286
 1364 0092 0A93     		str	r3, [sp, #40]	@ prec, %sfp
 1365              	.LVL107:
 495:src/pdantler/printf.c ****     uint64_t U;
 1366              		.loc 1 495 3 is_stmt 1 view .LVU287
 500:src/pdantler/printf.c ****   int exp2 = (int)((conv.U >> 52U) & 0x07FFU) - 1023; // effectively log2
 1367              		.loc 1 500 3 view .LVU288
 501:src/pdantler/printf.c ****   conv.U = (conv.U & ((1ULL << 52U) - 1U)) |
 1368              		.loc 1 501 3 view .LVU289
 502:src/pdantler/printf.c ****            (1023ULL << 52U); // drop the exponent so conv.F is now in [1,2)
 1369              		.loc 1 502 3 view .LVU290
 1370              		.loc 1 506 3 view .LVU291
 1371              	@ src/pdantler/printf.c:506:   int expval = (int)(0.1760912590558 + exp2 * 0.301029995663981 +
 1372              		.loc 1 506 45 is_stmt 0 view .LVU292
 1373 0094 FFF7FEFF 		bl	__aeabi_i2d		@
 1374              	.LVL108:
 1375              		.loc 1 506 45 view .LVU293
 1376 0098 83A3     		adr	r3, .L224	@,
 1377 009a D3E90023 		ldrd	r2, [r3]	@,
 1378 009e FFF7FEFF 		bl	__aeabi_dmul		@
 1379              	.LVL109:
 1380              	@ src/pdantler/printf.c:506:   int expval = (int)(0.1760912590558 + exp2 * 0.301029995663981 +
ARM GAS  /tmp/ccFy9xbE.s 			page 37


 1381              		.loc 1 506 38 view .LVU294
 1382 00a2 83A3     		adr	r3, .L224+8	@,
 1383 00a4 D3E90023 		ldrd	r2, [r3]	@,
 1384 00a8 FFF7FEFF 		bl	__aeabi_dadd		@
 1385              	.LVL110:
 1386              	@ src/pdantler/printf.c:502:   conv.U = (conv.U & ((1ULL << 52U) - 1U)) |
 502:src/pdantler/printf.c ****            (1023ULL << 52U); // drop the exponent so conv.F is now in [1,2)
 1387              		.loc 1 502 20 view .LVU295
 1388 00ac C9F31303 		ubfx	r3, r9, #0, #20	@ tmp278, _83,,
 1389              	@ src/pdantler/printf.c:506:   int expval = (int)(0.1760912590558 + exp2 * 0.301029995663981 +
 1390              		.loc 1 506 38 view .LVU296
 1391 00b0 8946     		mov	r9, r1	@,
 1392 00b2 8046     		mov	r8, r0	@ tmp206, tmp290
 1393              	@ src/pdantler/printf.c:502:   conv.U = (conv.U & ((1ULL << 52U) - 1U)) |
 502:src/pdantler/printf.c ****            (1023ULL << 52U); // drop the exponent so conv.F is now in [1,2)
 1394              		.loc 1 502 44 view .LVU297
 1395 00b4 43F07F51 		orr	r1, r3, #1069547520	@ _83, tmp278,
 1396 00b8 3046     		mov	r0, r6	@ _83, _83
 1397              	@ src/pdantler/printf.c:507:                      (conv.F - 1.5) * 0.289529654602168);
 507:src/pdantler/printf.c ****                      (conv.F - 1.5) * 0.289529654602168);
 1398              		.loc 1 507 30 view .LVU298
 1399 00ba 0022     		movs	r2, #0	@,
 1400 00bc 8B4B     		ldr	r3, .L224+68	@,
 1401              	@ src/pdantler/printf.c:502:   conv.U = (conv.U & ((1ULL << 52U) - 1U)) |
 502:src/pdantler/printf.c ****            (1023ULL << 52U); // drop the exponent so conv.F is now in [1,2)
 1402              		.loc 1 502 44 view .LVU299
 1403 00be 41F44011 		orr	r1, r1, #3145728	@ _83, _83,
 1404              	@ src/pdantler/printf.c:507:                      (conv.F - 1.5) * 0.289529654602168);
 1405              		.loc 1 507 30 view .LVU300
 1406 00c2 FFF7FEFF 		bl	__aeabi_dsub		@
 1407              	.LVL111:
 1408              	@ src/pdantler/printf.c:507:                      (conv.F - 1.5) * 0.289529654602168);
 1409              		.loc 1 507 37 view .LVU301
 1410 00c6 7CA3     		adr	r3, .L224+16	@,
 1411 00c8 D3E90023 		ldrd	r2, [r3]	@,
 1412 00cc FFF7FEFF 		bl	__aeabi_dmul		@
 1413              	.LVL112:
 1414 00d0 0246     		mov	r2, r0	@ tmp291,
 1415 00d2 0B46     		mov	r3, r1	@,
 1416              	@ src/pdantler/printf.c:506:   int expval = (int)(0.1760912590558 + exp2 * 0.301029995663981 +
 506:src/pdantler/printf.c ****                      (conv.F - 1.5) * 0.289529654602168);
 1417              		.loc 1 506 65 view .LVU302
 1418 00d4 4046     		mov	r0, r8	@, tmp206
 1419 00d6 4946     		mov	r1, r9	@,
 1420 00d8 FFF7FEFF 		bl	__aeabi_dadd		@
 1421              	.LVL113:
 1422              	@ src/pdantler/printf.c:506:   int expval = (int)(0.1760912590558 + exp2 * 0.301029995663981 +
 506:src/pdantler/printf.c ****                      (conv.F - 1.5) * 0.289529654602168);
 1423              		.loc 1 506 7 view .LVU303
 1424 00dc FFF7FEFF 		bl	__aeabi_d2iz		@
 1425              	.LVL114:
 1426 00e0 0D90     		str	r0, [sp, #52]	@ tmp292, %sfp
 1427              	.LVL115:
 508:src/pdantler/printf.c ****   // now we want to compute 10^expval but we want to be sure it won't overflow
 509:src/pdantler/printf.c ****   exp2 = (int)(expval * 3.321928094887362 + 0.5);
 1428              		.loc 1 509 3 is_stmt 1 view .LVU304
 1429              	@ src/pdantler/printf.c:509:   exp2 = (int)(expval * 3.321928094887362 + 0.5);
ARM GAS  /tmp/ccFy9xbE.s 			page 38


 1430              		.loc 1 509 23 is_stmt 0 view .LVU305
 1431 00e2 FFF7FEFF 		bl	__aeabi_i2d		@
 1432              	.LVL116:
 1433              		.loc 1 509 23 view .LVU306
 1434 00e6 8046     		mov	r8, r0	@ tmp293,
 1435 00e8 8946     		mov	r9, r1	@,
 1436 00ea 75A3     		adr	r3, .L224+24	@,
 1437 00ec D3E90023 		ldrd	r2, [r3]	@,
 1438 00f0 FFF7FEFF 		bl	__aeabi_dmul		@
 1439              	.LVL117:
 1440              	@ src/pdantler/printf.c:509:   exp2 = (int)(expval * 3.321928094887362 + 0.5);
 1441              		.loc 1 509 43 view .LVU307
 1442 00f4 0022     		movs	r2, #0	@,
 1443 00f6 7E4B     		ldr	r3, .L224+72	@,
 1444 00f8 FFF7FEFF 		bl	__aeabi_dadd		@
 1445              	.LVL118:
 1446              	@ src/pdantler/printf.c:509:   exp2 = (int)(expval * 3.321928094887362 + 0.5);
 1447              		.loc 1 509 8 view .LVU308
 1448 00fc FFF7FEFF 		bl	__aeabi_d2iz		@
 1449              	.LVL119:
 1450 0100 0646     		mov	r6, r0	@ tmp294,
 1451              	@ src/pdantler/printf.c:510:   const double z = expval * 2.302585092994046 - exp2 * 0.6931471805599
 510:src/pdantler/printf.c ****   const double z = expval * 2.302585092994046 - exp2 * 0.6931471805599453;
 1452              		.loc 1 510 27 view .LVU309
 1453 0102 4946     		mov	r1, r9	@, _14
 1454              	.LVL120:
 1455              		.loc 1 510 3 is_stmt 1 view .LVU310
 1456              	@ src/pdantler/printf.c:510:   const double z = expval * 2.302585092994046 - exp2 * 0.6931471805599
 1457              		.loc 1 510 27 is_stmt 0 view .LVU311
 1458 0104 4046     		mov	r0, r8	@, _14
 1459              	.LVL121:
 1460              		.loc 1 510 27 view .LVU312
 1461 0106 70A3     		adr	r3, .L224+32	@,
 1462 0108 D3E90023 		ldrd	r2, [r3]	@,
 1463 010c FFF7FEFF 		bl	__aeabi_dmul		@
 1464              	.LVL122:
 1465 0110 8046     		mov	r8, r0	@ tmp216, tmp295
 1466 0112 8946     		mov	r9, r1	@,
 1467              	@ src/pdantler/printf.c:510:   const double z = expval * 2.302585092994046 - exp2 * 0.6931471805599
 1468              		.loc 1 510 54 view .LVU313
 1469 0114 3046     		mov	r0, r6	@, tmp215
 1470 0116 FFF7FEFF 		bl	__aeabi_i2d		@
 1471              	.LVL123:
 1472              	@ src/pdantler/printf.c:512:   conv.U = (uint64_t)(exp2 + 1023) << 52U;
 511:src/pdantler/printf.c ****   const double z2 = z * z;
 512:src/pdantler/printf.c ****   conv.U = (uint64_t)(exp2 + 1023) << 52U;
 1473              		.loc 1 512 28 view .LVU314
 1474 011a 06F2FF36 		addw	r6, r6, #1023	@ tmp231, tmp215,
 1475              	.LVL124:
 1476              	@ src/pdantler/printf.c:510:   const double z = expval * 2.302585092994046 - exp2 * 0.6931471805599
 510:src/pdantler/printf.c ****   const double z = expval * 2.302585092994046 - exp2 * 0.6931471805599453;
 1477              		.loc 1 510 54 view .LVU315
 1478 011e 6CA3     		adr	r3, .L224+40	@,
 1479 0120 D3E90023 		ldrd	r2, [r3]	@,
 1480 0124 FFF7FEFF 		bl	__aeabi_dmul		@
 1481              	.LVL125:
 1482 0128 0246     		mov	r2, r0	@ tmp296,
ARM GAS  /tmp/ccFy9xbE.s 			page 39


 1483 012a 0B46     		mov	r3, r1	@,
 1484              	@ src/pdantler/printf.c:510:   const double z = expval * 2.302585092994046 - exp2 * 0.6931471805599
 510:src/pdantler/printf.c ****   const double z = expval * 2.302585092994046 - exp2 * 0.6931471805599453;
 1485              		.loc 1 510 16 view .LVU316
 1486 012c 4046     		mov	r0, r8	@, tmp216
 1487 012e 4946     		mov	r1, r9	@,
 1488 0130 FFF7FEFF 		bl	__aeabi_dsub		@
 1489              	.LVL126:
 1490 0134 0246     		mov	r2, r0	@ tmp297,
 1491 0136 0B46     		mov	r3, r1	@,
 1492 0138 43EC182B 		vmov	d8, r2, r3	@ tmp219, tmp297
 1493              	.LVL127:
 511:src/pdantler/printf.c ****   const double z2 = z * z;
 1494              		.loc 1 511 3 is_stmt 1 view .LVU317
 1495              	@ src/pdantler/printf.c:511:   const double z2 = z * z;
 511:src/pdantler/printf.c ****   const double z2 = z * z;
 1496              		.loc 1 511 16 is_stmt 0 view .LVU318
 1497 013c FFF7FEFF 		bl	__aeabi_dmul		@
 1498              	.LVL128:
 511:src/pdantler/printf.c ****   const double z2 = z * z;
 1499              		.loc 1 511 16 view .LVU319
 1500 0140 8046     		mov	r8, r0	@ tmp220, tmp298
 1501 0142 8946     		mov	r9, r1	@,
 1502              	.LVL129:
 1503              		.loc 1 512 3 is_stmt 1 view .LVU320
 513:src/pdantler/printf.c ****   // compute exp(z) using continued fractions, see
 514:src/pdantler/printf.c ****   // https://en.wikipedia.org/wiki/Exponential_function#Continued_fractions_for_ex
 515:src/pdantler/printf.c ****   conv.F *= 1 + 2 * z / (2 - z + (z2 / (6 + (z2 / (10 + z2 / 14)))));
 1504              		.loc 1 515 3 view .LVU321
 1505              	@ src/pdantler/printf.c:515:   conv.F *= 1 + 2 * z / (2 - z + (z2 / (6 + (z2 / (10 + z2 / 14)))));
 1506              		.loc 1 515 19 is_stmt 0 view .LVU322
 1507 0144 53EC182B 		vmov	r2, r3, d8	@, tmp219
 1508 0148 51EC180B 		vmov	r0, r1, d8	@, tmp219
 1509 014c FFF7FEFF 		bl	__aeabi_dadd		@
 1510              	.LVL130:
 1511              	@ src/pdantler/printf.c:515:   conv.F *= 1 + 2 * z / (2 - z + (z2 / (6 + (z2 / (10 + z2 / 14)))));
 1512              		.loc 1 515 60 view .LVU323
 1513 0150 0022     		movs	r2, #0	@,
 1514 0152 684B     		ldr	r3, .L224+76	@,
 1515              	@ src/pdantler/printf.c:515:   conv.F *= 1 + 2 * z / (2 - z + (z2 / (6 + (z2 / (10 + z2 / 14)))));
 1516              		.loc 1 515 19 view .LVU324
 1517 0154 41EC190B 		vmov	d9, r0, r1	@ tmp221, tmp299
 1518              	@ src/pdantler/printf.c:515:   conv.F *= 1 + 2 * z / (2 - z + (z2 / (6 + (z2 / (10 + z2 / 14)))));
 1519              		.loc 1 515 60 view .LVU325
 1520 0158 4046     		mov	r0, r8	@, tmp220
 1521 015a 4946     		mov	r1, r9	@,
 1522 015c FFF7FEFF 		bl	__aeabi_ddiv		@
 1523              	.LVL131:
 1524              	@ src/pdantler/printf.c:515:   conv.F *= 1 + 2 * z / (2 - z + (z2 / (6 + (z2 / (10 + z2 / 14)))));
 1525              		.loc 1 515 55 view .LVU326
 1526 0160 0022     		movs	r2, #0	@,
 1527 0162 654B     		ldr	r3, .L224+80	@,
 1528 0164 FFF7FEFF 		bl	__aeabi_dadd		@
 1529              	.LVL132:
 1530 0168 0246     		mov	r2, r0	@ tmp300,
 1531 016a 0B46     		mov	r3, r1	@,
 1532              	@ src/pdantler/printf.c:515:   conv.F *= 1 + 2 * z / (2 - z + (z2 / (6 + (z2 / (10 + z2 / 14)))));
ARM GAS  /tmp/ccFy9xbE.s 			page 40


 1533              		.loc 1 515 49 view .LVU327
 1534 016c 4046     		mov	r0, r8	@, tmp220
 1535 016e 4946     		mov	r1, r9	@,
 1536 0170 FFF7FEFF 		bl	__aeabi_ddiv		@
 1537              	.LVL133:
 1538              	@ src/pdantler/printf.c:515:   conv.F *= 1 + 2 * z / (2 - z + (z2 / (6 + (z2 / (10 + z2 / 14)))));
 1539              		.loc 1 515 43 view .LVU328
 1540 0174 0022     		movs	r2, #0	@,
 1541 0176 614B     		ldr	r3, .L224+84	@,
 1542 0178 FFF7FEFF 		bl	__aeabi_dadd		@
 1543              	.LVL134:
 1544 017c 0246     		mov	r2, r0	@ tmp301,
 1545 017e 0B46     		mov	r3, r1	@,
 1546              	@ src/pdantler/printf.c:515:   conv.F *= 1 + 2 * z / (2 - z + (z2 / (6 + (z2 / (10 + z2 / 14)))));
 1547              		.loc 1 515 38 view .LVU329
 1548 0180 4046     		mov	r0, r8	@, tmp220
 1549 0182 4946     		mov	r1, r9	@,
 1550 0184 FFF7FEFF 		bl	__aeabi_ddiv		@
 1551              	.LVL135:
 1552 0188 8046     		mov	r8, r0	@ tmp226, tmp302
 1553              	.LVL136:
 1554              		.loc 1 515 38 view .LVU330
 1555 018a 8946     		mov	r9, r1	@,
 1556              	@ src/pdantler/printf.c:515:   conv.F *= 1 + 2 * z / (2 - z + (z2 / (6 + (z2 / (10 + z2 / 14)))));
 1557              		.loc 1 515 28 view .LVU331
 1558 018c 0020     		movs	r0, #0	@,
 1559 018e 4FF08041 		mov	r1, #1073741824	@,
 1560 0192 53EC182B 		vmov	r2, r3, d8	@, tmp219
 1561 0196 FFF7FEFF 		bl	__aeabi_dsub		@
 1562              	.LVL137:
 1563 019a 0246     		mov	r2, r0	@ tmp303,
 1564 019c 0B46     		mov	r3, r1	@,
 1565              	@ src/pdantler/printf.c:515:   conv.F *= 1 + 2 * z / (2 - z + (z2 / (6 + (z2 / (10 + z2 / 14)))));
 1566              		.loc 1 515 32 view .LVU332
 1567 019e 4046     		mov	r0, r8	@, tmp226
 1568 01a0 4946     		mov	r1, r9	@,
 1569 01a2 FFF7FEFF 		bl	__aeabi_dadd		@
 1570              	.LVL138:
 1571 01a6 0246     		mov	r2, r0	@ tmp304,
 1572 01a8 0B46     		mov	r3, r1	@,
 1573              	@ src/pdantler/printf.c:515:   conv.F *= 1 + 2 * z / (2 - z + (z2 / (6 + (z2 / (10 + z2 / 14)))));
 1574              		.loc 1 515 23 view .LVU333
 1575 01aa 51EC190B 		vmov	r0, r1, d9	@, tmp221
 1576 01ae FFF7FEFF 		bl	__aeabi_ddiv		@
 1577              	.LVL139:
 1578              	@ src/pdantler/printf.c:515:   conv.F *= 1 + 2 * z / (2 - z + (z2 / (6 + (z2 / (10 + z2 / 14)))));
 1579              		.loc 1 515 15 view .LVU334
 1580 01b2 0022     		movs	r2, #0	@,
 1581 01b4 524B     		ldr	r3, .L224+88	@,
 1582 01b6 FFF7FEFF 		bl	__aeabi_dadd		@
 1583              	.LVL140:
 1584              	@ src/pdantler/printf.c:512:   conv.U = (uint64_t)(exp2 + 1023) << 52U;
 512:src/pdantler/printf.c ****   // compute exp(z) using continued fractions, see
 1585              		.loc 1 512 36 view .LVU335
 1586 01ba 0022     		movs	r2, #0	@ tmp234,
 1587 01bc 3305     		lsls	r3, r6, #20	@, tmp231,
 1588              	@ src/pdantler/printf.c:515:   conv.F *= 1 + 2 * z / (2 - z + (z2 / (6 + (z2 / (10 + z2 / 14)))));
ARM GAS  /tmp/ccFy9xbE.s 			page 41


 1589              		.loc 1 515 10 view .LVU336
 1590 01be FFF7FEFF 		bl	__aeabi_dmul		@
 1591              	.LVL141:
 1592 01c2 8046     		mov	r8, r0	@ tmp305,
 1593 01c4 8946     		mov	r9, r1	@,
 1594              	.LVL142:
 516:src/pdantler/printf.c ****   // correct for rounding errors
 517:src/pdantler/printf.c ****   if (value < conv.F) {
 1595              		.loc 1 517 3 is_stmt 1 view .LVU337
 1596              	@ src/pdantler/printf.c:517:   if (value < conv.F) {
 1597              		.loc 1 517 6 is_stmt 0 view .LVU338
 1598 01c6 DDE90823 		ldrd	r2, [sp, #32]	@,,
 1599 01ca FFF7FEFF 		bl	__aeabi_dcmpgt		@
 1600              	.LVL143:
 1601 01ce 0028     		cmp	r0, #0	@ tmp306
 1602 01d0 5ED1     		bne	.L166	@
 1603              	@ src/pdantler/printf.c:515:   conv.F *= 1 + 2 * z / (2 - z + (z2 / (6 + (z2 / (10 + z2 / 14)))));
 515:src/pdantler/printf.c ****   // correct for rounding errors
 1604              		.loc 1 515 10 view .LVU339
 1605 01d2 CDE90E89 		strd	r8, [sp, #56]	@ tmp237,,
 1606              	.LVL144:
 1607              	.L167:
 518:src/pdantler/printf.c ****     expval--;
 519:src/pdantler/printf.c ****     conv.F /= 10;
 520:src/pdantler/printf.c ****   }
 521:src/pdantler/printf.c **** 
 522:src/pdantler/printf.c ****   // the exponent format is "%+03d" and largest value is "307", so set aside 4-5
 523:src/pdantler/printf.c ****   // characters
 524:src/pdantler/printf.c ****   unsigned int minwidth = ((expval < 100) && (expval > -100)) ? 4U : 5U;
 1608              		.loc 1 524 3 is_stmt 1 view .LVU340
 1609              	@ src/pdantler/printf.c:524:   unsigned int minwidth = ((expval < 100) && (expval > -100)) ? 4U : 5
 1610              		.loc 1 524 43 is_stmt 0 view .LVU341
 1611 01d6 0D9E     		ldr	r6, [sp, #52]	@ expval, %sfp
 1612              	.LVL145:
 1613              		.loc 1 524 43 view .LVU342
 1614 01d8 06F16303 		add	r3, r6, #99	@ tmp240, expval,
 1615              	@ src/pdantler/printf.c:524:   unsigned int minwidth = ((expval < 100) && (expval > -100)) ? 4U : 5
 1616              		.loc 1 524 68 view .LVU343
 1617 01dc C72B     		cmp	r3, #199	@ tmp240,
 1618 01de 34BF     		ite	cc
 1619 01e0 0423     		movcc	r3, #4	@ minwidth,
 1620 01e2 0523     		movcs	r3, #5	@ minwidth,
 1621 01e4 1093     		str	r3, [sp, #64]	@ minwidth, %sfp
 1622              	.LVL146:
 525:src/pdantler/printf.c **** 
 526:src/pdantler/printf.c ****   // in "%g" mode, "prec" is the number of *significant figures* not decimals
 527:src/pdantler/printf.c ****   if (flags & FLAGS_ADAPT_EXP) {
 1623              		.loc 1 527 3 is_stmt 1 view .LVU344
 1624              	@ src/pdantler/printf.c:527:   if (flags & FLAGS_ADAPT_EXP) {
 1625              		.loc 1 527 6 is_stmt 0 view .LVU345
 1626 01e6 079B     		ldr	r3, [sp, #28]	@ flags, %sfp
 1627              	.LVL147:
 1628              		.loc 1 527 6 view .LVU346
 1629 01e8 1B05     		lsls	r3, r3, #20	@, flags,
 1630 01ea 40F19180 		bpl	.L169		@,
 528:src/pdantler/printf.c ****     // do we want to fall-back to "%f" mode?
 529:src/pdantler/printf.c ****     if ((value >= 1e-4) && (value < 1e6)) {
ARM GAS  /tmp/ccFy9xbE.s 			page 42


 1631              		.loc 1 529 5 is_stmt 1 view .LVU347
 1632              	@ src/pdantler/printf.c:529:     if ((value >= 1e-4) && (value < 1e6)) {
 1633              		.loc 1 529 8 is_stmt 0 view .LVU348
 1634 01ee DDE90889 		ldrd	r8, [sp, #32]	@ value,,
 1635 01f2 39A3     		adr	r3, .L224+48	@,
 1636 01f4 D3E90023 		ldrd	r2, [r3]	@,
 1637 01f8 4046     		mov	r0, r8	@, value
 1638 01fa 4946     		mov	r1, r9	@, value
 1639 01fc FFF7FEFF 		bl	__aeabi_dcmpge		@
 1640              	.LVL148:
 1641 0200 0028     		cmp	r0, #0	@ tmp308
 1642 0202 7FD0     		beq	.L170	@
 1643              	@ src/pdantler/printf.c:529:     if ((value >= 1e-4) && (value < 1e6)) {
 1644              		.loc 1 529 25 discriminator 1 view .LVU349
 1645 0204 4046     		mov	r0, r8	@, value
 1646 0206 4946     		mov	r1, r9	@, value
 1647 0208 35A3     		adr	r3, .L224+56	@,
 1648 020a D3E90023 		ldrd	r2, [r3]	@,
 1649 020e FFF7FEFF 		bl	__aeabi_dcmplt		@
 1650              	.LVL149:
 1651 0212 0028     		cmp	r0, #0	@ tmp309
 1652 0214 76D0     		beq	.L170	@
 530:src/pdantler/printf.c ****       if ((int)prec > expval) {
 1653              		.loc 1 530 7 is_stmt 1 view .LVU350
 1654              	@ src/pdantler/printf.c:530:       if ((int)prec > expval) {
 1655              		.loc 1 530 10 is_stmt 0 view .LVU351
 1656 0216 0A9B     		ldr	r3, [sp, #40]	@ prec, %sfp
 1657 0218 B342     		cmp	r3, r6	@ prec, expval
 1658 021a 40F31F81 		ble	.L187		@,
 531:src/pdantler/printf.c ****         prec = (unsigned)((int)prec - expval - 1);
 1659              		.loc 1 531 9 is_stmt 1 view .LVU352
 1660              	@ src/pdantler/printf.c:531:         prec = (unsigned)((int)prec - expval - 1);
 1661              		.loc 1 531 37 is_stmt 0 view .LVU353
 1662 021e 981B     		subs	r0, r3, r6	@ tmp246, prec, expval
 1663              	@ src/pdantler/printf.c:531:         prec = (unsigned)((int)prec - expval - 1);
 1664              		.loc 1 531 46 view .LVU354
 1665 0220 431E     		subs	r3, r0, #1	@ prec, tmp246,
 1666 0222 0A93     		str	r3, [sp, #40]	@ prec, %sfp
 1667              	.LVL150:
 1668              	.L173:
 532:src/pdantler/printf.c ****       } else {
 533:src/pdantler/printf.c ****         prec = 0;
 534:src/pdantler/printf.c ****       }
 535:src/pdantler/printf.c ****       flags |= FLAGS_PRECISION; // make sure _ftoa respects precision
 1669              		.loc 1 535 7 is_stmt 1 view .LVU355
 1670              	@ src/pdantler/printf.c:535:       flags |= FLAGS_PRECISION; // make sure _ftoa respects precision
 1671              		.loc 1 535 13 is_stmt 0 view .LVU356
 1672 0224 079B     		ldr	r3, [sp, #28]	@ flags, %sfp
 1673 0226 43F48066 		orr	r6, r3, #1024	@ flags, flags,
 1674              	.LVL151:
 536:src/pdantler/printf.c ****       // no characters in exponent
 537:src/pdantler/printf.c ****       minwidth = 0U;
 1675              		.loc 1 537 7 is_stmt 1 view .LVU357
 538:src/pdantler/printf.c ****       expval = 0;
 1676              		.loc 1 538 7 view .LVU358
 539:src/pdantler/printf.c ****     } else {
 540:src/pdantler/printf.c ****       // we use one sigfig for the whole part
ARM GAS  /tmp/ccFy9xbE.s 			page 43


 541:src/pdantler/printf.c ****       if ((prec > 0) && (flags & FLAGS_PRECISION)) {
 542:src/pdantler/printf.c ****         --prec;
 543:src/pdantler/printf.c ****       }
 544:src/pdantler/printf.c ****     }
 545:src/pdantler/printf.c ****   }
 546:src/pdantler/printf.c **** 
 547:src/pdantler/printf.c ****   // will everything fit?
 548:src/pdantler/printf.c ****   unsigned int fwidth = width;
 1677              		.loc 1 548 3 view .LVU359
 549:src/pdantler/printf.c ****   if (width > minwidth) {
 1678              		.loc 1 549 3 view .LVU360
 1679              	@ src/pdantler/printf.c:549:   if (width > minwidth) {
 1680              		.loc 1 549 6 is_stmt 0 view .LVU361
 1681 022a 0B9B     		ldr	r3, [sp, #44]	@ width, %sfp
 1682 022c 002B     		cmp	r3, #0	@ width
 1683 022e 40F00D81 		bne	.L188	@
 1684              	.LVL152:
 550:src/pdantler/printf.c ****     // we didn't fall-back so subtract the characters required for the exponent
 551:src/pdantler/printf.c ****     fwidth -= minwidth;
 552:src/pdantler/printf.c ****   } else {
 553:src/pdantler/printf.c ****     // not enough characters, so go back to default sizing
 554:src/pdantler/printf.c ****     fwidth = 0U;
 555:src/pdantler/printf.c ****   }
 556:src/pdantler/printf.c ****   if ((flags & FLAGS_LEFT) && minwidth) {
 557:src/pdantler/printf.c ****     // if we're padding on the right, DON'T pad the floating part
 558:src/pdantler/printf.c ****     fwidth = 0U;
 559:src/pdantler/printf.c ****   }
 560:src/pdantler/printf.c **** 
 561:src/pdantler/printf.c ****   // rescale the float value
 562:src/pdantler/printf.c ****   if (expval) {
 1685              		.loc 1 562 3 is_stmt 1 view .LVU362
 563:src/pdantler/printf.c ****     value /= conv.F;
 564:src/pdantler/printf.c ****   }
 565:src/pdantler/printf.c **** 
 566:src/pdantler/printf.c ****   // output the floating part
 567:src/pdantler/printf.c ****   const size_t start_idx = idx;
 1686              		.loc 1 567 3 view .LVU363
 568:src/pdantler/printf.c ****   idx = _ftoa(out, buffer, idx, maxlen, negative ? -value : value, prec, fwidth,
 1687              		.loc 1 568 3 view .LVU364
 1688              	@ src/pdantler/printf.c:568:   idx = _ftoa(out, buffer, idx, maxlen, negative ? -value : value, pre
 1689              		.loc 1 568 9 is_stmt 0 view .LVU365
 1690 0232 5046     		mov	r0, r10	@, value
 1691 0234 5946     		mov	r1, fp	@, value
 1692 0236 0022     		movs	r2, #0	@,
 1693 0238 0023     		movs	r3, #0	@,
 1694 023a FFF7FEFF 		bl	__aeabi_dcmplt		@
 1695              	.LVL153:
 1696 023e 0028     		cmp	r0, #0	@ tmp310
 1697 0240 40F0F280 		bne	.L221	@
 1698 0244 0B9B     		ldr	r3, [sp, #44]	@ width, %sfp
 1699 0246 3846     		mov	r0, r7	@, out
 1700 0248 0C9A     		ldr	r2, [sp, #48]	@, %sfp
 1701 024a 2393     		str	r3, [sp, #140]	@ width,
 1702              	.LVL154:
 1703              		.loc 1 568 9 view .LVU366
 1704 024c 0A9B     		ldr	r3, [sp, #40]	@ prec, %sfp
 1705 024e 2293     		str	r3, [sp, #136]	@ prec,
ARM GAS  /tmp/ccFy9xbE.s 			page 44


 1706 0250 079B     		ldr	r3, [sp, #28]	@ flags, %sfp
 1707 0252 23F40061 		bic	r1, r3, #2048	@ tmp270, flags,
 1708 0256 2B46     		mov	r3, r5	@, maxlen
 1709 0258 9DED087B 		vldr.64	d7, [sp, #32]	@ value, %sfp
 1710 025c 41F48061 		orr	r1, r1, #1024	@ tmp271, tmp270,
 1711 0260 8DED207B 		vstr.64	d7, [sp, #128]	@ value,
 1712 0264 2491     		str	r1, [sp, #144]	@ tmp271,
 1713 0266 2146     		mov	r1, r4	@, buffer
 1714 0268 0BE0     		b	.L219		@
 1715              	.LVL155:
 1716              	.L160:
 479:src/pdantler/printf.c ****   }
 1717              		.loc 1 479 5 is_stmt 1 view .LVU367
 1718              	@ src/pdantler/printf.c:479:     return _ftoa(out, buffer, idx, maxlen, value, prec, width, flags);
 479:src/pdantler/printf.c ****   }
 1719              		.loc 1 479 12 is_stmt 0 view .LVU368
 1720 026a 079B     		ldr	r3, [sp, #28]	@ flags, %sfp
 1721 026c 2146     		mov	r1, r4	@, buffer
 1722 026e 0C9A     		ldr	r2, [sp, #48]	@, %sfp
 1723 0270 3846     		mov	r0, r7	@, out
 1724 0272 2493     		str	r3, [sp, #144]	@ flags,
 1725              	.LVL156:
 479:src/pdantler/printf.c ****   }
 1726              		.loc 1 479 12 view .LVU369
 1727 0274 0B9B     		ldr	r3, [sp, #44]	@ width, %sfp
 1728 0276 0A9C     		ldr	r4, [sp, #40]	@ prec, %sfp
 1729              	.LVL157:
 479:src/pdantler/printf.c ****   }
 1730              		.loc 1 479 12 view .LVU370
 1731 0278 2393     		str	r3, [sp, #140]	@ width,
 1732              	.LVL158:
 479:src/pdantler/printf.c ****   }
 1733              		.loc 1 479 12 view .LVU371
 1734 027a 2B46     		mov	r3, r5	@, maxlen
 1735 027c 2294     		str	r4, [sp, #136]	@ prec,
 1736              	.LVL159:
 479:src/pdantler/printf.c ****   }
 1737              		.loc 1 479 12 view .LVU372
 1738 027e CDE920AB 		strd	r10, [sp, #128]	@ value,,
 1739              	.LVL160:
 1740              	.L219:
 1741              	@ src/pdantler/printf.c:586: }
 569:src/pdantler/printf.c ****               flags & ~FLAGS_ADAPT_EXP);
 570:src/pdantler/printf.c **** 
 571:src/pdantler/printf.c ****   // output the exponent part
 572:src/pdantler/printf.c ****   if (minwidth) {
 573:src/pdantler/printf.c ****     // output the exponential symbol
 574:src/pdantler/printf.c ****     out((flags & FLAGS_UPPERCASE) ? 'E' : 'e', buffer, idx++, maxlen);
 575:src/pdantler/printf.c ****     // output the exponent value
 576:src/pdantler/printf.c ****     idx =
 577:src/pdantler/printf.c ****         _ntoa_long(out, buffer, idx, maxlen, (expval < 0) ? -expval : expval,
 578:src/pdantler/printf.c ****                    expval < 0, 10, 0, minwidth - 1, FLAGS_ZEROPAD | FLAGS_PLUS);
 579:src/pdantler/printf.c ****     // might need to right-pad spaces
 580:src/pdantler/printf.c ****     if (flags & FLAGS_LEFT) {
 581:src/pdantler/printf.c ****       while (idx - start_idx < width)
 582:src/pdantler/printf.c ****         out(' ', buffer, idx++, maxlen);
 583:src/pdantler/printf.c ****     }
ARM GAS  /tmp/ccFy9xbE.s 			page 45


 584:src/pdantler/printf.c ****   }
 585:src/pdantler/printf.c ****   return idx;
 586:src/pdantler/printf.c **** }
 1742              		.loc 1 586 1 view .LVU373
 1743 0282 13B0     		add	sp, sp, #76	@,,
 1744              	.LCFI21:
 1745              		.cfi_remember_state
 1746              		.cfi_def_cfa_offset 52
 1747              		@ sp needed	@
 1748 0284 BDEC048B 		vldm	sp!, {d8-d9}	@,
 1749              	.LCFI22:
 1750              		.cfi_restore 82
 1751              		.cfi_restore 83
 1752              		.cfi_restore 80
 1753              		.cfi_restore 81
 1754              		.cfi_def_cfa_offset 36
 1755 0288 BDE8F04F 		pop	{r4, r5, r6, r7, r8, r9, r10, fp, lr}	@
 1756              	.LCFI23:
 1757              		.cfi_restore 14
 1758              		.cfi_restore 11
 1759              		.cfi_restore 10
 1760              		.cfi_restore 9
 1761              		.cfi_restore 8
 1762              		.cfi_restore 7
 1763              		.cfi_restore 6
 1764              		.cfi_restore 5
 1765              		.cfi_restore 4
 1766              		.cfi_def_cfa_offset 0
 1767              	.LVL161:
 1768              	@ src/pdantler/printf.c:568:   idx = _ftoa(out, buffer, idx, maxlen, negative ? -value : value, pre
 568:src/pdantler/printf.c ****               flags & ~FLAGS_ADAPT_EXP);
 1769              		.loc 1 568 9 view .LVU374
 1770 028c FFF7FEBF 		b	_ftoa		@
 1771              	.LVL162:
 1772              	.L166:
 1773              	.LCFI24:
 1774              		.cfi_restore_state
 518:src/pdantler/printf.c ****     conv.F /= 10;
 1775              		.loc 1 518 5 is_stmt 1 view .LVU375
 1776              	@ src/pdantler/printf.c:518:     expval--;
 518:src/pdantler/printf.c ****     conv.F /= 10;
 1777              		.loc 1 518 11 is_stmt 0 view .LVU376
 1778 0290 0D9B     		ldr	r3, [sp, #52]	@ expval, %sfp
 1779              	@ src/pdantler/printf.c:519:     conv.F /= 10;
 519:src/pdantler/printf.c ****   }
 1780              		.loc 1 519 12 view .LVU377
 1781 0292 4046     		mov	r0, r8	@, tmp237
 1782 0294 4946     		mov	r1, r9	@,
 1783 0296 0022     		movs	r2, #0	@,
 1784              	@ src/pdantler/printf.c:518:     expval--;
 518:src/pdantler/printf.c ****     conv.F /= 10;
 1785              		.loc 1 518 11 view .LVU378
 1786 0298 013B     		subs	r3, r3, #1	@ expval, expval,
 1787 029a 0D93     		str	r3, [sp, #52]	@ expval, %sfp
 1788              	.LVL163:
 519:src/pdantler/printf.c ****   }
 1789              		.loc 1 519 5 is_stmt 1 view .LVU379
ARM GAS  /tmp/ccFy9xbE.s 			page 46


 1790              	@ src/pdantler/printf.c:519:     conv.F /= 10;
 519:src/pdantler/printf.c ****   }
 1791              		.loc 1 519 12 is_stmt 0 view .LVU380
 1792 029c 164B     		ldr	r3, .L224+80	@,
 1793              	.LVL164:
 519:src/pdantler/printf.c ****   }
 1794              		.loc 1 519 12 view .LVU381
 1795 029e FFF7FEFF 		bl	__aeabi_ddiv		@
 1796              	.LVL165:
 1797 02a2 CDE90E01 		strd	r0, [sp, #56]	@ tmp307,,
 1798              	.LVL166:
 519:src/pdantler/printf.c ****   }
 1799              		.loc 1 519 12 view .LVU382
 1800 02a6 96E7     		b	.L167		@
 1801              	.L225:
 1802              		.align	3
 1803              	.L224:
 1804 02a8 FB799F50 		.word	1352628731
 1805 02ac 1344D33F 		.word	1070810131
 1806 02b0 B3C8608B 		.word	-1956591437
 1807 02b4 288AC63F 		.word	1069976104
 1808 02b8 61436F63 		.word	1668236129
 1809 02bc A787D23F 		.word	1070761895
 1810 02c0 71A37909 		.word	158966641
 1811 02c4 4F930A40 		.word	1074434895
 1812 02c8 1655B5BB 		.word	-1145744106
 1813 02cc B16B0240 		.word	1073900465
 1814 02d0 EF39FAFE 		.word	-17155601
 1815 02d4 422EE63F 		.word	1072049730
 1816 02d8 2D431CEB 		.word	-350469331
 1817 02dc E2361A3F 		.word	1058682594
 1818 02e0 00000000 		.word	0
 1819 02e4 80842E41 		.word	1093567616
 1820 02e8 FFFFEF7F 		.word	2146435071
 1821 02ec 0000F83F 		.word	1073217536
 1822 02f0 0000E03F 		.word	1071644672
 1823 02f4 00002C40 		.word	1076625408
 1824 02f8 00002440 		.word	1076101120
 1825 02fc 00001840 		.word	1075314688
 1826 0300 0000F03F 		.word	1072693248
 1827              	.LVL167:
 1828              	.L170:
 541:src/pdantler/printf.c ****         --prec;
 1829              		.loc 1 541 7 is_stmt 1 view .LVU383
 1830              	@ src/pdantler/printf.c:541:       if ((prec > 0) && (flags & FLAGS_PRECISION)) {
 541:src/pdantler/printf.c ****         --prec;
 1831              		.loc 1 541 10 is_stmt 0 view .LVU384
 1832 0304 0A9B     		ldr	r3, [sp, #40]	@ prec, %sfp
 1833 0306 1BB1     		cbz	r3, .L169	@ prec,
 1834              	@ src/pdantler/printf.c:541:       if ((prec > 0) && (flags & FLAGS_PRECISION)) {
 541:src/pdantler/printf.c ****         --prec;
 1835              		.loc 1 541 22 discriminator 1 view .LVU385
 1836 0308 119A     		ldr	r2, [sp, #68]	@ _1, %sfp
 1837 030a 002A     		cmp	r2, #0	@ _1
 1838 030c 40F09B80 		bne	.L222	@
 1839              	.L169:
 1840              	.LVL168:
ARM GAS  /tmp/ccFy9xbE.s 			page 47


 548:src/pdantler/printf.c ****   if (width > minwidth) {
 1841              		.loc 1 548 3 is_stmt 1 view .LVU386
 549:src/pdantler/printf.c ****     // we didn't fall-back so subtract the characters required for the exponent
 1842              		.loc 1 549 3 view .LVU387
 1843              	@ src/pdantler/printf.c:549:   if (width > minwidth) {
 549:src/pdantler/printf.c ****     // we didn't fall-back so subtract the characters required for the exponent
 1844              		.loc 1 549 6 is_stmt 0 view .LVU388
 1845 0310 109B     		ldr	r3, [sp, #64]	@ minwidth, %sfp
 1846 0312 0B9A     		ldr	r2, [sp, #44]	@ width, %sfp
 1847 0314 9342     		cmp	r3, r2	@ minwidth, width
 1848 0316 71D3     		bcc	.L177		@,
 1849              	@ src/pdantler/printf.c:556:   if ((flags & FLAGS_LEFT) && minwidth) {
 556:src/pdantler/printf.c ****     // if we're padding on the right, DON'T pad the floating part
 1850              		.loc 1 556 6 view .LVU389
 1851 0318 079B     		ldr	r3, [sp, #28]	@ flags, %sfp
 1852              	@ src/pdantler/printf.c:554:     fwidth = 0U;
 554:src/pdantler/printf.c ****   }
 1853              		.loc 1 554 12 view .LVU390
 1854 031a 0026     		movs	r6, #0	@ fwidth,
 1855              	.LVL169:
 556:src/pdantler/printf.c ****     // if we're padding on the right, DON'T pad the floating part
 1856              		.loc 1 556 3 is_stmt 1 view .LVU391
 1857              	@ src/pdantler/printf.c:556:   if ((flags & FLAGS_LEFT) && minwidth) {
 556:src/pdantler/printf.c ****     // if we're padding on the right, DON'T pad the floating part
 1858              		.loc 1 556 6 is_stmt 0 view .LVU392
 1859 031c C3F34008 		ubfx	r8, r3, #1, #1	@ _106, flags,,
 1860              	@ src/pdantler/printf.c:562:   if (expval) {
 562:src/pdantler/printf.c ****     value /= conv.F;
 1861              		.loc 1 562 6 view .LVU393
 1862 0320 0D9B     		ldr	r3, [sp, #52]	@ expval, %sfp
 1863              	@ src/pdantler/printf.c:558:     fwidth = 0U;
 558:src/pdantler/printf.c ****   }
 1864              		.loc 1 558 12 view .LVU394
 1865 0322 B8F1000F 		cmp	r8, #0	@ _106,
 1866 0326 18BF     		it	ne
 1867 0328 0026     		movne	r6, #0	@ fwidth,
 1868              	.LVL170:
 562:src/pdantler/printf.c ****     value /= conv.F;
 1869              		.loc 1 562 3 is_stmt 1 view .LVU395
 1870              	@ src/pdantler/printf.c:562:   if (expval) {
 562:src/pdantler/printf.c ****     value /= conv.F;
 1871              		.loc 1 562 6 is_stmt 0 view .LVU396
 1872 032a 002B     		cmp	r3, #0	@ expval
 1873 032c 73D0     		beq	.L191	@
 1874              	.L223:
 563:src/pdantler/printf.c ****   }
 1875              		.loc 1 563 5 is_stmt 1 view .LVU397
 1876              	@ src/pdantler/printf.c:563:     value /= conv.F;
 563:src/pdantler/printf.c ****   }
 1877              		.loc 1 563 11 is_stmt 0 view .LVU398
 1878 032e 4FF00109 		mov	r9, #1	@ _172,
 1879 0332 DDE90801 		ldrd	r0, [sp, #32]	@,,
 1880 0336 DDE90E23 		ldrd	r2, [sp, #56]	@,,
 1881 033a FFF7FEFF 		bl	__aeabi_ddiv		@
 1882              	.LVL171:
 1883 033e CDE90801 		strd	r0, [sp, #32]	@ tmp311,,
 1884              	.LVL172:
ARM GAS  /tmp/ccFy9xbE.s 			page 48


 1885              	.L174:
 567:src/pdantler/printf.c ****   idx = _ftoa(out, buffer, idx, maxlen, negative ? -value : value, prec, fwidth,
 1886              		.loc 1 567 3 is_stmt 1 view .LVU399
 568:src/pdantler/printf.c ****               flags & ~FLAGS_ADAPT_EXP);
 1887              		.loc 1 568 3 view .LVU400
 1888              	@ src/pdantler/printf.c:568:   idx = _ftoa(out, buffer, idx, maxlen, negative ? -value : value, pre
 568:src/pdantler/printf.c ****               flags & ~FLAGS_ADAPT_EXP);
 1889              		.loc 1 568 9 is_stmt 0 view .LVU401
 1890 0342 5046     		mov	r0, r10	@, value
 1891 0344 5946     		mov	r1, fp	@, value
 1892 0346 0022     		movs	r2, #0	@,
 1893 0348 0023     		movs	r3, #0	@,
 1894 034a FFF7FEFF 		bl	__aeabi_dcmplt		@
 1895              	.LVL173:
 1896 034e 0028     		cmp	r0, #0	@ tmp312
 1897 0350 71D1     		bne	.L175	@
 1898              	.LVL174:
 1899              	.L180:
 1900              	@ src/pdantler/printf.c:568:   idx = _ftoa(out, buffer, idx, maxlen, negative ? -value : value, pre
 568:src/pdantler/printf.c ****               flags & ~FLAGS_ADAPT_EXP);
 1901              		.loc 1 568 9 discriminator 4 view .LVU402
 1902 0352 0A9B     		ldr	r3, [sp, #40]	@ prec, %sfp
 1903 0354 2146     		mov	r1, r4	@, buffer
 1904 0356 DDF830A0 		ldr	r10, [sp, #48]	@ idx, %sfp
 1905              	.LVL175:
 568:src/pdantler/printf.c ****               flags & ~FLAGS_ADAPT_EXP);
 1906              		.loc 1 568 9 discriminator 4 view .LVU403
 1907 035a 3846     		mov	r0, r7	@, out
 1908 035c 0293     		str	r3, [sp, #8]	@ prec,
 1909 035e 079B     		ldr	r3, [sp, #28]	@ flags, %sfp
 1910 0360 5246     		mov	r2, r10	@, idx
 1911 0362 0396     		str	r6, [sp, #12]	@ fwidth,
 1912 0364 23F40063 		bic	r3, r3, #2048	@ tmp259, flags,
 1913 0368 9DED087B 		vldr.64	d7, [sp, #32]	@ value, %sfp
 1914 036c 0493     		str	r3, [sp, #16]	@ tmp259,
 1915 036e 2B46     		mov	r3, r5	@, maxlen
 1916 0370 8DED007B 		vstr.64	d7, [sp]	@ value,
 1917 0374 FFF7FEFF 		bl	_ftoa		@
 1918              	.LVL176:
 1919 0378 0646     		mov	r6, r0	@ <retval>, tmp313
 1920              	.LVL177:
 572:src/pdantler/printf.c ****     // output the exponential symbol
 1921              		.loc 1 572 3 is_stmt 1 discriminator 4 view .LVU404
 1922              	@ src/pdantler/printf.c:572:   if (minwidth) {
 572:src/pdantler/printf.c ****     // output the exponential symbol
 1923              		.loc 1 572 6 is_stmt 0 discriminator 4 view .LVU405
 1924 037a B9F1000F 		cmp	r9, #0	@ _172
 1925 037e 37D0     		beq	.L159	@
 574:src/pdantler/printf.c ****     // output the exponent value
 1926              		.loc 1 574 5 is_stmt 1 view .LVU406
 1927 0380 079B     		ldr	r3, [sp, #28]	@ flags, %sfp
 1928 0382 0246     		mov	r2, r0	@, <retval>
 1929 0384 2146     		mov	r1, r4	@, buffer
 1930 0386 0136     		adds	r6, r6, #1	@ idx, <retval>,
 1931              	.LVL178:
 574:src/pdantler/printf.c ****     // output the exponent value
 1932              		.loc 1 574 5 is_stmt 0 view .LVU407
ARM GAS  /tmp/ccFy9xbE.s 			page 49


 1933 0388 13F0200F 		tst	r3, #32	@ flags,
 1934 038c 2B46     		mov	r3, r5	@, maxlen
 1935 038e 14BF     		ite	ne
 1936 0390 4520     		movne	r0, #69	@,
 1937 0392 6520     		moveq	r0, #101	@,
 1938 0394 B847     		blx	r7		@ out
 1939              	.LVL179:
 576:src/pdantler/printf.c ****         _ntoa_long(out, buffer, idx, maxlen, (expval < 0) ? -expval : expval,
 1940              		.loc 1 576 5 is_stmt 1 view .LVU408
 1941              	@ src/pdantler/printf.c:577:         _ntoa_long(out, buffer, idx, maxlen, (expval < 0) ? -expval : 
 577:src/pdantler/printf.c ****                    expval < 0, 10, 0, minwidth - 1, FLAGS_ZEROPAD | FLAGS_PLUS);
 1942              		.loc 1 577 9 is_stmt 0 view .LVU409
 1943 0396 109B     		ldr	r3, [sp, #64]	@ minwidth, %sfp
 1944 0398 0D99     		ldr	r1, [sp, #52]	@ expval, %sfp
 1945 039a 0020     		movs	r0, #0	@,
 1946 039c 013B     		subs	r3, r3, #1	@ tmp262, minwidth,
 1947 039e 3246     		mov	r2, r6	@, idx
 1948              	@ src/pdantler/printf.c:577:         _ntoa_long(out, buffer, idx, maxlen, (expval < 0) ? -expval : 
 577:src/pdantler/printf.c ****                    expval < 0, 10, 0, minwidth - 1, FLAGS_ZEROPAD | FLAGS_PLUS);
 1949              		.loc 1 577 69 view .LVU410
 1950 03a0 0029     		cmp	r1, #0	@ expval,
 1951              	@ src/pdantler/printf.c:577:         _ntoa_long(out, buffer, idx, maxlen, (expval < 0) ? -expval : 
 577:src/pdantler/printf.c ****                    expval < 0, 10, 0, minwidth - 1, FLAGS_ZEROPAD | FLAGS_PLUS);
 1952              		.loc 1 577 9 view .LVU411
 1953 03a2 0493     		str	r3, [sp, #16]	@ tmp262,
 1954 03a4 4FF00503 		mov	r3, #5	@ tmp261,
 1955 03a8 0593     		str	r3, [sp, #20]	@ tmp261,
 1956 03aa 4FF00A03 		mov	r3, #10	@ tmp264,
 1957 03ae CDE90230 		strd	r3, r0, [sp, #8]	@ tmp264,,,
 1958 03b2 4FEAD173 		lsr	r3, r1, #31	@ tmp267, expval,
 1959              	@ src/pdantler/printf.c:577:         _ntoa_long(out, buffer, idx, maxlen, (expval < 0) ? -expval : 
 577:src/pdantler/printf.c ****                    expval < 0, 10, 0, minwidth - 1, FLAGS_ZEROPAD | FLAGS_PLUS);
 1960              		.loc 1 577 69 view .LVU412
 1961 03b6 B8BF     		it	lt
 1962 03b8 4942     		rsblt	r1, r1, #0	@ expval, expval,
 1963              	@ src/pdantler/printf.c:577:         _ntoa_long(out, buffer, idx, maxlen, (expval < 0) ? -expval : 
 577:src/pdantler/printf.c ****                    expval < 0, 10, 0, minwidth - 1, FLAGS_ZEROPAD | FLAGS_PLUS);
 1964              		.loc 1 577 9 view .LVU413
 1965 03ba 3846     		mov	r0, r7	@, out
 1966 03bc 0193     		str	r3, [sp, #4]	@ tmp267,
 1967 03be 2B46     		mov	r3, r5	@, maxlen
 1968 03c0 0091     		str	r1, [sp]	@ tmp268,
 1969 03c2 2146     		mov	r1, r4	@, buffer
 1970 03c4 FFF7FEFF 		bl	_ntoa_long		@
 1971              	.LVL180:
 1972 03c8 0646     		mov	r6, r0	@ <retval>, tmp314
 1973              	.LVL181:
 580:src/pdantler/printf.c ****       while (idx - start_idx < width)
 1974              		.loc 1 580 5 is_stmt 1 view .LVU414
 1975              	@ src/pdantler/printf.c:580:     if (flags & FLAGS_LEFT) {
 580:src/pdantler/printf.c ****       while (idx - start_idx < width)
 1976              		.loc 1 580 8 is_stmt 0 view .LVU415
 1977 03ca B8F1000F 		cmp	r8, #0	@ _106
 1978 03ce 0FD0     		beq	.L159	@
 581:src/pdantler/printf.c ****         out(' ', buffer, idx++, maxlen);
 1979              		.loc 1 581 13 is_stmt 1 view .LVU416
 1980              	@ src/pdantler/printf.c:581:       while (idx - start_idx < width)
ARM GAS  /tmp/ccFy9xbE.s 			page 50


 581:src/pdantler/printf.c ****         out(' ', buffer, idx++, maxlen);
 1981              		.loc 1 581 18 is_stmt 0 view .LVU417
 1982 03d0 A0EB0A08 		sub	r8, r0, r10	@ ivtmp.207, <retval>, idx
 1983              	@ src/pdantler/printf.c:581:       while (idx - start_idx < width)
 581:src/pdantler/printf.c ****         out(' ', buffer, idx++, maxlen);
 1984              		.loc 1 581 13 view .LVU418
 1985 03d4 0B9B     		ldr	r3, [sp, #44]	@ width, %sfp
 1986 03d6 4345     		cmp	r3, r8	@ width, ivtmp.207
 1987 03d8 0AD9     		bls	.L159		@,
 1988 03da 9946     		mov	r9, r3	@ width, width
 1989              	.LVL182:
 1990              	.L184:
 582:src/pdantler/printf.c ****     }
 1991              		.loc 1 582 9 is_stmt 1 view .LVU419
 1992              	@ src/pdantler/printf.c:581:       while (idx - start_idx < width)
 581:src/pdantler/printf.c ****         out(' ', buffer, idx++, maxlen);
 1993              		.loc 1 581 13 is_stmt 0 view .LVU420
 1994 03dc 08F10108 		add	r8, r8, #1	@ ivtmp.207, ivtmp.207,
 1995 03e0 3246     		mov	r2, r6	@ idx, <retval>
 1996              	@ src/pdantler/printf.c:582:         out(' ', buffer, idx++, maxlen);
 582:src/pdantler/printf.c ****     }
 1997              		.loc 1 582 9 view .LVU421
 1998 03e2 2B46     		mov	r3, r5	@, maxlen
 1999 03e4 2146     		mov	r1, r4	@, buffer
 2000 03e6 2020     		movs	r0, #32	@,
 2001 03e8 0136     		adds	r6, r6, #1	@ <retval>, <retval>,
 2002              	.LVL183:
 582:src/pdantler/printf.c ****     }
 2003              		.loc 1 582 9 view .LVU422
 2004 03ea B847     		blx	r7		@ out
 2005              	.LVL184:
 581:src/pdantler/printf.c ****         out(' ', buffer, idx++, maxlen);
 2006              		.loc 1 581 13 is_stmt 1 view .LVU423
 2007 03ec C145     		cmp	r9, r8	@ width, ivtmp.207
 2008 03ee F5D8     		bhi	.L184		@,
 2009              	.L159:
 2010              	@ src/pdantler/printf.c:586: }
 2011              		.loc 1 586 1 is_stmt 0 view .LVU424
 2012 03f0 3046     		mov	r0, r6	@, <retval>
 2013 03f2 13B0     		add	sp, sp, #76	@,,
 2014              	.LCFI25:
 2015              		.cfi_remember_state
 2016              		.cfi_def_cfa_offset 52
 2017              		@ sp needed	@
 2018 03f4 BDEC048B 		vldm	sp!, {d8-d9}	@,
 2019              	.LCFI26:
 2020              		.cfi_restore 82
 2021              		.cfi_restore 83
 2022              		.cfi_restore 80
 2023              		.cfi_restore 81
 2024              		.cfi_def_cfa_offset 36
 2025              	.LVL185:
 2026              		.loc 1 586 1 view .LVU425
 2027 03f8 BDE8F08F 		pop	{r4, r5, r6, r7, r8, r9, r10, fp, pc}	@
 2028              	.LVL186:
 2029              	.L177:
 2030              	.LCFI27:
ARM GAS  /tmp/ccFy9xbE.s 			page 51


 2031              		.cfi_restore_state
 2032              	@ src/pdantler/printf.c:551:     fwidth -= minwidth;
 551:src/pdantler/printf.c ****   } else {
 2033              		.loc 1 551 12 view .LVU426
 2034 03fc 0B9B     		ldr	r3, [sp, #44]	@ width, %sfp
 2035              	.LVL187:
 551:src/pdantler/printf.c ****   } else {
 2036              		.loc 1 551 12 view .LVU427
 2037 03fe 109A     		ldr	r2, [sp, #64]	@ minwidth, %sfp
 2038              	.LVL188:
 551:src/pdantler/printf.c ****   } else {
 2039              		.loc 1 551 12 view .LVU428
 2040 0400 9E1A     		subs	r6, r3, r2	@ fwidth, width, minwidth
 2041              	@ src/pdantler/printf.c:556:   if ((flags & FLAGS_LEFT) && minwidth) {
 556:src/pdantler/printf.c ****     // if we're padding on the right, DON'T pad the floating part
 2042              		.loc 1 556 6 view .LVU429
 2043 0402 079B     		ldr	r3, [sp, #28]	@ flags, %sfp
 2044 0404 C3F34008 		ubfx	r8, r3, #1, #1	@ _106, flags,,
 551:src/pdantler/printf.c ****   } else {
 2045              		.loc 1 551 5 is_stmt 1 view .LVU430
 2046              	.LVL189:
 556:src/pdantler/printf.c ****     // if we're padding on the right, DON'T pad the floating part
 2047              		.loc 1 556 3 view .LVU431
 2048              	@ src/pdantler/printf.c:562:   if (expval) {
 562:src/pdantler/printf.c ****     value /= conv.F;
 2049              		.loc 1 562 6 is_stmt 0 view .LVU432
 2050 0408 0D9B     		ldr	r3, [sp, #52]	@ expval, %sfp
 2051              	@ src/pdantler/printf.c:558:     fwidth = 0U;
 558:src/pdantler/printf.c ****   }
 2052              		.loc 1 558 12 view .LVU433
 2053 040a B8F1000F 		cmp	r8, #0	@ _106,
 2054 040e 18BF     		it	ne
 2055 0410 0026     		movne	r6, #0	@ fwidth,
 2056              	.LVL190:
 562:src/pdantler/printf.c ****     value /= conv.F;
 2057              		.loc 1 562 3 is_stmt 1 view .LVU434
 2058              	@ src/pdantler/printf.c:562:   if (expval) {
 562:src/pdantler/printf.c ****     value /= conv.F;
 2059              		.loc 1 562 6 is_stmt 0 view .LVU435
 2060 0412 002B     		cmp	r3, #0	@ expval
 2061 0414 8BD1     		bne	.L223	@
 2062              	.L191:
 562:src/pdantler/printf.c ****     value /= conv.F;
 2063              		.loc 1 562 6 view .LVU436
 2064 0416 4FF00109 		mov	r9, #1	@ _172,
 2065 041a 92E7     		b	.L174		@
 2066              	.LVL191:
 2067              	.L220:
 485:src/pdantler/printf.c ****   }
 2068              		.loc 1 485 5 is_stmt 1 view .LVU437
 2069              	@ src/pdantler/printf.c:485:     value = -value;
 485:src/pdantler/printf.c ****   }
 2070              		.loc 1 485 11 is_stmt 0 view .LVU438
 2071 041c 0BF10043 		add	r3, fp, #-2147483648	@ tmp332, value,
 2072 0420 CDF820A0 		str	r10, [sp, #32]	@ value, %sfp
 2073 0424 0993     		str	r3, [sp, #36]	@ tmp332, %sfp
 2074              	.LVL192:
ARM GAS  /tmp/ccFy9xbE.s 			page 52


 485:src/pdantler/printf.c ****   }
 2075              		.loc 1 485 11 view .LVU439
 2076 0426 25E6     		b	.L163		@
 2077              	.LVL193:
 2078              	.L221:
 2079              	@ src/pdantler/printf.c:554:     fwidth = 0U;
 554:src/pdantler/printf.c ****   }
 2080              		.loc 1 554 12 view .LVU440
 2081 0428 0B9B     		ldr	r3, [sp, #44]	@ width, %sfp
 2082              	@ src/pdantler/printf.c:535:       flags |= FLAGS_PRECISION; // make sure _ftoa respects precision
 535:src/pdantler/printf.c ****       // no characters in exponent
 2083              		.loc 1 535 13 view .LVU441
 2084 042a 0796     		str	r6, [sp, #28]	@ flags, %sfp
 2085              	@ src/pdantler/printf.c:556:   if ((flags & FLAGS_LEFT) && minwidth) {
 556:src/pdantler/printf.c ****     // if we're padding on the right, DON'T pad the floating part
 2086              		.loc 1 556 28 view .LVU442
 2087 042c 9846     		mov	r8, r3	@ _106, width
 2088              	@ src/pdantler/printf.c:554:     fwidth = 0U;
 554:src/pdantler/printf.c ****   }
 2089              		.loc 1 554 12 view .LVU443
 2090 042e 1E46     		mov	r6, r3	@ fwidth, width
 2091              	.LVL194:
 2092              	@ src/pdantler/printf.c:556:   if ((flags & FLAGS_LEFT) && minwidth) {
 556:src/pdantler/printf.c ****     // if we're padding on the right, DON'T pad the floating part
 2093              		.loc 1 556 28 view .LVU444
 2094 0430 9946     		mov	r9, r3	@ _172, width
 2095              	@ src/pdantler/printf.c:537:       minwidth = 0U;
 537:src/pdantler/printf.c ****       expval = 0;
 2096              		.loc 1 537 16 view .LVU445
 2097 0432 1093     		str	r3, [sp, #64]	@ width, %sfp
 2098              	@ src/pdantler/printf.c:538:       expval = 0;
 538:src/pdantler/printf.c ****     } else {
 2099              		.loc 1 538 14 view .LVU446
 2100 0434 0D93     		str	r3, [sp, #52]	@ width, %sfp
 2101              	.LVL195:
 2102              	.L175:
 2103              	@ src/pdantler/printf.c:568:   idx = _ftoa(out, buffer, idx, maxlen, negative ? -value : value, pre
 568:src/pdantler/printf.c ****               flags & ~FLAGS_ADAPT_EXP);
 2104              		.loc 1 568 9 discriminator 1 view .LVU447
 2105 0436 DDE90801 		ldrd	r0, [sp, #32]	@ value,,
 2106 043a 0246     		mov	r2, r0	@ value, value
 2107 043c 01F10043 		add	r3, r1, #-2147483648	@ value, tmp372,
 2108 0440 CDE90823 		strd	r2, [sp, #32]	@ value,,
 2109              	.LVL196:
 568:src/pdantler/printf.c ****               flags & ~FLAGS_ADAPT_EXP);
 2110              		.loc 1 568 9 discriminator 1 view .LVU448
 2111 0444 85E7     		b	.L180		@
 2112              	.LVL197:
 2113              	.L222:
 542:src/pdantler/printf.c ****       }
 2114              		.loc 1 542 9 is_stmt 1 view .LVU449
 2115 0446 013B     		subs	r3, r3, #1	@ prec, prec,
 2116 0448 0A93     		str	r3, [sp, #40]	@ prec, %sfp
 2117              	.LVL198:
 542:src/pdantler/printf.c ****       }
 2118              		.loc 1 542 9 is_stmt 0 view .LVU450
 2119 044a 61E7     		b	.L169		@
ARM GAS  /tmp/ccFy9xbE.s 			page 53


 2120              	.LVL199:
 2121              	.L188:
 2122              	@ src/pdantler/printf.c:549:   if (width > minwidth) {
 549:src/pdantler/printf.c ****     // we didn't fall-back so subtract the characters required for the exponent
 2123              		.loc 1 549 6 view .LVU451
 2124 044c 0023     		movs	r3, #0	@ expval,
 2125              	.LVL200:
 2126              	@ src/pdantler/printf.c:535:       flags |= FLAGS_PRECISION; // make sure _ftoa respects precision
 535:src/pdantler/printf.c ****       // no characters in exponent
 2127              		.loc 1 535 13 view .LVU452
 2128 044e 0796     		str	r6, [sp, #28]	@ flags, %sfp
 2129              	@ src/pdantler/printf.c:549:   if (width > minwidth) {
 549:src/pdantler/printf.c ****     // we didn't fall-back so subtract the characters required for the exponent
 2130              		.loc 1 549 6 view .LVU453
 2131 0450 0B9E     		ldr	r6, [sp, #44]	@ fwidth, %sfp
 2132              	.LVL201:
 549:src/pdantler/printf.c ****     // we didn't fall-back so subtract the characters required for the exponent
 2133              		.loc 1 549 6 view .LVU454
 2134 0452 9946     		mov	r9, r3	@ _172, expval
 2135 0454 9846     		mov	r8, r3	@ _106, expval
 2136 0456 0D93     		str	r3, [sp, #52]	@ expval, %sfp
 2137              	@ src/pdantler/printf.c:537:       minwidth = 0U;
 537:src/pdantler/printf.c ****       expval = 0;
 2138              		.loc 1 537 16 view .LVU455
 2139 0458 1093     		str	r3, [sp, #64]	@ expval, %sfp
 2140 045a 72E7     		b	.L174		@
 2141              	.LVL202:
 2142              	.L187:
 2143              	@ src/pdantler/printf.c:533:         prec = 0;
 533:src/pdantler/printf.c ****       }
 2144              		.loc 1 533 14 view .LVU456
 2145 045c 0023     		movs	r3, #0	@ prec,
 2146 045e 0A93     		str	r3, [sp, #40]	@ prec, %sfp
 2147              	.LVL203:
 533:src/pdantler/printf.c ****       }
 2148              		.loc 1 533 14 view .LVU457
 2149 0460 E0E6     		b	.L173		@
 2150              		.cfi_endproc
 2151              	.LFE12:
 2152              		.size	_etoa, .-_etoa
 2153 0462 00BF     		.section	.rodata._ftoa.str1.4,"aMS",%progbits,1
 2154              		.align	2
 2155              	.LC0:
 2156 0000 666E692B 		.ascii	"fni+\000"
 2156      00
 2157 0005 000000   		.align	2
 2158              	.LC1:
 2159 0008 666E6900 		.ascii	"fni\000"
 2160              		.align	2
 2161              	.LC2:
 2162 000c 6E616E00 		.ascii	"nan\000"
 2163              		.align	2
 2164              	.LC3:
 2165 0010 666E692D 		.ascii	"fni-\000"
 2165      00
 2166              		.global	__aeabi_d2uiz
 2167              		.global	__aeabi_ui2d
ARM GAS  /tmp/ccFy9xbE.s 			page 54


 2168              		.section	.text._ftoa,"ax",%progbits
 2169              		.align	1
 2170              		.p2align 4,,15
 2171              		.syntax unified
 2172              		.thumb
 2173              		.thumb_func
 2174              		.fpu fpv5-sp-d16
 2175              		.type	_ftoa, %function
 2176              	_ftoa:
 2177              	.LVL204:
 2178              	.LFB11:
 347:src/pdantler/printf.c ****   char buf[PRINTF_FTOA_BUFFER_SIZE];
 2179              		.loc 1 347 41 is_stmt 1 view -0
 2180              		.cfi_startproc
 2181              		@ args = 20, pretend = 0, frame = 64
 2182              		@ frame_needed = 0, uses_anonymous_args = 0
 348:src/pdantler/printf.c ****   size_t len = 0U;
 2183              		.loc 1 348 3 view .LVU459
 349:src/pdantler/printf.c ****   double diff = 0.0;
 2184              		.loc 1 349 3 view .LVU460
 350:src/pdantler/printf.c **** 
 2185              		.loc 1 350 3 view .LVU461
 353:src/pdantler/printf.c ****                                  10000,     100000,    1000000, 10000000,
 2186              		.loc 1 353 3 view .LVU462
 358:src/pdantler/printf.c ****     return _out_rev(out, buffer, idx, maxlen, "nan", 3, width, flags);
 2187              		.loc 1 358 3 view .LVU463
 2188              	@ src/pdantler/printf.c:347:                     unsigned int flags) {
 347:src/pdantler/printf.c ****   char buf[PRINTF_FTOA_BUFFER_SIZE];
 2189              		.loc 1 347 41 is_stmt 0 view .LVU464
 2190 0000 2DE9F04F 		push	{r4, r5, r6, r7, r8, r9, r10, fp, lr}	@
 2191              	.LCFI28:
 2192              		.cfi_def_cfa_offset 36
 2193              		.cfi_offset 4, -36
 2194              		.cfi_offset 5, -32
 2195              		.cfi_offset 6, -28
 2196              		.cfi_offset 7, -24
 2197              		.cfi_offset 8, -20
 2198              		.cfi_offset 9, -16
 2199              		.cfi_offset 10, -12
 2200              		.cfi_offset 11, -8
 2201              		.cfi_offset 14, -4
 2202 0004 2DED048B 		vpush.64	{d8, d9}	@
 2203              	.LCFI29:
 2204              		.cfi_def_cfa_offset 52
 2205              		.cfi_offset 80, -52
 2206              		.cfi_offset 81, -48
 2207              		.cfi_offset 82, -44
 2208              		.cfi_offset 83, -40
 2209 0008 95B0     		sub	sp, sp, #84	@,,
 2210              	.LCFI30:
 2211              		.cfi_def_cfa_offset 136
 2212              	@ src/pdantler/printf.c:347:                     unsigned int flags) {
 347:src/pdantler/printf.c ****   char buf[PRINTF_FTOA_BUFFER_SIZE];
 2213              		.loc 1 347 41 view .LVU465
 2214 000a 9B46     		mov	fp, r3	@ maxlen, tmp323
 2215 000c 9246     		mov	r10, r2	@ idx, tmp322
 2216 000e DDE92463 		ldrd	r6, r3, [sp, #144]	@ prec, width,,
ARM GAS  /tmp/ccFy9xbE.s 			page 55


 2217              	.LVL205:
 347:src/pdantler/printf.c ****   char buf[PRINTF_FTOA_BUFFER_SIZE];
 2218              		.loc 1 347 41 view .LVU466
 2219 0012 DDE92289 		ldrd	r8, [sp, #136]	@ value,,
 2220 0016 0593     		str	r3, [sp, #20]	@ width, %sfp
 2221 0018 269B     		ldr	r3, [sp, #152]	@ flags, flags
 2222              	@ src/pdantler/printf.c:358:   if (value != value)
 358:src/pdantler/printf.c ****     return _out_rev(out, buffer, idx, maxlen, "nan", 3, width, flags);
 2223              		.loc 1 358 6 view .LVU467
 2224 001a 4246     		mov	r2, r8	@, value
 2225              	.LVL206:
 2226              	@ src/pdantler/printf.c:347:                     unsigned int flags) {
 347:src/pdantler/printf.c ****   char buf[PRINTF_FTOA_BUFFER_SIZE];
 2227              		.loc 1 347 41 view .LVU468
 2228 001c CDE90601 		strd	r0, r1, [sp, #24]	@ tmp320, tmp321,,
 2229 0020 0493     		str	r3, [sp, #16]	@ flags, %sfp
 2230              	@ src/pdantler/printf.c:358:   if (value != value)
 358:src/pdantler/printf.c ****     return _out_rev(out, buffer, idx, maxlen, "nan", 3, width, flags);
 2231              		.loc 1 358 6 view .LVU469
 2232 0022 4046     		mov	r0, r8	@, value
 2233              	.LVL207:
 358:src/pdantler/printf.c ****     return _out_rev(out, buffer, idx, maxlen, "nan", 3, width, flags);
 2234              		.loc 1 358 6 view .LVU470
 2235 0024 4B46     		mov	r3, r9	@, value
 2236 0026 4946     		mov	r1, r9	@, value
 2237              	.LVL208:
 358:src/pdantler/printf.c ****     return _out_rev(out, buffer, idx, maxlen, "nan", 3, width, flags);
 2238              		.loc 1 358 6 view .LVU471
 2239 0028 FFF7FEFF 		bl	__aeabi_dcmpeq		@
 2240              	.LVL209:
 2241 002c 0028     		cmp	r0, #0	@ tmp324
 2242 002e 00F0F980 		beq	.L339	@
 360:src/pdantler/printf.c ****     return _out_rev(out, buffer, idx, maxlen, "fni-", 4, width, flags);
 2243              		.loc 1 360 3 is_stmt 1 view .LVU472
 2244              	@ src/pdantler/printf.c:360:   if (value < -DBL_MAX)
 360:src/pdantler/printf.c ****     return _out_rev(out, buffer, idx, maxlen, "fni-", 4, width, flags);
 2245              		.loc 1 360 6 is_stmt 0 view .LVU473
 2246 0032 4FF0FF32 		mov	r2, #-1	@,
 2247 0036 6FF48013 		mvn	r3, #1048576	@,
 2248 003a 4046     		mov	r0, r8	@, value
 2249 003c 4946     		mov	r1, r9	@, value
 2250 003e FFF7FEFF 		bl	__aeabi_dcmplt		@
 2251              	.LVL210:
 2252 0042 0028     		cmp	r0, #0	@ tmp325
 2253 0044 40F02281 		bne	.L340	@
 362:src/pdantler/printf.c ****     return _out_rev(out, buffer, idx, maxlen,
 2254              		.loc 1 362 3 is_stmt 1 view .LVU474
 2255              	@ src/pdantler/printf.c:362:   if (value > DBL_MAX)
 362:src/pdantler/printf.c ****     return _out_rev(out, buffer, idx, maxlen,
 2256              		.loc 1 362 6 is_stmt 0 view .LVU475
 2257 0048 4FF0FF32 		mov	r2, #-1	@,
 2258 004c BC4B     		ldr	r3, .L348+16	@,
 2259 004e 4046     		mov	r0, r8	@, value
 2260 0050 4946     		mov	r1, r9	@, value
 2261 0052 FFF7FEFF 		bl	__aeabi_dcmpgt		@
 2262              	.LVL211:
 2263 0056 0028     		cmp	r0, #0	@ tmp326
ARM GAS  /tmp/ccFy9xbE.s 			page 56


 2264 0058 40F0C980 		bne	.L341	@
 370:src/pdantler/printf.c **** #if defined(PRINTF_SUPPORT_EXPONENTIAL)
 2265              		.loc 1 370 3 is_stmt 1 view .LVU476
 2266              	@ src/pdantler/printf.c:370:   if ((value > PRINTF_MAX_FLOAT) || (value < -PRINTF_MAX_FLOAT)) {
 370:src/pdantler/printf.c **** #if defined(PRINTF_SUPPORT_EXPONENTIAL)
 2267              		.loc 1 370 6 is_stmt 0 view .LVU477
 2268 005c 4046     		mov	r0, r8	@, value
 2269 005e 4946     		mov	r1, r9	@, value
 2270 0060 B3A3     		adr	r3, .L348	@,
 2271 0062 D3E90023 		ldrd	r2, [r3]	@,
 2272 0066 FFF7FEFF 		bl	__aeabi_dcmpgt		@
 2273              	.LVL212:
 2274 006a 0028     		cmp	r0, #0	@ tmp327
 2275 006c 40F0FC80 		bne	.L234	@
 2276              	@ src/pdantler/printf.c:370:   if ((value > PRINTF_MAX_FLOAT) || (value < -PRINTF_MAX_FLOAT)) {
 370:src/pdantler/printf.c **** #if defined(PRINTF_SUPPORT_EXPONENTIAL)
 2277              		.loc 1 370 34 discriminator 1 view .LVU478
 2278 0070 4046     		mov	r0, r8	@, value
 2279 0072 4946     		mov	r1, r9	@, value
 2280 0074 B0A3     		adr	r3, .L348+8	@,
 2281 0076 D3E90023 		ldrd	r2, [r3]	@,
 2282 007a FFF7FEFF 		bl	__aeabi_dcmplt		@
 2283              	.LVL213:
 2284 007e 0028     		cmp	r0, #0	@ tmp328
 2285 0080 40F0F280 		bne	.L234	@
 379:src/pdantler/printf.c ****   if (value < 0) {
 2286              		.loc 1 379 3 is_stmt 1 view .LVU479
 2287              	.LVL214:
 380:src/pdantler/printf.c ****     negative = true;
 2288              		.loc 1 380 3 view .LVU480
 2289              	@ src/pdantler/printf.c:380:   if (value < 0) {
 380:src/pdantler/printf.c ****     negative = true;
 2290              		.loc 1 380 6 is_stmt 0 view .LVU481
 2291 0084 0022     		movs	r2, #0	@,
 2292 0086 0023     		movs	r3, #0	@,
 2293 0088 4046     		mov	r0, r8	@, value
 2294 008a 4946     		mov	r1, r9	@, value
 2295 008c FFF7FEFF 		bl	__aeabi_dcmplt		@
 2296              	.LVL215:
 2297 0090 0028     		cmp	r0, #0	@ tmp202
 2298 0092 40F0DA80 		bne	.L342	@
 2299              	@ src/pdantler/printf.c:379:   bool negative = false;
 379:src/pdantler/printf.c ****   if (value < 0) {
 2300              		.loc 1 379 8 view .LVU482
 2301 0096 0990     		str	r0, [sp, #36]	@ tmp202, %sfp
 2302              	.LVL216:
 2303              	.L237:
 386:src/pdantler/printf.c ****     prec = PRINTF_DEFAULT_FLOAT_PRECISION;
 2304              		.loc 1 386 3 is_stmt 1 view .LVU483
 2305              	@ src/pdantler/printf.c:386:   if (!(flags & FLAGS_PRECISION)) {
 386:src/pdantler/printf.c ****     prec = PRINTF_DEFAULT_FLOAT_PRECISION;
 2306              		.loc 1 386 6 is_stmt 0 view .LVU484
 2307 0098 049B     		ldr	r3, [sp, #16]	@ flags, %sfp
 2308 009a 13F48064 		ands	r4, r3, #1024	@ len, flags,
 2309 009e 00F06C81 		beq	.L275		@,
 2310              	.LVL217:
 390:src/pdantler/printf.c ****     buf[len++] = '0';
ARM GAS  /tmp/ccFy9xbE.s 			page 57


 2311              		.loc 1 390 9 is_stmt 1 view .LVU485
 2312 00a2 092E     		cmp	r6, #9	@ prec,
 2313 00a4 40F2A381 		bls	.L343		@,
 2314 00a8 0CAB     		add	r3, sp, #48	@ tmp312,,
 2315 00aa 0024     		movs	r4, #0	@ len,
 2316              	@ src/pdantler/printf.c:391:     buf[len++] = '0';
 391:src/pdantler/printf.c ****     prec--;
 2317              		.loc 1 391 16 is_stmt 0 view .LVU486
 2318 00ac 3022     		movs	r2, #48	@ tmp207,
 2319 00ae 0893     		str	r3, [sp, #32]	@ tmp312, %sfp
 2320              	.LVL218:
 2321              	.L241:
 391:src/pdantler/printf.c ****     prec--;
 2322              		.loc 1 391 5 is_stmt 1 view .LVU487
 2323              	@ src/pdantler/printf.c:391:     buf[len++] = '0';
 391:src/pdantler/printf.c ****     prec--;
 2324              		.loc 1 391 12 is_stmt 0 view .LVU488
 2325 00b0 0134     		adds	r4, r4, #1	@ len, len,
 2326              	.LVL219:
 2327              	@ src/pdantler/printf.c:392:     prec--;
 392:src/pdantler/printf.c ****   }
 2328              		.loc 1 392 9 view .LVU489
 2329 00b2 013E     		subs	r6, r6, #1	@ prec, prec,
 2330              	.LVL220:
 2331              	@ src/pdantler/printf.c:391:     buf[len++] = '0';
 391:src/pdantler/printf.c ****     prec--;
 2332              		.loc 1 391 16 view .LVU490
 2333 00b4 03F8012B 		strb	r2, [r3], #1	@ tmp207, MEM[base: _49, offset: 0B]
 392:src/pdantler/printf.c ****   }
 2334              		.loc 1 392 5 is_stmt 1 view .LVU491
 2335              	.LVL221:
 390:src/pdantler/printf.c ****     buf[len++] = '0';
 2336              		.loc 1 390 9 view .LVU492
 2337 00b8 1F2C     		cmp	r4, #31	@ len,
 2338 00ba 01D8     		bhi	.L282		@,
 2339 00bc 092E     		cmp	r6, #9	@ prec,
 2340 00be F7D8     		bhi	.L241		@,
 2341              	.L282:
 2342 00c0 9FED9B7B 		vldr.64	d7, .L348	@ prephitmp_123,
 2343 00c4 B0EE478A 		vmov.f32	s16, s14	@ prephitmp_123, prephitmp_123
 2344 00c8 F0EE678A 		vmov.f32	s17, s15	@ prephitmp_123, prephitmp_123
 2345              	.LVL222:
 2346              	.L239:
 395:src/pdantler/printf.c ****   double tmp = (value - whole) * pow10[prec];
 2347              		.loc 1 395 3 view .LVU493
 2348              	@ src/pdantler/printf.c:395:   int whole = (int)value;
 395:src/pdantler/printf.c ****   double tmp = (value - whole) * pow10[prec];
 2349              		.loc 1 395 7 is_stmt 0 view .LVU494
 2350 00cc 4946     		mov	r1, r9	@, value
 2351 00ce 4046     		mov	r0, r8	@, value
 2352 00d0 FFF7FEFF 		bl	__aeabi_d2iz		@
 2353              	.LVL223:
 2354 00d4 0546     		mov	r5, r0	@ whole, tmp331
 2355              	.LVL224:
 396:src/pdantler/printf.c ****   unsigned long frac = (unsigned long)tmp;
 2356              		.loc 1 396 3 is_stmt 1 view .LVU495
 2357              	@ src/pdantler/printf.c:396:   double tmp = (value - whole) * pow10[prec];
ARM GAS  /tmp/ccFy9xbE.s 			page 58


 396:src/pdantler/printf.c ****   unsigned long frac = (unsigned long)tmp;
 2358              		.loc 1 396 23 is_stmt 0 view .LVU496
 2359 00d6 FFF7FEFF 		bl	__aeabi_i2d		@
 2360              	.LVL225:
 396:src/pdantler/printf.c ****   unsigned long frac = (unsigned long)tmp;
 2361              		.loc 1 396 23 view .LVU497
 2362 00da 0246     		mov	r2, r0	@ tmp332,
 2363 00dc 0B46     		mov	r3, r1	@,
 2364 00de 4046     		mov	r0, r8	@, value
 2365 00e0 4946     		mov	r1, r9	@, value
 2366 00e2 FFF7FEFF 		bl	__aeabi_dsub		@
 2367              	.LVL226:
 2368              	@ src/pdantler/printf.c:396:   double tmp = (value - whole) * pow10[prec];
 396:src/pdantler/printf.c ****   unsigned long frac = (unsigned long)tmp;
 2369              		.loc 1 396 10 view .LVU498
 2370 00e6 53EC182B 		vmov	r2, r3, d8	@, prephitmp_123
 2371 00ea FFF7FEFF 		bl	__aeabi_dmul		@
 2372              	.LVL227:
 2373 00ee 0246     		mov	r2, r0	@ tmp333,
 2374 00f0 0B46     		mov	r3, r1	@,
 2375 00f2 43EC192B 		vmov	d9, r2, r3	@ tmp218, tmp333
 2376              	.LVL228:
 397:src/pdantler/printf.c ****   diff = tmp - frac;
 2377              		.loc 1 397 3 is_stmt 1 view .LVU499
 2378              	@ src/pdantler/printf.c:397:   unsigned long frac = (unsigned long)tmp;
 397:src/pdantler/printf.c ****   diff = tmp - frac;
 2379              		.loc 1 397 17 is_stmt 0 view .LVU500
 2380 00f6 FFF7FEFF 		bl	__aeabi_d2uiz		@
 2381              	.LVL229:
 397:src/pdantler/printf.c ****   diff = tmp - frac;
 2382              		.loc 1 397 17 view .LVU501
 2383 00fa 0746     		mov	r7, r0	@ frac, tmp334
 2384              	.LVL230:
 398:src/pdantler/printf.c **** 
 2385              		.loc 1 398 3 is_stmt 1 view .LVU502
 2386              	@ src/pdantler/printf.c:398:   diff = tmp - frac;
 398:src/pdantler/printf.c **** 
 2387              		.loc 1 398 14 is_stmt 0 view .LVU503
 2388 00fc FFF7FEFF 		bl	__aeabi_ui2d		@
 2389              	.LVL231:
 398:src/pdantler/printf.c **** 
 2390              		.loc 1 398 14 view .LVU504
 2391 0100 0246     		mov	r2, r0	@ tmp335,
 2392 0102 0B46     		mov	r3, r1	@,
 2393              	@ src/pdantler/printf.c:398:   diff = tmp - frac;
 398:src/pdantler/printf.c **** 
 2394              		.loc 1 398 8 view .LVU505
 2395 0104 51EC190B 		vmov	r0, r1, d9	@, tmp218
 2396 0108 FFF7FEFF 		bl	__aeabi_dsub		@
 2397              	.LVL232:
 2398 010c 0246     		mov	r2, r0	@ tmp336,
 2399 010e 0B46     		mov	r3, r1	@,
 2400 0110 CDE90A23 		strd	r2, [sp, #40]	@ tmp336,,
 2401              	.LVL233:
 400:src/pdantler/printf.c ****     ++frac;
 2402              		.loc 1 400 3 is_stmt 1 view .LVU506
 2403              	@ src/pdantler/printf.c:400:   if (diff > 0.5) {
ARM GAS  /tmp/ccFy9xbE.s 			page 59


 400:src/pdantler/printf.c ****     ++frac;
 2404              		.loc 1 400 6 is_stmt 0 view .LVU507
 2405 0114 0022     		movs	r2, #0	@,
 2406              	.LVL234:
 400:src/pdantler/printf.c ****     ++frac;
 2407              		.loc 1 400 6 view .LVU508
 2408 0116 8B4B     		ldr	r3, .L348+20	@,
 2409 0118 FFF7FEFF 		bl	__aeabi_dcmpgt		@
 2410              	.LVL235:
 2411 011c 0028     		cmp	r0, #0	@ tmp337
 2412 011e 00F01F81 		beq	.L331	@
 401:src/pdantler/printf.c ****     // handle rollover, e.g. case 0.99 with prec 1 is 1.0
 2413              		.loc 1 401 5 is_stmt 1 view .LVU509
 2414 0122 0137     		adds	r7, r7, #1	@ frac, frac,
 2415              	.LVL236:
 403:src/pdantler/printf.c ****       frac = 0;
 2416              		.loc 1 403 5 view .LVU510
 2417              	@ src/pdantler/printf.c:403:     if (frac >= pow10[prec]) {
 403:src/pdantler/printf.c ****       frac = 0;
 2418              		.loc 1 403 14 is_stmt 0 view .LVU511
 2419 0124 3846     		mov	r0, r7	@, frac
 2420 0126 FFF7FEFF 		bl	__aeabi_ui2d		@
 2421              	.LVL237:
 2422              	@ src/pdantler/printf.c:403:     if (frac >= pow10[prec]) {
 403:src/pdantler/printf.c ****       frac = 0;
 2423              		.loc 1 403 8 view .LVU512
 2424 012a 53EC182B 		vmov	r2, r3, d8	@, prephitmp_123
 2425 012e FFF7FEFF 		bl	__aeabi_dcmpge		@
 2426              	.LVL238:
 2427 0132 08B1     		cbz	r0, .L245	@ tmp338,
 404:src/pdantler/printf.c ****       ++whole;
 2428              		.loc 1 404 7 is_stmt 1 view .LVU513
 2429              	.LVL239:
 405:src/pdantler/printf.c ****     }
 2430              		.loc 1 405 7 view .LVU514
 2431 0134 0135     		adds	r5, r5, #1	@ whole, whole,
 2432              	.LVL240:
 2433              	@ src/pdantler/printf.c:404:       frac = 0;
 404:src/pdantler/printf.c ****       ++whole;
 2434              		.loc 1 404 12 is_stmt 0 view .LVU515
 2435 0136 0027     		movs	r7, #0	@ frac,
 2436              	.LVL241:
 2437              	.L245:
 413:src/pdantler/printf.c ****     diff = value - (double)whole;
 2438              		.loc 1 413 3 is_stmt 1 view .LVU516
 2439              	@ src/pdantler/printf.c:413:   if (prec == 0U) {
 413:src/pdantler/printf.c ****     diff = value - (double)whole;
 2440              		.loc 1 413 6 is_stmt 0 view .LVU517
 2441 0138 002E     		cmp	r6, #0	@ prec
 2442 013a 40F0B380 		bne	.L248	@
 414:src/pdantler/printf.c ****     if ((!(diff < 0.5) || (diff > 0.5)) && (whole & 1)) {
 2443              		.loc 1 414 5 is_stmt 1 view .LVU518
 2444              	@ src/pdantler/printf.c:414:     diff = value - (double)whole;
 414:src/pdantler/printf.c ****     if ((!(diff < 0.5) || (diff > 0.5)) && (whole & 1)) {
 2445              		.loc 1 414 20 is_stmt 0 view .LVU519
 2446 013e 2846     		mov	r0, r5	@, whole
 2447 0140 FFF7FEFF 		bl	__aeabi_i2d		@
ARM GAS  /tmp/ccFy9xbE.s 			page 60


 2448              	.LVL242:
 2449 0144 0246     		mov	r2, r0	@ tmp340,
 2450 0146 0B46     		mov	r3, r1	@,
 2451              	@ src/pdantler/printf.c:414:     diff = value - (double)whole;
 414:src/pdantler/printf.c ****     if ((!(diff < 0.5) || (diff > 0.5)) && (whole & 1)) {
 2452              		.loc 1 414 10 view .LVU520
 2453 0148 4046     		mov	r0, r8	@, value
 2454 014a 4946     		mov	r1, r9	@, value
 2455 014c FFF7FEFF 		bl	__aeabi_dsub		@
 2456              	.LVL243:
 2457              	@ src/pdantler/printf.c:415:     if ((!(diff < 0.5) || (diff > 0.5)) && (whole & 1)) {
 415:src/pdantler/printf.c ****       // exactly 0.5 and ODD, then round up
 2458              		.loc 1 415 8 view .LVU521
 2459 0150 0022     		movs	r2, #0	@,
 2460 0152 7C4B     		ldr	r3, .L348+20	@,
 2461              	@ src/pdantler/printf.c:414:     diff = value - (double)whole;
 414:src/pdantler/printf.c ****     if ((!(diff < 0.5) || (diff > 0.5)) && (whole & 1)) {
 2462              		.loc 1 414 10 view .LVU522
 2463 0154 0646     		mov	r6, r0	@ tmp341,
 2464 0156 0F46     		mov	r7, r1	@,
 2465              	.LVL244:
 415:src/pdantler/printf.c ****       // exactly 0.5 and ODD, then round up
 2466              		.loc 1 415 5 is_stmt 1 view .LVU523
 2467              	@ src/pdantler/printf.c:415:     if ((!(diff < 0.5) || (diff > 0.5)) && (whole & 1)) {
 415:src/pdantler/printf.c ****       // exactly 0.5 and ODD, then round up
 2468              		.loc 1 415 8 is_stmt 0 view .LVU524
 2469 0158 FFF7FEFF 		bl	__aeabi_dcmplt		@
 2470              	.LVL245:
 2471 015c 0028     		cmp	r0, #0	@ tmp342
 2472 015e 7FD0     		beq	.L249	@
 2473              	@ src/pdantler/printf.c:415:     if ((!(diff < 0.5) || (diff > 0.5)) && (whole & 1)) {
 415:src/pdantler/printf.c ****       // exactly 0.5 and ODD, then round up
 2474              		.loc 1 415 24 discriminator 2 view .LVU525
 2475 0160 3046     		mov	r0, r6	@, tmp230
 2476 0162 3946     		mov	r1, r7	@,
 2477 0164 0022     		movs	r2, #0	@,
 2478 0166 774B     		ldr	r3, .L348+20	@,
 2479 0168 FFF7FEFF 		bl	__aeabi_dcmpgt		@
 2480              	.LVL246:
 2481 016c 0028     		cmp	r0, #0	@ tmp343
 2482 016e 77D1     		bne	.L249	@
 2483              	.LVL247:
 2484              	.L251:
 415:src/pdantler/printf.c ****       // exactly 0.5 and ODD, then round up
 2485              		.loc 1 415 24 discriminator 2 view .LVU526
 2486 0170 621E     		subs	r2, r4, #1	@ tmp276, len,
 2487 0172 089B     		ldr	r3, [sp, #32]	@ tmp312, %sfp
 2488              	@ src/pdantler/printf.c:442:     buf[len++] = (char)(48 + (whole % 10));
 442:src/pdantler/printf.c ****     if (!(whole /= 10)) {
 2489              		.loc 1 442 37 view .LVU527
 2490 0174 7449     		ldr	r1, .L348+24	@ tmp315,
 2491 0176 1A44     		add	r2, r2, r3	@ ivtmp.224, tmp312
 2492              	.L260:
 442:src/pdantler/printf.c ****     if (!(whole /= 10)) {
 2493              		.loc 1 442 5 is_stmt 1 view .LVU528
 2494              	.LVL248:
 441:src/pdantler/printf.c ****     buf[len++] = (char)(48 + (whole % 10));
ARM GAS  /tmp/ccFy9xbE.s 			page 61


 2495              		.loc 1 441 9 view .LVU529
 2496              	@ src/pdantler/printf.c:442:     buf[len++] = (char)(48 + (whole % 10));
 442:src/pdantler/printf.c ****     if (!(whole /= 10)) {
 2497              		.loc 1 442 37 is_stmt 0 view .LVU530
 2498 0178 81FB0530 		smull	r3, r0, r1, r5	@ tmp383, tmp258, tmp315, whole
 2499              	@ src/pdantler/printf.c:441:   while (len < PRINTF_FTOA_BUFFER_SIZE) {
 441:src/pdantler/printf.c ****     buf[len++] = (char)(48 + (whole % 10));
 2500              		.loc 1 441 9 view .LVU531
 2501 017c 202C     		cmp	r4, #32	@ len,
 2502              	@ src/pdantler/printf.c:442:     buf[len++] = (char)(48 + (whole % 10));
 442:src/pdantler/printf.c ****     if (!(whole /= 10)) {
 2503              		.loc 1 442 37 view .LVU532
 2504 017e 4FEAE573 		asr	r3, r5, #31	@ tmp261, whole,
 2505              	@ src/pdantler/printf.c:442:     buf[len++] = (char)(48 + (whole % 10));
 442:src/pdantler/printf.c ****     if (!(whole /= 10)) {
 2506              		.loc 1 442 12 view .LVU533
 2507 0182 04F10104 		add	r4, r4, #1	@ len, len,
 2508              	.LVL249:
 2509              	@ src/pdantler/printf.c:442:     buf[len++] = (char)(48 + (whole % 10));
 442:src/pdantler/printf.c ****     if (!(whole /= 10)) {
 2510              		.loc 1 442 37 view .LVU534
 2511 0186 C3EBA003 		rsb	r3, r3, r0, asr #2	@ tmp257, tmp261, tmp258,
 2512              	@ src/pdantler/printf.c:441:   while (len < PRINTF_FTOA_BUFFER_SIZE) {
 441:src/pdantler/printf.c ****     buf[len++] = (char)(48 + (whole % 10));
 2513              		.loc 1 441 9 view .LVU535
 2514 018a 00F0A880 		beq	.L254		@,
 2515              	@ src/pdantler/printf.c:442:     buf[len++] = (char)(48 + (whole % 10));
 442:src/pdantler/printf.c ****     if (!(whole /= 10)) {
 2516              		.loc 1 442 37 view .LVU536
 2517 018e 03EB8300 		add	r0, r3, r3, lsl #2	@ tmp264, tmp257, tmp257,
 2518 0192 A5EB4000 		sub	r0, r5, r0, lsl #1	@ tmp266, whole, tmp264,
 2519              	@ src/pdantler/printf.c:443:     if (!(whole /= 10)) {
 443:src/pdantler/printf.c ****       break;
 2520              		.loc 1 443 8 view .LVU537
 2521 0196 1D46     		mov	r5, r3	@ whole, tmp257
 2522              	.LVL250:
 2523              	@ src/pdantler/printf.c:442:     buf[len++] = (char)(48 + (whole % 10));
 442:src/pdantler/printf.c ****     if (!(whole /= 10)) {
 2524              		.loc 1 442 18 view .LVU538
 2525 0198 00F13003 		add	r3, r0, #48	@ tmp268, tmp266,
 2526              	@ src/pdantler/printf.c:442:     buf[len++] = (char)(48 + (whole % 10));
 442:src/pdantler/printf.c ****     if (!(whole /= 10)) {
 2527              		.loc 1 442 16 view .LVU539
 2528 019c 02F8013F 		strb	r3, [r2, #1]!	@ tmp268, MEM[base: _179, offset: 0B]
 443:src/pdantler/printf.c ****       break;
 2529              		.loc 1 443 5 is_stmt 1 view .LVU540
 2530              	.LVL251:
 2531              	@ src/pdantler/printf.c:443:     if (!(whole /= 10)) {
 443:src/pdantler/printf.c ****       break;
 2532              		.loc 1 443 8 is_stmt 0 view .LVU541
 2533 01a0 002D     		cmp	r5, #0	@ whole
 2534 01a2 E9D1     		bne	.L260	@
 449:src/pdantler/printf.c ****     if (width && (negative || (flags & (FLAGS_PLUS | FLAGS_SPACE)))) {
 2535              		.loc 1 449 3 is_stmt 1 view .LVU542
 2536              	@ src/pdantler/printf.c:449:   if (!(flags & FLAGS_LEFT) && (flags & FLAGS_ZEROPAD)) {
 449:src/pdantler/printf.c ****     if (width && (negative || (flags & (FLAGS_PLUS | FLAGS_SPACE)))) {
 2537              		.loc 1 449 29 is_stmt 0 view .LVU543
ARM GAS  /tmp/ccFy9xbE.s 			page 62


 2538 01a4 049B     		ldr	r3, [sp, #16]	@ flags, %sfp
 2539 01a6 03F00303 		and	r3, r3, #3	@ tmp278, flags,
 2540              	@ src/pdantler/printf.c:449:   if (!(flags & FLAGS_LEFT) && (flags & FLAGS_ZEROPAD)) {
 449:src/pdantler/printf.c ****     if (width && (negative || (flags & (FLAGS_PLUS | FLAGS_SPACE)))) {
 2541              		.loc 1 449 6 view .LVU544
 2542 01aa 012B     		cmp	r3, #1	@ tmp278,
 2543 01ac 00F09E80 		beq	.L262		@,
 2544              	.LVL252:
 2545              	.L264:
 458:src/pdantler/printf.c ****     if (negative) {
 2546              		.loc 1 458 3 is_stmt 1 view .LVU545
 2547              	@ src/pdantler/printf.c:458:   if (len < PRINTF_FTOA_BUFFER_SIZE) {
 458:src/pdantler/printf.c ****     if (negative) {
 2548              		.loc 1 458 6 is_stmt 0 view .LVU546
 2549 01b0 202C     		cmp	r4, #32	@ len,
 2550 01b2 0AD0     		beq	.L263		@,
 459:src/pdantler/printf.c ****       buf[len++] = '-';
 2551              		.loc 1 459 5 is_stmt 1 view .LVU547
 2552              	@ src/pdantler/printf.c:459:     if (negative) {
 459:src/pdantler/printf.c ****       buf[len++] = '-';
 2553              		.loc 1 459 8 is_stmt 0 view .LVU548
 2554 01b4 099B     		ldr	r3, [sp, #36]	@ negative, %sfp
 2555 01b6 002B     		cmp	r3, #0	@ negative
 2556 01b8 00F0E980 		beq	.L271	@
 460:src/pdantler/printf.c ****     } else if (flags & FLAGS_PLUS) {
 2557              		.loc 1 460 7 is_stmt 1 view .LVU549
 2558              	.LVL253:
 2559              	@ src/pdantler/printf.c:460:       buf[len++] = '-';
 460:src/pdantler/printf.c ****     } else if (flags & FLAGS_PLUS) {
 2560              		.loc 1 460 18 is_stmt 0 view .LVU550
 2561 01bc 2D22     		movs	r2, #45	@ tmp297,
 2562              	.LVL254:
 2563              	.L336:
 2564              	@ src/pdantler/printf.c:462:       buf[len++] = '+'; // ignore the space if the '+' exists
 462:src/pdantler/printf.c ****     } else if (flags & FLAGS_SPACE) {
 2565              		.loc 1 462 18 view .LVU551
 2566 01be 04F15003 		add	r3, r4, #80	@ tmp436, len,
 2567 01c2 0134     		adds	r4, r4, #1	@ len, len,
 2568 01c4 6B44     		add	r3, sp, r3	@ tmp300,, tmp436
 2569 01c6 03F8202C 		strb	r2, [r3, #-32]	@ tmp301, buf[len_39]
 2570              	.LVL255:
 2571              	.L263:
 468:src/pdantler/printf.c **** }
 2572              		.loc 1 468 3 is_stmt 1 view .LVU552
 2573              	@ src/pdantler/printf.c:468:   return _out_rev(out, buffer, idx, maxlen, buf, len, width, flags);
 468:src/pdantler/printf.c **** }
 2574              		.loc 1 468 10 is_stmt 0 view .LVU553
 2575 01ca 049B     		ldr	r3, [sp, #16]	@ flags, %sfp
 2576 01cc 5246     		mov	r2, r10	@, idx
 2577 01ce 0393     		str	r3, [sp, #12]	@ flags,
 2578 01d0 059B     		ldr	r3, [sp, #20]	@ width, %sfp
 2579 01d2 CDE90143 		strd	r4, r3, [sp, #4]	@ len, width,,
 2580 01d6 089C     		ldr	r4, [sp, #32]	@ tmp312, %sfp
 2581              	.LVL256:
 468:src/pdantler/printf.c **** }
 2582              		.loc 1 468 10 view .LVU554
 2583 01d8 5B46     		mov	r3, fp	@, maxlen
ARM GAS  /tmp/ccFy9xbE.s 			page 63


 2584 01da DDE90601 		ldrd	r0, r1, [sp, #24]	@,,,
 2585 01de 0094     		str	r4, [sp]	@ tmp312,
 2586 01e0 FFF7FEFF 		bl	_out_rev		@
 2587              	.LVL257:
 2588              	@ src/pdantler/printf.c:469: }
 469:src/pdantler/printf.c **** 
 2589              		.loc 1 469 1 view .LVU555
 2590 01e4 15B0     		add	sp, sp, #84	@,,
 2591              	.LCFI31:
 2592              		.cfi_remember_state
 2593              		.cfi_def_cfa_offset 52
 2594              		@ sp needed	@
 2595 01e6 BDEC048B 		vldm	sp!, {d8-d9}	@,
 2596              	.LCFI32:
 2597              		.cfi_restore 82
 2598              		.cfi_restore 83
 2599              		.cfi_restore 80
 2600              		.cfi_restore 81
 2601              		.cfi_def_cfa_offset 36
 2602              	.LVL258:
 469:src/pdantler/printf.c **** 
 2603              		.loc 1 469 1 view .LVU556
 2604 01ea BDE8F08F 		pop	{r4, r5, r6, r7, r8, r9, r10, fp, pc}	@
 2605              	.LVL259:
 2606              	.L341:
 2607              	.LCFI33:
 2608              		.cfi_restore_state
 363:src/pdantler/printf.c ****                     (flags & FLAGS_PLUS) ? "fni+" : "fni",
 2609              		.loc 1 363 5 is_stmt 1 view .LVU557
 2610              	@ src/pdantler/printf.c:363:     return _out_rev(out, buffer, idx, maxlen,
 363:src/pdantler/printf.c ****                     (flags & FLAGS_PLUS) ? "fni+" : "fni",
 2611              		.loc 1 363 12 is_stmt 0 view .LVU558
 2612 01ee 049C     		ldr	r4, [sp, #16]	@ flags, %sfp
 2613 01f0 5246     		mov	r2, r10	@, idx
 2614 01f2 564D     		ldr	r5, .L348+28	@ tmp314,
 2615 01f4 2594     		str	r4, [sp, #148]	@ flags,
 2616              	.LVL260:
 2617              	@ src/pdantler/printf.c:364:                     (flags & FLAGS_PLUS) ? "fni+" : "fni",
 364:src/pdantler/printf.c ****                     (flags & FLAGS_PLUS) ? 4U : 3U, width, flags);
 2618              		.loc 1 364 28 view .LVU559
 2619 01f6 04F00404 		and	r4, r4, #4	@ tmp196, flags,
 2620              	@ src/pdantler/printf.c:363:     return _out_rev(out, buffer, idx, maxlen,
 363:src/pdantler/printf.c ****                     (flags & FLAGS_PLUS) ? "fni+" : "fni",
 2621              		.loc 1 363 12 view .LVU560
 2622 01fa 059B     		ldr	r3, [sp, #20]	@ width, %sfp
 2623 01fc 002C     		cmp	r4, #0	@ tmp196,
 2624 01fe 544C     		ldr	r4, .L348+32	@ tmp313,
 2625 0200 2493     		str	r3, [sp, #144]	@ width,
 2626              	.LVL261:
 363:src/pdantler/printf.c ****                     (flags & FLAGS_PLUS) ? "fni+" : "fni",
 2627              		.loc 1 363 12 view .LVU561
 2628 0202 5B46     		mov	r3, fp	@, maxlen
 2629 0204 08BF     		it	eq
 2630 0206 2C46     		moveq	r4, r5	@ iftmp.89_216, tmp314
 2631 0208 DDE90601 		ldrd	r0, r1, [sp, #24]	@,,,
 2632 020c 2294     		str	r4, [sp, #136]	@ iftmp.89_216,
 2633              	.LVL262:
ARM GAS  /tmp/ccFy9xbE.s 			page 64


 363:src/pdantler/printf.c ****                     (flags & FLAGS_PLUS) ? "fni+" : "fni",
 2634              		.loc 1 363 12 view .LVU562
 2635 020e 14BF     		ite	ne
 2636 0210 0424     		movne	r4, #4	@ iftmp.90_50,
 2637 0212 0324     		moveq	r4, #3	@ iftmp.90_50,
 2638 0214 2394     		str	r4, [sp, #140]	@ iftmp.90_50,
 2639              	@ src/pdantler/printf.c:469: }
 469:src/pdantler/printf.c **** 
 2640              		.loc 1 469 1 view .LVU563
 2641 0216 15B0     		add	sp, sp, #84	@,,
 2642              	.LCFI34:
 2643              		.cfi_remember_state
 2644              		.cfi_def_cfa_offset 52
 2645              		@ sp needed	@
 2646 0218 BDEC048B 		vldm	sp!, {d8-d9}	@,
 2647              	.LCFI35:
 2648              		.cfi_restore 82
 2649              		.cfi_restore 83
 2650              		.cfi_restore 80
 2651              		.cfi_restore 81
 2652              		.cfi_def_cfa_offset 36
 2653 021c BDE8F04F 		pop	{r4, r5, r6, r7, r8, r9, r10, fp, lr}	@
 2654              	.LCFI36:
 2655              		.cfi_restore 14
 2656              		.cfi_restore 11
 2657              		.cfi_restore 10
 2658              		.cfi_restore 9
 2659              		.cfi_restore 8
 2660              		.cfi_restore 7
 2661              		.cfi_restore 6
 2662              		.cfi_restore 5
 2663              		.cfi_restore 4
 2664              		.cfi_def_cfa_offset 0
 2665              	.LVL263:
 2666              	@ src/pdantler/printf.c:361:     return _out_rev(out, buffer, idx, maxlen, "fni-", 4, width, flags)
 361:src/pdantler/printf.c ****   if (value > DBL_MAX)
 2667              		.loc 1 361 12 view .LVU564
 2668 0220 FFF7FEBF 		b	_out_rev		@
 2669              	.LVL264:
 2670              	.L339:
 2671              	.LCFI37:
 2672              		.cfi_restore_state
 359:src/pdantler/printf.c ****   if (value < -DBL_MAX)
 2673              		.loc 1 359 5 is_stmt 1 view .LVU565
 2674              	@ src/pdantler/printf.c:359:     return _out_rev(out, buffer, idx, maxlen, "nan", 3, width, flags);
 359:src/pdantler/printf.c ****   if (value < -DBL_MAX)
 2675              		.loc 1 359 12 is_stmt 0 view .LVU566
 2676 0224 059C     		ldr	r4, [sp, #20]	@ width, %sfp
 2677 0226 5246     		mov	r2, r10	@, idx
 2678 0228 049B     		ldr	r3, [sp, #16]	@ flags, %sfp
 2679 022a 2494     		str	r4, [sp, #144]	@ width,
 2680              	.LVL265:
 359:src/pdantler/printf.c ****   if (value < -DBL_MAX)
 2681              		.loc 1 359 12 view .LVU567
 2682 022c 0324     		movs	r4, #3	@ tmp188,
 2683 022e 2593     		str	r3, [sp, #148]	@ flags,
 2684              	.LVL266:
ARM GAS  /tmp/ccFy9xbE.s 			page 65


 359:src/pdantler/printf.c ****   if (value < -DBL_MAX)
 2685              		.loc 1 359 12 view .LVU568
 2686 0230 5B46     		mov	r3, fp	@, maxlen
 2687 0232 2394     		str	r4, [sp, #140]	@ tmp188,
 2688              	.LVL267:
 359:src/pdantler/printf.c ****   if (value < -DBL_MAX)
 2689              		.loc 1 359 12 view .LVU569
 2690 0234 474C     		ldr	r4, .L348+36	@ tmp189,
 2691 0236 DDE90601 		ldrd	r0, r1, [sp, #24]	@,,,
 2692              	.LVL268:
 2693              	.L337:
 2694              	@ src/pdantler/printf.c:361:     return _out_rev(out, buffer, idx, maxlen, "fni-", 4, width, flags)
 361:src/pdantler/printf.c ****   if (value > DBL_MAX)
 2695              		.loc 1 361 12 view .LVU570
 2696 023a 2294     		str	r4, [sp, #136]	@ tmp193,
 2697              	@ src/pdantler/printf.c:469: }
 469:src/pdantler/printf.c **** 
 2698              		.loc 1 469 1 view .LVU571
 2699 023c 15B0     		add	sp, sp, #84	@,,
 2700              	.LCFI38:
 2701              		.cfi_remember_state
 2702              		.cfi_def_cfa_offset 52
 2703              		@ sp needed	@
 2704 023e BDEC048B 		vldm	sp!, {d8-d9}	@,
 2705              	.LCFI39:
 2706              		.cfi_restore 82
 2707              		.cfi_restore 83
 2708              		.cfi_restore 80
 2709              		.cfi_restore 81
 2710              		.cfi_def_cfa_offset 36
 2711 0242 BDE8F04F 		pop	{r4, r5, r6, r7, r8, r9, r10, fp, lr}	@
 2712              	.LCFI40:
 2713              		.cfi_restore 14
 2714              		.cfi_restore 11
 2715              		.cfi_restore 10
 2716              		.cfi_restore 9
 2717              		.cfi_restore 8
 2718              		.cfi_restore 7
 2719              		.cfi_restore 6
 2720              		.cfi_restore 5
 2721              		.cfi_restore 4
 2722              		.cfi_def_cfa_offset 0
 2723              	.LVL269:
 2724              	@ src/pdantler/printf.c:361:     return _out_rev(out, buffer, idx, maxlen, "fni-", 4, width, flags)
 361:src/pdantler/printf.c ****   if (value > DBL_MAX)
 2725              		.loc 1 361 12 view .LVU572
 2726 0246 FFF7FEBF 		b	_out_rev		@
 2727              	.LVL270:
 2728              	.L342:
 2729              	.LCFI41:
 2730              		.cfi_restore_state
 381:src/pdantler/printf.c ****     value = 0 - value;
 2731              		.loc 1 381 5 is_stmt 1 view .LVU573
 382:src/pdantler/printf.c ****   }
 2732              		.loc 1 382 5 view .LVU574
 2733              	@ src/pdantler/printf.c:381:     negative = true;
 381:src/pdantler/printf.c ****     value = 0 - value;
ARM GAS  /tmp/ccFy9xbE.s 			page 66


 2734              		.loc 1 381 14 is_stmt 0 view .LVU575
 2735 024a 0121     		movs	r1, #1	@ negative,
 2736              	@ src/pdantler/printf.c:382:     value = 0 - value;
 382:src/pdantler/printf.c ****   }
 2737              		.loc 1 382 11 view .LVU576
 2738 024c 4246     		mov	r2, r8	@, value
 2739 024e 4B46     		mov	r3, r9	@, value
 2740 0250 0020     		movs	r0, #0	@,
 2741              	@ src/pdantler/printf.c:381:     negative = true;
 381:src/pdantler/printf.c ****     value = 0 - value;
 2742              		.loc 1 381 14 view .LVU577
 2743 0252 0991     		str	r1, [sp, #36]	@ negative, %sfp
 2744              	@ src/pdantler/printf.c:382:     value = 0 - value;
 382:src/pdantler/printf.c ****   }
 2745              		.loc 1 382 11 view .LVU578
 2746 0254 0021     		movs	r1, #0	@,
 2747 0256 FFF7FEFF 		bl	__aeabi_dsub		@
 2748              	.LVL271:
 2749 025a 8046     		mov	r8, r0	@ value, tmp330
 2750 025c 8946     		mov	r9, r1	@ value,
 2751              	.LVL272:
 382:src/pdantler/printf.c ****   }
 2752              		.loc 1 382 11 view .LVU579
 2753 025e 1BE7     		b	.L237		@
 2754              	.LVL273:
 2755              	.L249:
 2756              	@ src/pdantler/printf.c:415:     if ((!(diff < 0.5) || (diff > 0.5)) && (whole & 1)) {
 415:src/pdantler/printf.c ****       // exactly 0.5 and ODD, then round up
 2757              		.loc 1 415 41 discriminator 3 view .LVU580
 2758 0260 E907     		lsls	r1, r5, #31	@, whole,
 2759 0262 85D5     		bpl	.L251		@,
 418:src/pdantler/printf.c ****     }
 2760              		.loc 1 418 7 is_stmt 1 view .LVU581
 2761 0264 0135     		adds	r5, r5, #1	@ whole, whole,
 2762              	.LVL274:
 418:src/pdantler/printf.c ****     }
 2763              		.loc 1 418 7 is_stmt 0 view .LVU582
 2764 0266 83E7     		b	.L251		@
 2765              	.LVL275:
 2766              	.L234:
 372:src/pdantler/printf.c **** #else
 2767              		.loc 1 372 5 is_stmt 1 view .LVU583
 2768              	@ src/pdantler/printf.c:372:     return _etoa(out, buffer, idx, maxlen, value, prec, width, flags);
 372:src/pdantler/printf.c **** #else
 2769              		.loc 1 372 12 is_stmt 0 view .LVU584
 2770 0268 049B     		ldr	r3, [sp, #16]	@ flags, %sfp
 2771 026a 5246     		mov	r2, r10	@, idx
 2772 026c 2496     		str	r6, [sp, #144]	@ prec,
 2773              	.LVL276:
 372:src/pdantler/printf.c **** #else
 2774              		.loc 1 372 12 view .LVU585
 2775 026e 2693     		str	r3, [sp, #152]	@ flags,
 2776              	.LVL277:
 372:src/pdantler/printf.c **** #else
 2777              		.loc 1 372 12 view .LVU586
 2778 0270 059B     		ldr	r3, [sp, #20]	@ width, %sfp
 2779 0272 DDE90601 		ldrd	r0, r1, [sp, #24]	@,,,
ARM GAS  /tmp/ccFy9xbE.s 			page 67


 2780 0276 2593     		str	r3, [sp, #148]	@ width,
 2781              	.LVL278:
 372:src/pdantler/printf.c **** #else
 2782              		.loc 1 372 12 view .LVU587
 2783 0278 5B46     		mov	r3, fp	@, maxlen
 2784 027a CDE92289 		strd	r8, [sp, #136]	@ value,,
 2785              	.LVL279:
 2786              	@ src/pdantler/printf.c:469: }
 469:src/pdantler/printf.c **** 
 2787              		.loc 1 469 1 view .LVU588
 2788 027e 15B0     		add	sp, sp, #84	@,,
 2789              	.LCFI42:
 2790              		.cfi_remember_state
 2791              		.cfi_def_cfa_offset 52
 2792              		@ sp needed	@
 2793 0280 BDEC048B 		vldm	sp!, {d8-d9}	@,
 2794              	.LCFI43:
 2795              		.cfi_restore 82
 2796              		.cfi_restore 83
 2797              		.cfi_restore 80
 2798              		.cfi_restore 81
 2799              		.cfi_def_cfa_offset 36
 2800 0284 BDE8F04F 		pop	{r4, r5, r6, r7, r8, r9, r10, fp, lr}	@
 2801              	.LCFI44:
 2802              		.cfi_restore 14
 2803              		.cfi_restore 11
 2804              		.cfi_restore 10
 2805              		.cfi_restore 9
 2806              		.cfi_restore 8
 2807              		.cfi_restore 7
 2808              		.cfi_restore 6
 2809              		.cfi_restore 5
 2810              		.cfi_restore 4
 2811              		.cfi_def_cfa_offset 0
 2812              	.LVL280:
 2813              	@ src/pdantler/printf.c:372:     return _etoa(out, buffer, idx, maxlen, value, prec, width, flags);
 372:src/pdantler/printf.c **** #else
 2814              		.loc 1 372 12 view .LVU589
 2815 0288 FFF7FEBF 		b	_etoa		@
 2816              	.LVL281:
 2817              	.L340:
 2818              	.LCFI45:
 2819              		.cfi_restore_state
 361:src/pdantler/printf.c ****   if (value > DBL_MAX)
 2820              		.loc 1 361 5 is_stmt 1 view .LVU590
 2821              	@ src/pdantler/printf.c:361:     return _out_rev(out, buffer, idx, maxlen, "fni-", 4, width, flags)
 361:src/pdantler/printf.c ****   if (value > DBL_MAX)
 2822              		.loc 1 361 12 is_stmt 0 view .LVU591
 2823 028c 059C     		ldr	r4, [sp, #20]	@ width, %sfp
 2824 028e 5246     		mov	r2, r10	@, idx
 2825 0290 049B     		ldr	r3, [sp, #16]	@ flags, %sfp
 2826 0292 2494     		str	r4, [sp, #144]	@ width,
 2827              	.LVL282:
 361:src/pdantler/printf.c ****   if (value > DBL_MAX)
 2828              		.loc 1 361 12 view .LVU592
 2829 0294 0424     		movs	r4, #4	@ tmp192,
 2830 0296 2593     		str	r3, [sp, #148]	@ flags,
ARM GAS  /tmp/ccFy9xbE.s 			page 68


 2831              	.LVL283:
 361:src/pdantler/printf.c ****   if (value > DBL_MAX)
 2832              		.loc 1 361 12 view .LVU593
 2833 0298 5B46     		mov	r3, fp	@, maxlen
 2834 029a 2394     		str	r4, [sp, #140]	@ tmp192,
 2835              	.LVL284:
 361:src/pdantler/printf.c ****   if (value > DBL_MAX)
 2836              		.loc 1 361 12 view .LVU594
 2837 029c 2E4C     		ldr	r4, .L348+40	@ tmp193,
 2838 029e DDE90601 		ldrd	r0, r1, [sp, #24]	@,,,
 2839 02a2 CAE7     		b	.L337		@
 2840              	.LVL285:
 2841              	.L248:
 361:src/pdantler/printf.c ****   if (value > DBL_MAX)
 2842              		.loc 1 361 12 view .LVU595
 2843 02a4 601E     		subs	r0, r4, #1	@ tmp250, len,
 2844 02a6 089B     		ldr	r3, [sp, #32]	@ tmp312, %sfp
 2845              	.LBB28:
 2846              	@ src/pdantler/printf.c:425:       buf[len++] = (char)(48U + (frac % 10U));
 425:src/pdantler/printf.c ****       if (!(frac /= 10U)) {
 2847              		.loc 1 425 39 view .LVU596
 2848 02a8 DFF8B0E0 		ldr	lr, .L348+44	@ tmp316,
 2849 02ac 1844     		add	r0, r0, r3	@ ivtmp.243, tmp312
 2850 02ae 10E0     		b	.L253		@
 2851              	.LVL286:
 2852              	.L257:
 425:src/pdantler/printf.c ****       if (!(frac /= 10U)) {
 2853              		.loc 1 425 39 view .LVU597
 2854 02b0 AEFB0723 		umull	r2, r3, lr, r7	@ tmp382, tmp237, tmp316, frac
 2855              	@ src/pdantler/printf.c:426:       if (!(frac /= 10U)) {
 426:src/pdantler/printf.c ****         break;
 2856              		.loc 1 426 10 view .LVU598
 2857 02b4 092F     		cmp	r7, #9	@ frac,
 2858              	@ src/pdantler/printf.c:425:       buf[len++] = (char)(48U + (frac % 10U));
 425:src/pdantler/printf.c ****       if (!(frac /= 10U)) {
 2859              		.loc 1 425 39 view .LVU599
 2860 02b6 4FEAD303 		lsr	r3, r3, #3	@ tmp236, tmp237,
 2861 02ba 03EB8302 		add	r2, r3, r3, lsl #2	@ tmp241, tmp236, tmp236,
 2862 02be A7EB4202 		sub	r2, r7, r2, lsl #1	@ tmp243, frac, tmp241,
 2863              	@ src/pdantler/printf.c:426:       if (!(frac /= 10U)) {
 426:src/pdantler/printf.c ****         break;
 2864              		.loc 1 426 18 view .LVU600
 2865 02c2 1F46     		mov	r7, r3	@ frac, tmp236
 2866              	.LVL287:
 2867              	@ src/pdantler/printf.c:425:       buf[len++] = (char)(48U + (frac % 10U));
 425:src/pdantler/printf.c ****       if (!(frac /= 10U)) {
 2868              		.loc 1 425 20 view .LVU601
 2869 02c4 02F13002 		add	r2, r2, #48	@ tmp245, tmp243,
 2870              	@ src/pdantler/printf.c:425:       buf[len++] = (char)(48U + (frac % 10U));
 425:src/pdantler/printf.c ****       if (!(frac /= 10U)) {
 2871              		.loc 1 425 18 view .LVU602
 2872 02c8 00F8012F 		strb	r2, [r0, #1]!	@ tmp245, MEM[base: _30, offset: 0B]
 426:src/pdantler/printf.c ****         break;
 2873              		.loc 1 426 7 is_stmt 1 view .LVU603
 2874              	.LVL288:
 2875              	@ src/pdantler/printf.c:426:       if (!(frac /= 10U)) {
 426:src/pdantler/printf.c ****         break;
ARM GAS  /tmp/ccFy9xbE.s 			page 69


 2876              		.loc 1 426 10 is_stmt 0 view .LVU604
 2877 02cc 6FD9     		bls	.L344		@,
 2878              	@ src/pdantler/printf.c:424:       --count;
 424:src/pdantler/printf.c ****       buf[len++] = (char)(48U + (frac % 10U));
 2879              		.loc 1 424 7 view .LVU605
 2880 02ce 6646     		mov	r6, ip	@ prec, count
 2881              	@ src/pdantler/printf.c:425:       buf[len++] = (char)(48U + (frac % 10U));
 425:src/pdantler/printf.c ****       if (!(frac /= 10U)) {
 2882              		.loc 1 425 14 view .LVU606
 2883 02d0 0C46     		mov	r4, r1	@ len, len
 2884              	.LVL289:
 2885              	.L253:
 424:src/pdantler/printf.c ****       buf[len++] = (char)(48U + (frac % 10U));
 2886              		.loc 1 424 7 is_stmt 1 view .LVU607
 423:src/pdantler/printf.c ****       --count;
 2887              		.loc 1 423 11 view .LVU608
 2888 02d2 202C     		cmp	r4, #32	@ len,
 2889              	@ src/pdantler/printf.c:424:       --count;
 424:src/pdantler/printf.c ****       buf[len++] = (char)(48U + (frac % 10U));
 2890              		.loc 1 424 7 is_stmt 0 view .LVU609
 2891 02d4 06F1FF3C 		add	ip, r6, #-1	@ count, prec,
 2892              	.LVL290:
 425:src/pdantler/printf.c ****       if (!(frac /= 10U)) {
 2893              		.loc 1 425 7 is_stmt 1 view .LVU610
 2894              	@ src/pdantler/printf.c:425:       buf[len++] = (char)(48U + (frac % 10U));
 425:src/pdantler/printf.c ****       if (!(frac /= 10U)) {
 2895              		.loc 1 425 14 is_stmt 0 view .LVU611
 2896 02d8 04F10101 		add	r1, r4, #1	@ len, len,
 2897              	.LVL291:
 2898              	@ src/pdantler/printf.c:423:     while (len < PRINTF_FTOA_BUFFER_SIZE) {
 423:src/pdantler/printf.c ****       --count;
 2899              		.loc 1 423 11 view .LVU612
 2900 02dc E8D1     		bne	.L257		@,
 2901              	.LVL292:
 2902              	.L254:
 423:src/pdantler/printf.c ****       --count;
 2903              		.loc 1 423 11 view .LVU613
 2904              	.LBE28:
 449:src/pdantler/printf.c ****     if (width && (negative || (flags & (FLAGS_PLUS | FLAGS_SPACE)))) {
 2905              		.loc 1 449 3 is_stmt 1 view .LVU614
 2906              	@ src/pdantler/printf.c:449:   if (!(flags & FLAGS_LEFT) && (flags & FLAGS_ZEROPAD)) {
 449:src/pdantler/printf.c ****     if (width && (negative || (flags & (FLAGS_PLUS | FLAGS_SPACE)))) {
 2907              		.loc 1 449 29 is_stmt 0 view .LVU615
 2908 02de 049B     		ldr	r3, [sp, #16]	@ flags, %sfp
 2909              	@ src/pdantler/printf.c:449:   if (!(flags & FLAGS_LEFT) && (flags & FLAGS_ZEROPAD)) {
 449:src/pdantler/printf.c ****     if (width && (negative || (flags & (FLAGS_PLUS | FLAGS_SPACE)))) {
 2910              		.loc 1 449 6 view .LVU616
 2911 02e0 2024     		movs	r4, #32	@ len,
 2912              	@ src/pdantler/printf.c:449:   if (!(flags & FLAGS_LEFT) && (flags & FLAGS_ZEROPAD)) {
 449:src/pdantler/printf.c ****     if (width && (negative || (flags & (FLAGS_PLUS | FLAGS_SPACE)))) {
 2913              		.loc 1 449 29 view .LVU617
 2914 02e2 03F00303 		and	r3, r3, #3	@ tmp277, flags,
 2915              	@ src/pdantler/printf.c:449:   if (!(flags & FLAGS_LEFT) && (flags & FLAGS_ZEROPAD)) {
 449:src/pdantler/printf.c ****     if (width && (negative || (flags & (FLAGS_PLUS | FLAGS_SPACE)))) {
 2916              		.loc 1 449 6 view .LVU618
 2917 02e6 012B     		cmp	r3, #1	@ tmp277,
 2918 02e8 7FF46FAF 		bne	.L263		@,
ARM GAS  /tmp/ccFy9xbE.s 			page 70


 2919              	.LVL293:
 2920              	.L262:
 450:src/pdantler/printf.c ****       width--;
 2921              		.loc 1 450 5 is_stmt 1 view .LVU619
 2922              	@ src/pdantler/printf.c:450:     if (width && (negative || (flags & (FLAGS_PLUS | FLAGS_SPACE)))) {
 450:src/pdantler/printf.c ****       width--;
 2923              		.loc 1 450 8 is_stmt 0 view .LVU620
 2924 02ec 059B     		ldr	r3, [sp, #20]	@ width, %sfp
 2925 02ee 002B     		cmp	r3, #0	@ width
 2926 02f0 3FF45EAF 		beq	.L264	@
 2927              	@ src/pdantler/printf.c:450:     if (width && (negative || (flags & (FLAGS_PLUS | FLAGS_SPACE)))) {
 450:src/pdantler/printf.c ****       width--;
 2928              		.loc 1 450 15 discriminator 1 view .LVU621
 2929 02f4 099B     		ldr	r3, [sp, #36]	@ negative, %sfp
 2930 02f6 1BB9     		cbnz	r3, .L265	@ negative,
 2931              	@ src/pdantler/printf.c:450:     if (width && (negative || (flags & (FLAGS_PLUS | FLAGS_SPACE)))) {
 450:src/pdantler/printf.c ****       width--;
 2932              		.loc 1 450 28 discriminator 2 view .LVU622
 2933 02f8 049B     		ldr	r3, [sp, #16]	@ flags, %sfp
 2934 02fa 13F00C0F 		tst	r3, #12	@ flags,
 2935 02fe 02D0     		beq	.L266		@,
 2936              	.L265:
 451:src/pdantler/printf.c ****     }
 2937              		.loc 1 451 7 is_stmt 1 view .LVU623
 2938              	@ src/pdantler/printf.c:451:       width--;
 451:src/pdantler/printf.c ****     }
 2939              		.loc 1 451 12 is_stmt 0 view .LVU624
 2940 0300 059B     		ldr	r3, [sp, #20]	@ width, %sfp
 2941 0302 013B     		subs	r3, r3, #1	@ width, width,
 2942 0304 0593     		str	r3, [sp, #20]	@ width, %sfp
 2943              	.LVL294:
 2944              	.L266:
 453:src/pdantler/printf.c ****       buf[len++] = '0';
 2945              		.loc 1 453 11 is_stmt 1 view .LVU625
 2946 0306 1F2C     		cmp	r4, #31	@ len,
 2947 0308 3FF652AF 		bhi	.L264		@,
 2948 030c 059B     		ldr	r3, [sp, #20]	@ width, %sfp
 2949 030e A342     		cmp	r3, r4	@ width, len
 2950 0310 7FF64EAF 		bls	.L264		@,
 2951 0314 089A     		ldr	r2, [sp, #32]	@ tmp312, %sfp
 2952 0316 631E     		subs	r3, r4, #1	@ tmp281, len,
 2953              	@ src/pdantler/printf.c:454:       buf[len++] = '0';
 454:src/pdantler/printf.c ****     }
 2954              		.loc 1 454 18 is_stmt 0 view .LVU626
 2955 0318 0599     		ldr	r1, [sp, #20]	@ width, %sfp
 2956 031a 1344     		add	r3, r3, r2	@ ivtmp.218, tmp312
 2957 031c 3022     		movs	r2, #48	@ tmp282,
 2958              	.L267:
 454:src/pdantler/printf.c ****     }
 2959              		.loc 1 454 7 is_stmt 1 view .LVU627
 2960              	@ src/pdantler/printf.c:454:       buf[len++] = '0';
 454:src/pdantler/printf.c ****     }
 2961              		.loc 1 454 14 is_stmt 0 view .LVU628
 2962 031e 0134     		adds	r4, r4, #1	@ len, len,
 2963              	.LVL295:
 2964              	@ src/pdantler/printf.c:454:       buf[len++] = '0';
 454:src/pdantler/printf.c ****     }
ARM GAS  /tmp/ccFy9xbE.s 			page 71


 2965              		.loc 1 454 18 view .LVU629
 2966 0320 03F8012F 		strb	r2, [r3, #1]!	@ tmp282, MEM[base: _189, offset: 0B]
 453:src/pdantler/printf.c ****       buf[len++] = '0';
 2967              		.loc 1 453 11 is_stmt 1 view .LVU630
 2968 0324 8C42     		cmp	r4, r1	@ len, width
 2969 0326 BFF443AF 		bcs	.L264		@,
 2970 032a 1F2C     		cmp	r4, #31	@ len,
 2971 032c F7D9     		bls	.L267		@,
 2972 032e 3FE7     		b	.L264		@
 2973              	.L349:
 2974              		.align	3
 2975              	.L348:
 2976 0330 00000000 		.word	0
 2977 0334 65CDCD41 		.word	1104006501
 2978 0338 00000000 		.word	0
 2979 033c 65CDCDC1 		.word	-1043477147
 2980 0340 FFFFEF7F 		.word	2146435071
 2981 0344 0000E03F 		.word	1071644672
 2982 0348 67666666 		.word	1717986919
 2983 034c 08000000 		.word	.LC1
 2984 0350 00000000 		.word	.LC0
 2985 0354 0C000000 		.word	.LC2
 2986 0358 10000000 		.word	.LC3
 2987 035c CDCCCCCC 		.word	-858993459
 2988              	.LVL296:
 2989              	.L331:
 407:src/pdantler/printf.c ****   } else if ((frac == 0U) || (frac & 1U)) {
 2990              		.loc 1 407 10 view .LVU631
 2991              	@ src/pdantler/printf.c:407:   } else if (diff < 0.5) {
 407:src/pdantler/printf.c ****   } else if ((frac == 0U) || (frac & 1U)) {
 2992              		.loc 1 407 13 is_stmt 0 view .LVU632
 2993 0360 DDE90A01 		ldrd	r0, [sp, #40]	@,,
 2994 0364 0022     		movs	r2, #0	@,
 2995 0366 2C4B     		ldr	r3, .L350+8	@,
 2996 0368 FFF7FEFF 		bl	__aeabi_dcmplt		@
 2997              	.LVL297:
 2998 036c 0028     		cmp	r0, #0	@ tmp339
 2999 036e 7FF4E3AE 		bne	.L245	@
 408:src/pdantler/printf.c ****     // if halfway, round up if odd OR if last digit is 0
 3000              		.loc 1 408 10 is_stmt 1 view .LVU633
 3001              	@ src/pdantler/printf.c:408:   } else if ((frac == 0U) || (frac & 1U)) {
 408:src/pdantler/printf.c ****     // if halfway, round up if odd OR if last digit is 0
 3002              		.loc 1 408 13 is_stmt 0 view .LVU634
 3003 0372 002F     		cmp	r7, #0	@ frac
 3004 0374 37D1     		bne	.L345	@
 3005              	.L247:
 410:src/pdantler/printf.c ****   }
 3006              		.loc 1 410 5 is_stmt 1 view .LVU635
 3007 0376 0137     		adds	r7, r7, #1	@ frac, frac,
 3008              	.LVL298:
 410:src/pdantler/printf.c ****   }
 3009              		.loc 1 410 5 is_stmt 0 view .LVU636
 3010 0378 DEE6     		b	.L245		@
 3011              	.LVL299:
 3012              	.L275:
 410:src/pdantler/printf.c ****   }
 3013              		.loc 1 410 5 view .LVU637
ARM GAS  /tmp/ccFy9xbE.s 			page 72


 3014 037a 9FED257B 		vldr.64	d7, .L350	@ prephitmp_123,
 3015 037e 0CAB     		add	r3, sp, #48	@ tmp312,,
 3016              	@ src/pdantler/printf.c:387:     prec = PRINTF_DEFAULT_FLOAT_PRECISION;
 387:src/pdantler/printf.c ****   }
 3017              		.loc 1 387 10 view .LVU638
 3018 0380 0626     		movs	r6, #6	@ prec,
 3019 0382 B0EE478A 		vmov.f32	s16, s14	@ prephitmp_123, prephitmp_123
 3020 0386 F0EE678A 		vmov.f32	s17, s15	@ prephitmp_123, prephitmp_123
 3021 038a 0893     		str	r3, [sp, #32]	@ tmp312, %sfp
 3022 038c 9EE6     		b	.L239		@
 3023              	.LVL300:
 3024              	.L271:
 461:src/pdantler/printf.c ****       buf[len++] = '+'; // ignore the space if the '+' exists
 3025              		.loc 1 461 12 is_stmt 1 view .LVU639
 3026              	@ src/pdantler/printf.c:461:     } else if (flags & FLAGS_PLUS) {
 461:src/pdantler/printf.c ****       buf[len++] = '+'; // ignore the space if the '+' exists
 3027              		.loc 1 461 15 is_stmt 0 view .LVU640
 3028 038e 049B     		ldr	r3, [sp, #16]	@ flags, %sfp
 3029 0390 5A07     		lsls	r2, r3, #29	@, flags,
 3030 0392 26D4     		bmi	.L346		@,
 463:src/pdantler/printf.c ****       buf[len++] = ' ';
 3031              		.loc 1 463 12 is_stmt 1 view .LVU641
 3032              	@ src/pdantler/printf.c:463:     } else if (flags & FLAGS_SPACE) {
 463:src/pdantler/printf.c ****       buf[len++] = ' ';
 3033              		.loc 1 463 15 is_stmt 0 view .LVU642
 3034 0394 049B     		ldr	r3, [sp, #16]	@ flags, %sfp
 3035 0396 1B07     		lsls	r3, r3, #28	@, flags,
 3036 0398 7FF517AF 		bpl	.L263		@,
 464:src/pdantler/printf.c ****     }
 3037              		.loc 1 464 7 is_stmt 1 view .LVU643
 3038              	.LVL301:
 3039              	@ src/pdantler/printf.c:464:       buf[len++] = ' ';
 464:src/pdantler/printf.c ****     }
 3040              		.loc 1 464 18 is_stmt 0 view .LVU644
 3041 039c 2022     		movs	r2, #32	@ tmp305,
 3042 039e 04F13003 		add	r3, r4, #48	@ tmp426, len,
 3043 03a2 0134     		adds	r4, r4, #1	@ len, len,
 3044              	.LVL302:
 464:src/pdantler/printf.c ****     }
 3045              		.loc 1 464 18 view .LVU645
 3046 03a4 1344     		add	r3, r3, r2	@ tmp435,
 3047 03a6 6B44     		add	r3, sp, r3	@ tmp304,, tmp435
 3048 03a8 03F8202C 		strb	r2, [r3, #-32]	@ tmp305, buf[len_39]
 3049 03ac 0DE7     		b	.L263		@
 3050              	.LVL303:
 3051              	.L344:
 3052              	.LBB29:
 431:src/pdantler/printf.c ****       buf[len++] = '0';
 3053              		.loc 1 431 11 is_stmt 1 view .LVU646
 3054 03ae 2029     		cmp	r1, #32	@ len,
 3055 03b0 95D0     		beq	.L254		@,
 3056              	.LVL304:
 3057              	@ src/pdantler/printf.c:431:     while ((len < PRINTF_FTOA_BUFFER_SIZE) && (count-- > 0U)) {
 431:src/pdantler/printf.c ****       buf[len++] = '0';
 3058              		.loc 1 431 44 is_stmt 0 view .LVU647
 3059 03b2 BCF1000F 		cmp	ip, #0	@ count
 3060 03b6 27D0     		beq	.L347	@
ARM GAS  /tmp/ccFy9xbE.s 			page 73


 3061 03b8 089B     		ldr	r3, [sp, #32]	@ tmp312, %sfp
 3062              	.LVL305:
 3063              	@ src/pdantler/printf.c:432:       buf[len++] = '0';
 432:src/pdantler/printf.c ****     }
 3064              		.loc 1 432 18 view .LVU648
 3065 03ba 3020     		movs	r0, #48	@ tmp252,
 3066 03bc 1A19     		adds	r2, r3, r4	@ ivtmp.233, tmp312, len
 3067              	@ src/pdantler/printf.c:431:     while ((len < PRINTF_FTOA_BUFFER_SIZE) && (count-- > 0U)) {
 431:src/pdantler/printf.c ****       buf[len++] = '0';
 3068              		.loc 1 431 44 view .LVU649
 3069 03be 0C46     		mov	r4, r1	@ len, len
 3070              	.LVL306:
 3071              	.L258:
 432:src/pdantler/printf.c ****     }
 3072              		.loc 1 432 7 is_stmt 1 view .LVU650
 3073              	@ src/pdantler/printf.c:432:       buf[len++] = '0';
 432:src/pdantler/printf.c ****     }
 3074              		.loc 1 432 14 is_stmt 0 view .LVU651
 3075 03c0 0134     		adds	r4, r4, #1	@ len, len,
 3076              	.LVL307:
 3077              	@ src/pdantler/printf.c:432:       buf[len++] = '0';
 432:src/pdantler/printf.c ****     }
 3078              		.loc 1 432 18 view .LVU652
 3079 03c2 02F8010F 		strb	r0, [r2, #1]!	@ tmp252, MEM[base: _56, offset: 0B]
 3080              	.LVL308:
 431:src/pdantler/printf.c ****       buf[len++] = '0';
 3081              		.loc 1 431 11 is_stmt 1 view .LVU653
 3082              	@ src/pdantler/printf.c:431:     while ((len < PRINTF_FTOA_BUFFER_SIZE) && (count-- > 0U)) {
 431:src/pdantler/printf.c ****       buf[len++] = '0';
 3083              		.loc 1 431 44 is_stmt 0 view .LVU654
 3084 03c6 E343     		mvns	r3, r4	@ tmp254, len
 3085              	@ src/pdantler/printf.c:431:     while ((len < PRINTF_FTOA_BUFFER_SIZE) && (count-- > 0U)) {
 431:src/pdantler/printf.c ****       buf[len++] = '0';
 3086              		.loc 1 431 11 view .LVU655
 3087 03c8 202C     		cmp	r4, #32	@ len,
 3088              	@ src/pdantler/printf.c:431:     while ((len < PRINTF_FTOA_BUFFER_SIZE) && (count-- > 0U)) {
 431:src/pdantler/printf.c ****       buf[len++] = '0';
 3089              		.loc 1 431 44 view .LVU656
 3090 03ca 0B44     		add	r3, r3, r1	@ tmp255, len
 3091              	@ src/pdantler/printf.c:431:     while ((len < PRINTF_FTOA_BUFFER_SIZE) && (count-- > 0U)) {
 431:src/pdantler/printf.c ****       buf[len++] = '0';
 3092              		.loc 1 431 11 view .LVU657
 3093 03cc 87D0     		beq	.L254		@,
 3094              	@ src/pdantler/printf.c:431:     while ((len < PRINTF_FTOA_BUFFER_SIZE) && (count-- > 0U)) {
 431:src/pdantler/printf.c ****       buf[len++] = '0';
 3095              		.loc 1 431 44 discriminator 1 view .LVU658
 3096 03ce F342     		cmn	r3, r6	@ tmp255, prec
 3097 03d0 F6D1     		bne	.L258		@,
 3098              	.L256:
 434:src/pdantler/printf.c ****       // add decimal
 3099              		.loc 1 434 5 is_stmt 1 view .LVU659
 436:src/pdantler/printf.c ****     }
 3100              		.loc 1 436 7 view .LVU660
 3101              	@ src/pdantler/printf.c:436:       buf[len++] = '.';
 436:src/pdantler/printf.c ****     }
 3102              		.loc 1 436 18 is_stmt 0 view .LVU661
 3103 03d2 04F15003 		add	r3, r4, #80	@ tmp438, len,
ARM GAS  /tmp/ccFy9xbE.s 			page 74


 3104 03d6 2E22     		movs	r2, #46	@ tmp310,
 3105              	@ src/pdantler/printf.c:436:       buf[len++] = '.';
 436:src/pdantler/printf.c ****     }
 3106              		.loc 1 436 14 view .LVU662
 3107 03d8 0134     		adds	r4, r4, #1	@ len, len,
 3108              	.LVL309:
 3109              	@ src/pdantler/printf.c:436:       buf[len++] = '.';
 436:src/pdantler/printf.c ****     }
 3110              		.loc 1 436 18 view .LVU663
 3111 03da 6B44     		add	r3, sp, r3	@ tmp309,, tmp438
 3112 03dc 03F8202C 		strb	r2, [r3, #-32]	@ tmp310, buf[len_205]
 3113 03e0 C6E6     		b	.L251		@
 3114              	.LVL310:
 3115              	.L346:
 436:src/pdantler/printf.c ****     }
 3116              		.loc 1 436 18 view .LVU664
 3117              	.LBE29:
 462:src/pdantler/printf.c ****     } else if (flags & FLAGS_SPACE) {
 3118              		.loc 1 462 7 is_stmt 1 view .LVU665
 3119              	@ src/pdantler/printf.c:462:       buf[len++] = '+'; // ignore the space if the '+' exists
 462:src/pdantler/printf.c ****     } else if (flags & FLAGS_SPACE) {
 3120              		.loc 1 462 18 is_stmt 0 view .LVU666
 3121 03e2 2B22     		movs	r2, #43	@ tmp301,
 3122 03e4 EBE6     		b	.L336		@
 3123              	.LVL311:
 3124              	.L345:
 3125              	@ src/pdantler/printf.c:408:   } else if ((frac == 0U) || (frac & 1U)) {
 408:src/pdantler/printf.c ****     // if halfway, round up if odd OR if last digit is 0
 3126              		.loc 1 408 27 discriminator 1 view .LVU667
 3127 03e6 F807     		lsls	r0, r7, #31	@, frac,
 3128 03e8 7FF5A6AE 		bpl	.L245		@,
 3129 03ec C3E7     		b	.L247		@
 3130              	.LVL312:
 3131              	.L343:
 3132              	@ src/pdantler/printf.c:396:   double tmp = (value - whole) * pow10[prec];
 396:src/pdantler/printf.c ****   unsigned long frac = (unsigned long)tmp;
 3133              		.loc 1 396 39 view .LVU668
 3134 03ee 0B4B     		ldr	r3, .L350+12	@ tmp204,
 3135 03f0 0CAA     		add	r2, sp, #48	@ tmp312,,
 3136 03f2 0024     		movs	r4, #0	@ len,
 3137 03f4 03EBC603 		add	r3, r3, r6, lsl #3	@ tmp206, tmp204, prec,
 3138 03f8 0892     		str	r2, [sp, #32]	@ tmp312, %sfp
 3139 03fa 93ED007B 		vldr.64	d7, [r3]	@ prephitmp_123, pow10[prec_63(D)]
 3140 03fe B0EE478A 		vmov.f32	s16, s14	@ prephitmp_123, prephitmp_123
 3141 0402 F0EE678A 		vmov.f32	s17, s15	@ prephitmp_123, prephitmp_123
 3142 0406 61E6     		b	.L239		@
 3143              	.LVL313:
 3144              	.L347:
 3145              	.LBB30:
 3146              	@ src/pdantler/printf.c:431:     while ((len < PRINTF_FTOA_BUFFER_SIZE) && (count-- > 0U)) {
 431:src/pdantler/printf.c ****       buf[len++] = '0';
 3147              		.loc 1 431 44 view .LVU669
 3148 0408 0C46     		mov	r4, r1	@ len, len
 3149 040a E2E7     		b	.L256		@
 3150              	.L351:
 3151 040c AFF30080 		.align	3
 3152              	.L350:
ARM GAS  /tmp/ccFy9xbE.s 			page 75


 3153 0410 00000000 		.word	0
 3154 0414 80842E41 		.word	1093567616
 3155 0418 0000E03F 		.word	1071644672
 3156 041c 00000000 		.word	.LANCHOR0
 3157              	.LBE30:
 3158              		.cfi_endproc
 3159              	.LFE11:
 3160              		.size	_ftoa, .-_ftoa
 3161              		.section	.text._out_char,"ax",%progbits
 3162              		.align	1
 3163              		.p2align 4,,15
 3164              		.syntax unified
 3165              		.thumb
 3166              		.thumb_func
 3167              		.fpu fpv5-sp-d16
 3168              		.type	_out_char, %function
 3169              	_out_char:
 3170              	.LVL314:
 3171              	.LFB2:
 147:src/pdantler/printf.c ****   (void)buffer;
 3172              		.loc 1 147 45 is_stmt 1 view -0
 3173              		.cfi_startproc
 3174              		@ args = 0, pretend = 0, frame = 0
 3175              		@ frame_needed = 0, uses_anonymous_args = 0
 3176              		@ link register save eliminated.
 148:src/pdantler/printf.c ****   (void)idx;
 3177              		.loc 1 148 3 view .LVU671
 149:src/pdantler/printf.c ****   (void)maxlen;
 3178              		.loc 1 149 3 view .LVU672
 150:src/pdantler/printf.c ****   if (character) {
 3179              		.loc 1 150 3 view .LVU673
 151:src/pdantler/printf.c ****     _putchar(character);
 3180              		.loc 1 151 3 view .LVU674
 3181              	@ src/pdantler/printf.c:151:   if (character) {
 151:src/pdantler/printf.c ****     _putchar(character);
 3182              		.loc 1 151 6 is_stmt 0 view .LVU675
 3183 0000 00B9     		cbnz	r0, .L354	@ tmp117,
 3184              	@ src/pdantler/printf.c:154: }
 154:src/pdantler/printf.c **** 
 3185              		.loc 1 154 1 view .LVU676
 3186 0002 7047     		bx	lr	@
 3187              	.L354:
 152:src/pdantler/printf.c ****   }
 3188              		.loc 1 152 5 is_stmt 1 view .LVU677
 3189 0004 FFF7FEBF 		b	_putchar		@
 3190              	.LVL315:
 152:src/pdantler/printf.c ****   }
 3191              		.loc 1 152 5 is_stmt 0 view .LVU678
 3192              		.cfi_endproc
 3193              	.LFE2:
 3194              		.size	_out_char, .-_out_char
 3195              		.section	.text._out_fct,"ax",%progbits
 3196              		.align	1
 3197              		.p2align 4,,15
 3198              		.syntax unified
 3199              		.thumb
 3200              		.thumb_func
ARM GAS  /tmp/ccFy9xbE.s 			page 76


 3201              		.fpu fpv5-sp-d16
 3202              		.type	_out_fct, %function
 3203              	_out_fct:
 3204              	.LVL316:
 3205              	.LFB3:
 158:src/pdantler/printf.c ****   (void)idx;
 3206              		.loc 1 158 44 is_stmt 1 view -0
 3207              		.cfi_startproc
 3208              		@ args = 0, pretend = 0, frame = 0
 3209              		@ frame_needed = 0, uses_anonymous_args = 0
 3210              		@ link register save eliminated.
 159:src/pdantler/printf.c ****   (void)maxlen;
 3211              		.loc 1 159 3 view .LVU680
 160:src/pdantler/printf.c ****   if (character) {
 3212              		.loc 1 160 3 view .LVU681
 161:src/pdantler/printf.c ****     // buffer is the output fct pointer
 3213              		.loc 1 161 3 view .LVU682
 3214              	@ src/pdantler/printf.c:161:   if (character) {
 161:src/pdantler/printf.c ****     // buffer is the output fct pointer
 3215              		.loc 1 161 6 is_stmt 0 view .LVU683
 3216 0000 10B1     		cbz	r0, .L355	@ tmp121,
 3217              	.LVL317:
 3218              	.LBB33:
 3219              	.LBI33:
 157:src/pdantler/printf.c ****                             size_t maxlen) {
 3220              		.loc 1 157 20 is_stmt 1 view .LVU684
 3221              	.LBB34:
 163:src/pdantler/printf.c ****         ->fct(character, ((out_fct_wrap_type *)buffer)->arg);
 3222              		.loc 1 163 5 view .LVU685
 3223              	@ src/pdantler/printf.c:163:     ((out_fct_wrap_type *)buffer)
 163:src/pdantler/printf.c ****         ->fct(character, ((out_fct_wrap_type *)buffer)->arg);
 3224              		.loc 1 163 6 is_stmt 0 view .LVU686
 3225 0002 D1E90031 		ldrd	r3, r1, [r1]	@ MEM[(struct out_fct_wrap_type *)buffer_3(D)].fct,, buffer
 3226              	.LVL318:
 163:src/pdantler/printf.c ****         ->fct(character, ((out_fct_wrap_type *)buffer)->arg);
 3227              		.loc 1 163 6 view .LVU687
 3228 0006 1847     		bx	r3	@ indirect register sibling call	@ MEM[(struct out_fct_wrap_type *)buffer_3(D)].fct
 3229              	.LVL319:
 3230              	.L355:
 163:src/pdantler/printf.c ****         ->fct(character, ((out_fct_wrap_type *)buffer)->arg);
 3231              		.loc 1 163 6 view .LVU688
 3232              	.LBE34:
 3233              	.LBE33:
 3234              	@ src/pdantler/printf.c:166: }
 166:src/pdantler/printf.c **** 
 3235              		.loc 1 166 1 view .LVU689
 3236 0008 7047     		bx	lr	@
 3237              		.cfi_endproc
 3238              	.LFE3:
 3239              		.size	_out_fct, .-_out_fct
 3240 000a 00BF     		.section	.text._vsnprintf,"ax",%progbits
 3241              		.align	1
 3242              		.p2align 4,,15
 3243              		.syntax unified
 3244              		.thumb
 3245              		.thumb_func
 3246              		.fpu fpv5-sp-d16
ARM GAS  /tmp/ccFy9xbE.s 			page 77


 3247              		.type	_vsnprintf, %function
 3248              	_vsnprintf:
 3249              	.LVL320:
 3250              	.LFB13:
 587:src/pdantler/printf.c **** #endif // PRINTF_SUPPORT_EXPONENTIAL
 588:src/pdantler/printf.c **** #endif // PRINTF_SUPPORT_FLOAT
 589:src/pdantler/printf.c **** 
 590:src/pdantler/printf.c **** // internal vsnprintf
 591:src/pdantler/printf.c **** static int _vsnprintf(out_fct_type out, char *buffer, const size_t maxlen,
 592:src/pdantler/printf.c ****                       const char *format, va_list va) {
 3251              		.loc 1 592 55 is_stmt 1 view -0
 3252              		.cfi_startproc
 3253              		@ args = 4, pretend = 0, frame = 24
 3254              		@ frame_needed = 0, uses_anonymous_args = 0
 3255              		.loc 1 592 55 is_stmt 0 view .LVU691
 3256 0000 2DE9F04F 		push	{r4, r5, r6, r7, r8, r9, r10, fp, lr}	@
 3257              	.LCFI46:
 3258              		.cfi_def_cfa_offset 36
 3259              		.cfi_offset 4, -36
 3260              		.cfi_offset 5, -32
 3261              		.cfi_offset 6, -28
 3262              		.cfi_offset 7, -24
 3263              		.cfi_offset 8, -20
 3264              		.cfi_offset 9, -16
 3265              		.cfi_offset 10, -12
 3266              		.cfi_offset 11, -8
 3267              		.cfi_offset 14, -4
 3268 0004 1C46     		mov	r4, r3	@ format, tmp386
 3269              	@ src/pdantler/printf.c:598:     out = _out_null;
 593:src/pdantler/printf.c ****   unsigned int flags, width, precision, n;
 594:src/pdantler/printf.c ****   size_t idx = 0U;
 595:src/pdantler/printf.c **** 
 596:src/pdantler/printf.c ****   if (!buffer) {
 597:src/pdantler/printf.c ****     // use null output function
 598:src/pdantler/printf.c ****     out = _out_null;
 3270              		.loc 1 598 9 view .LVU692
 3271 0006 B1F1000A 		subs	r10, r1, #0	@ buffer, tmp384
 3272              	@ src/pdantler/printf.c:592:                       const char *format, va_list va) {
 592:src/pdantler/printf.c ****   unsigned int flags, width, precision, n;
 3273              		.loc 1 592 55 view .LVU693
 3274 000a 91B0     		sub	sp, sp, #68	@,,
 3275              	.LCFI47:
 3276              		.cfi_def_cfa_offset 104
 3277              	@ src/pdantler/printf.c:598:     out = _out_null;
 3278              		.loc 1 598 9 view .LVU694
 3279 000c 7E4B     		ldr	r3, .L514	@ tmp374,
 3280              	.LVL321:
 3281              		.loc 1 598 9 view .LVU695
 3282 000e 18BF     		it	ne
 3283 0010 8346     		movne	fp, r0	@ out, tmp383
 3284              	@ src/pdantler/printf.c:601:   while (*format) {
 599:src/pdantler/printf.c ****   }
 600:src/pdantler/printf.c **** 
 601:src/pdantler/printf.c ****   while (*format) {
 3285              		.loc 1 601 10 view .LVU696
 3286 0012 2078     		ldrb	r0, [r4]	@ zero_extendqisi2	@ _109, *format_350(D)
 3287              	.LVL322:
ARM GAS  /tmp/ccFy9xbE.s 			page 78


 3288              	@ src/pdantler/printf.c:592:                       const char *format, va_list va) {
 592:src/pdantler/printf.c ****   unsigned int flags, width, precision, n;
 3289              		.loc 1 592 55 view .LVU697
 3290 0014 9146     		mov	r9, r2	@ maxlen, tmp385
 3291 0016 1A9E     		ldr	r6, [sp, #104]	@ D.6560, va
 3292              	.LVL323:
 593:src/pdantler/printf.c ****   size_t idx = 0U;
 3293              		.loc 1 593 3 is_stmt 1 view .LVU698
 594:src/pdantler/printf.c **** 
 3294              		.loc 1 594 3 view .LVU699
 596:src/pdantler/printf.c ****     // use null output function
 3295              		.loc 1 596 3 view .LVU700
 3296              	@ src/pdantler/printf.c:598:     out = _out_null;
 598:src/pdantler/printf.c ****   }
 3297              		.loc 1 598 9 is_stmt 0 view .LVU701
 3298 0018 08BF     		it	eq
 3299 001a 9B46     		moveq	fp, r3	@ out, tmp374
 3300              	.LVL324:
 3301              		.loc 1 601 9 is_stmt 1 view .LVU702
 3302 001c 0028     		cmp	r0, #0	@ _109
 3303 001e 00F06482 		beq	.L486	@
 3304 0022 4FF00008 		mov	r8, #0	@ idx,
 3305 0026 0BE0     		b	.L437		@
 3306              	.LVL325:
 3307              	.L496:
 602:src/pdantler/printf.c ****     // format specifier?  %[flags][width][.precision][length]
 603:src/pdantler/printf.c ****     if (*format != '%') {
 604:src/pdantler/printf.c ****       // no
 605:src/pdantler/printf.c ****       out(*format, buffer, idx++, maxlen);
 3308              		.loc 1 605 7 view .LVU703
 3309 0028 08F10101 		add	r1, r8, #1	@ idx, idx,
 3310              	.LVL326:
 3311              		.loc 1 605 7 is_stmt 0 view .LVU704
 3312 002c 4246     		mov	r2, r8	@, idx
 3313 002e 4B46     		mov	r3, r9	@, maxlen
 3314              	@ src/pdantler/printf.c:606:       format++;
 606:src/pdantler/printf.c ****       format++;
 3315              		.loc 1 606 13 view .LVU705
 3316 0030 0134     		adds	r4, r4, #1	@ format, format,
 3317              	.LVL327:
 3318              	@ src/pdantler/printf.c:605:       out(*format, buffer, idx++, maxlen);
 605:src/pdantler/printf.c ****       format++;
 3319              		.loc 1 605 7 view .LVU706
 3320 0032 8846     		mov	r8, r1	@ idx, idx
 3321 0034 5146     		mov	r1, r10	@, buffer
 3322              	.LVL328:
 605:src/pdantler/printf.c ****       format++;
 3323              		.loc 1 605 7 view .LVU707
 3324 0036 D847     		blx	fp		@ out
 3325              	.LVL329:
 3326              		.loc 1 606 7 is_stmt 1 view .LVU708
 607:src/pdantler/printf.c ****       continue;
 3327              		.loc 1 607 7 view .LVU709
 3328              	.L360:
 601:src/pdantler/printf.c ****     // format specifier?  %[flags][width][.precision][length]
 3329              		.loc 1 601 9 view .LVU710
 3330              	@ src/pdantler/printf.c:601:   while (*format) {
ARM GAS  /tmp/ccFy9xbE.s 			page 79


 601:src/pdantler/printf.c ****     // format specifier?  %[flags][width][.precision][length]
 3331              		.loc 1 601 10 is_stmt 0 view .LVU711
 3332 0038 2078     		ldrb	r0, [r4]	@ zero_extendqisi2	@ _109, *format_7
 3333              	@ src/pdantler/printf.c:601:   while (*format) {
 601:src/pdantler/printf.c ****     // format specifier?  %[flags][width][.precision][length]
 3334              		.loc 1 601 9 view .LVU712
 3335 003a 0028     		cmp	r0, #0	@ _109
 3336 003c 00F0AB80 		beq	.L495	@
 3337              	.LVL330:
 3338              	.L437:
 603:src/pdantler/printf.c ****       // no
 3339              		.loc 1 603 5 is_stmt 1 view .LVU713
 3340              	@ src/pdantler/printf.c:603:     if (*format != '%') {
 603:src/pdantler/printf.c ****       // no
 3341              		.loc 1 603 8 is_stmt 0 view .LVU714
 3342 0040 2528     		cmp	r0, #37	@ _109,
 3343 0042 F1D1     		bne	.L496		@,
 608:src/pdantler/printf.c ****     } else {
 609:src/pdantler/printf.c ****       // yes, evaluate it
 610:src/pdantler/printf.c ****       format++;
 3344              		.loc 1 610 7 is_stmt 1 view .LVU715
 3345              	.LVL331:
 611:src/pdantler/printf.c ****     }
 612:src/pdantler/printf.c **** 
 613:src/pdantler/printf.c ****     // evaluate flags
 614:src/pdantler/printf.c ****     flags = 0U;
 3346              		.loc 1 614 5 view .LVU716
 3347              	@ src/pdantler/printf.c:610:       format++;
 610:src/pdantler/printf.c ****     }
 3348              		.loc 1 610 13 is_stmt 0 view .LVU717
 3349 0044 631C     		adds	r3, r4, #1	@ ivtmp.328, format,
 3350              	.LVL332:
 3351              	@ src/pdantler/printf.c:614:     flags = 0U;
 3352              		.loc 1 614 11 view .LVU718
 3353 0046 4FF0000C 		mov	ip, #0	@ flags,
 3354              	.LVL333:
 3355              	.L361:
 3356              		.loc 1 614 11 view .LVU719
 3357 004a 1C46     		mov	r4, r3	@ format, ivtmp.328
 3358              	.LVL334:
 615:src/pdantler/printf.c ****     do {
 3359              		.loc 1 615 5 is_stmt 1 view .LVU720
 616:src/pdantler/printf.c ****       switch (*format) {
 3360              		.loc 1 616 7 view .LVU721
 3361              	@ src/pdantler/printf.c:616:       switch (*format) {
 3362              		.loc 1 616 15 is_stmt 0 view .LVU722
 3363 004c 13F8010B 		ldrb	r0, [r3], #1	@ zero_extendqisi2	@ prephitmp_372, MEM[base: format_342, offset: 0B]
 3364              	@ src/pdantler/printf.c:616:       switch (*format) {
 3365              		.loc 1 616 7 view .LVU723
 3366 0050 A0F12002 		sub	r2, r0, #32	@ tmp257, prephitmp_372,
 3367 0054 102A     		cmp	r2, #16	@ tmp257,
 3368 0056 0AD8     		bhi	.L362		@
 3369 0058 DFE802F0 		tbb	[pc, r2]	@ tmp257
 3370              	.L364:
 3371 005c 9A       		.byte	(.L368-.L364)/2
 3372 005d 09       		.byte	(.L362-.L364)/2
 3373 005e 09       		.byte	(.L362-.L364)/2
ARM GAS  /tmp/ccFy9xbE.s 			page 80


 3374 005f 97       		.byte	(.L367-.L364)/2
 3375 0060 09       		.byte	(.L362-.L364)/2
 3376 0061 09       		.byte	(.L362-.L364)/2
 3377 0062 09       		.byte	(.L362-.L364)/2
 3378 0063 09       		.byte	(.L362-.L364)/2
 3379 0064 09       		.byte	(.L362-.L364)/2
 3380 0065 09       		.byte	(.L362-.L364)/2
 3381 0066 09       		.byte	(.L362-.L364)/2
 3382 0067 94       		.byte	(.L366-.L364)/2
 3383 0068 09       		.byte	(.L362-.L364)/2
 3384 0069 91       		.byte	(.L365-.L364)/2
 3385 006a 09       		.byte	(.L362-.L364)/2
 3386 006b 09       		.byte	(.L362-.L364)/2
 3387 006c 8E       		.byte	(.L363-.L364)/2
 3388 006d 00       		.p2align 1
 3389              	.L362:
 3390              	.LVL335:
 617:src/pdantler/printf.c ****       case '0':
 618:src/pdantler/printf.c ****         flags |= FLAGS_ZEROPAD;
 619:src/pdantler/printf.c ****         format++;
 620:src/pdantler/printf.c ****         n = 1U;
 621:src/pdantler/printf.c ****         break;
 622:src/pdantler/printf.c ****       case '-':
 623:src/pdantler/printf.c ****         flags |= FLAGS_LEFT;
 624:src/pdantler/printf.c ****         format++;
 625:src/pdantler/printf.c ****         n = 1U;
 626:src/pdantler/printf.c ****         break;
 627:src/pdantler/printf.c ****       case '+':
 628:src/pdantler/printf.c ****         flags |= FLAGS_PLUS;
 629:src/pdantler/printf.c ****         format++;
 630:src/pdantler/printf.c ****         n = 1U;
 631:src/pdantler/printf.c ****         break;
 632:src/pdantler/printf.c ****       case ' ':
 633:src/pdantler/printf.c ****         flags |= FLAGS_SPACE;
 634:src/pdantler/printf.c ****         format++;
 635:src/pdantler/printf.c ****         n = 1U;
 636:src/pdantler/printf.c ****         break;
 637:src/pdantler/printf.c ****       case '#':
 638:src/pdantler/printf.c ****         flags |= FLAGS_HASH;
 639:src/pdantler/printf.c ****         format++;
 640:src/pdantler/printf.c ****         n = 1U;
 641:src/pdantler/printf.c ****         break;
 642:src/pdantler/printf.c ****       default:
 643:src/pdantler/printf.c ****         n = 0U;
 644:src/pdantler/printf.c ****         break;
 645:src/pdantler/printf.c ****       }
 646:src/pdantler/printf.c ****     } while (n);
 3391              		.loc 1 646 13 is_stmt 1 view .LVU724
 647:src/pdantler/printf.c **** 
 648:src/pdantler/printf.c ****     // evaluate width field
 649:src/pdantler/printf.c ****     width = 0U;
 3392              		.loc 1 649 5 view .LVU725
 650:src/pdantler/printf.c ****     if (_is_digit(*format)) {
 3393              		.loc 1 650 5 view .LVU726
 3394              	.LBB59:
 3395              	.LBI59:
 180:src/pdantler/printf.c **** 
ARM GAS  /tmp/ccFy9xbE.s 			page 81


 3396              		.loc 1 180 20 view .LVU727
 3397              	.LBB60:
 180:src/pdantler/printf.c **** 
 3398              		.loc 1 180 41 view .LVU728
 180:src/pdantler/printf.c **** 
 3399              		.loc 1 180 41 is_stmt 0 view .LVU729
 3400              	.LBE60:
 3401              	.LBE59:
 3402              	@ src/pdantler/printf.c:650:     if (_is_digit(*format)) {
 3403              		.loc 1 650 8 view .LVU730
 3404 006e A0F13003 		sub	r3, r0, #48	@ tmp261, prephitmp_372,
 3405 0072 092B     		cmp	r3, #9	@ tmp261,
 3406 0074 40F2AB80 		bls	.L497		@,
 651:src/pdantler/printf.c ****       width = _atoi(&format);
 652:src/pdantler/printf.c ****     } else if (*format == '*') {
 3407              		.loc 1 652 12 is_stmt 1 view .LVU731
 3408              	@ src/pdantler/printf.c:652:     } else if (*format == '*') {
 3409              		.loc 1 652 15 is_stmt 0 view .LVU732
 3410 0078 2A28     		cmp	r0, #42	@ prephitmp_372,
 3411 007a 00F0B580 		beq	.L498		@,
 3412              	@ src/pdantler/printf.c:649:     width = 0U;
 649:src/pdantler/printf.c ****     if (_is_digit(*format)) {
 3413              		.loc 1 649 11 view .LVU733
 3414 007e 0025     		movs	r5, #0	@ width,
 3415              	.LVL336:
 3416              	.L372:
 653:src/pdantler/printf.c ****       const int w = va_arg(va, int);
 654:src/pdantler/printf.c ****       if (w < 0) {
 655:src/pdantler/printf.c ****         flags |= FLAGS_LEFT; // reverse padding
 656:src/pdantler/printf.c ****         width = (unsigned int)-w;
 657:src/pdantler/printf.c ****       } else {
 658:src/pdantler/printf.c ****         width = (unsigned int)w;
 659:src/pdantler/printf.c ****       }
 660:src/pdantler/printf.c ****       format++;
 661:src/pdantler/printf.c ****     }
 662:src/pdantler/printf.c **** 
 663:src/pdantler/printf.c ****     // evaluate precision field
 664:src/pdantler/printf.c ****     precision = 0U;
 3417              		.loc 1 664 5 is_stmt 1 view .LVU734
 665:src/pdantler/printf.c ****     if (*format == '.') {
 3418              		.loc 1 665 5 view .LVU735
 3419              	@ src/pdantler/printf.c:665:     if (*format == '.') {
 3420              		.loc 1 665 8 is_stmt 0 view .LVU736
 3421 0080 2E28     		cmp	r0, #46	@ prephitmp_372,
 3422 0082 00F09680 		beq	.L499		@,
 3423              	.L491:
 3424              	@ src/pdantler/printf.c:664:     precision = 0U;
 664:src/pdantler/printf.c ****     if (*format == '.') {
 3425              		.loc 1 664 15 view .LVU737
 3426 0086 0027     		movs	r7, #0	@ i,
 3427              	.LVL337:
 3428              	.L375:
 666:src/pdantler/printf.c ****       flags |= FLAGS_PRECISION;
 667:src/pdantler/printf.c ****       format++;
 668:src/pdantler/printf.c ****       if (_is_digit(*format)) {
 669:src/pdantler/printf.c ****         precision = _atoi(&format);
 670:src/pdantler/printf.c ****       } else if (*format == '*') {
ARM GAS  /tmp/ccFy9xbE.s 			page 82


 671:src/pdantler/printf.c ****         const int prec = (int)va_arg(va, int);
 672:src/pdantler/printf.c ****         precision = prec > 0 ? (unsigned int)prec : 0U;
 673:src/pdantler/printf.c ****         format++;
 674:src/pdantler/printf.c ****       }
 675:src/pdantler/printf.c ****     }
 676:src/pdantler/printf.c **** 
 677:src/pdantler/printf.c ****     // evaluate length field
 678:src/pdantler/printf.c ****     switch (*format) {
 3429              		.loc 1 678 5 is_stmt 1 view .LVU738
 3430 0088 A0F16803 		sub	r3, r0, #104	@ tmp283, prephitmp_372,
 3431 008c 122B     		cmp	r3, #18	@ tmp283,
 3432 008e 18D8     		bhi	.L378		@
 3433 0090 DFE813F0 		tbh	[pc, r3, lsl #1]	@ tmp283
 3434              	.L380:
 3435 0094 0E01     		.2byte	(.L383-.L380)/2
 3436 0096 1700     		.2byte	(.L378-.L380)/2
 3437 0098 0901     		.2byte	(.L382-.L380)/2
 3438 009a 1700     		.2byte	(.L378-.L380)/2
 3439 009c 0101     		.2byte	(.L381-.L380)/2
 3440 009e 1700     		.2byte	(.L378-.L380)/2
 3441 00a0 1700     		.2byte	(.L378-.L380)/2
 3442 00a2 1700     		.2byte	(.L378-.L380)/2
 3443 00a4 1700     		.2byte	(.L378-.L380)/2
 3444 00a6 1700     		.2byte	(.L378-.L380)/2
 3445 00a8 1700     		.2byte	(.L378-.L380)/2
 3446 00aa 1700     		.2byte	(.L378-.L380)/2
 3447 00ac 1300     		.2byte	(.L379-.L380)/2
 3448 00ae 1700     		.2byte	(.L378-.L380)/2
 3449 00b0 1700     		.2byte	(.L378-.L380)/2
 3450 00b2 1700     		.2byte	(.L378-.L380)/2
 3451 00b4 1700     		.2byte	(.L378-.L380)/2
 3452 00b6 1700     		.2byte	(.L378-.L380)/2
 3453 00b8 1300     		.2byte	(.L379-.L380)/2
 3454              		.p2align 1
 3455              	.L379:
 679:src/pdantler/printf.c ****     case 'l':
 680:src/pdantler/printf.c ****       flags |= FLAGS_LONG;
 681:src/pdantler/printf.c ****       format++;
 682:src/pdantler/printf.c ****       if (*format == 'l') {
 683:src/pdantler/printf.c ****         flags |= FLAGS_LONG_LONG;
 684:src/pdantler/printf.c ****         format++;
 685:src/pdantler/printf.c ****       }
 686:src/pdantler/printf.c ****       break;
 687:src/pdantler/printf.c ****     case 'h':
 688:src/pdantler/printf.c ****       flags |= FLAGS_SHORT;
 689:src/pdantler/printf.c ****       format++;
 690:src/pdantler/printf.c ****       if (*format == 'h') {
 691:src/pdantler/printf.c ****         flags |= FLAGS_CHAR;
 692:src/pdantler/printf.c ****         format++;
 693:src/pdantler/printf.c ****       }
 694:src/pdantler/printf.c ****       break;
 695:src/pdantler/printf.c **** #if defined(PRINTF_SUPPORT_PTRDIFF_T)
 696:src/pdantler/printf.c ****     case 't':
 697:src/pdantler/printf.c ****       flags |=
 698:src/pdantler/printf.c ****           (sizeof(ptrdiff_t) == sizeof(long) ? FLAGS_LONG : FLAGS_LONG_LONG);
 699:src/pdantler/printf.c ****       format++;
 700:src/pdantler/printf.c ****       break;
ARM GAS  /tmp/ccFy9xbE.s 			page 83


 701:src/pdantler/printf.c **** #endif
 702:src/pdantler/printf.c ****     case 'j':
 703:src/pdantler/printf.c ****       flags |=
 704:src/pdantler/printf.c ****           (sizeof(intmax_t) == sizeof(long) ? FLAGS_LONG : FLAGS_LONG_LONG);
 705:src/pdantler/printf.c ****       format++;
 706:src/pdantler/printf.c ****       break;
 707:src/pdantler/printf.c ****     case 'z':
 708:src/pdantler/printf.c ****       flags |= (sizeof(size_t) == sizeof(long) ? FLAGS_LONG : FLAGS_LONG_LONG);
 3456              		.loc 1 708 7 view .LVU739
 3457              	@ src/pdantler/printf.c:716:     switch (*format) {
 709:src/pdantler/printf.c ****       format++;
 710:src/pdantler/printf.c ****       break;
 711:src/pdantler/printf.c ****     default:
 712:src/pdantler/printf.c ****       break;
 713:src/pdantler/printf.c ****     }
 714:src/pdantler/printf.c **** 
