ARM GAS  /tmp/ccIwehAI.s 			page 1


   1              		.cpu cortex-m7
   2              		.eabi_attribute 27, 1	@ Tag_ABI_HardFP_use
   3              		.eabi_attribute 28, 1	@ Tag_ABI_VFP_args
   4              		.eabi_attribute 20, 1	@ Tag_ABI_FP_denormal
   5              		.eabi_attribute 21, 1	@ Tag_ABI_FP_exceptions
   6              		.eabi_attribute 23, 3	@ Tag_ABI_FP_number_model
   7              		.eabi_attribute 24, 1	@ Tag_ABI_align8_needed
   8              		.eabi_attribute 25, 1	@ Tag_ABI_align8_preserved
   9              		.eabi_attribute 26, 1	@ Tag_ABI_enum_size
  10              		.eabi_attribute 30, 2	@ Tag_ABI_optimization_goals
  11              		.eabi_attribute 34, 1	@ Tag_CPU_unaligned_access
  12              		.eabi_attribute 18, 4	@ Tag_ABI_PCS_wchar_t
  13              		.file	"scene_game.c"
  14              	@ GNU C17 (15:10.3-2021.07-4) version 10.3.1 20210621 (release) (arm-none-eabi)
  15              	@	compiled by GNU C version 11.2.0, GMP version 6.2.1, MPFR version 4.1.0, MPC version 1.2.1, isl v
  16              	
  17              	@ GGC heuristics: --param ggc-min-expand=100 --param ggc-min-heapsize=131072
  18              	@ options passed:  -I . -I .
  19              	@ -I /home/mchristensen/src/PlaydateSDK-2.2.0/C_API
  20              	@ -imultilib thumb/v7e-m+fp/hard -MD build/src/scenes/scene_game.d
  21              	@ -MF build/dep/scene_game.o.d -MP -MQ build/src/scenes/scene_game.o
  22              	@ -D__USES_INITFINI__ -D __FPU_USED=1 -D TARGET_PLAYDATE=1
  23              	@ -D TARGET_EXTENSION=1 src/scenes/scene_game.c -mthumb -mcpu=cortex-m7
  24              	@ -mfloat-abi=hard -mfpu=fpv5-sp-d16 -mword-relocations
  25              	@ -mlibarch=armv7e-m+fpv5 -march=armv7e-m+fpv5
  26              	@ -auxbase-strip build/src/scenes/scene_game.o -g3 -gdwarf-2 -O2 -Wall
  27              	@ -Wno-unused -Wstrict-prototypes -Wno-unknown-pragmas -Wdouble-promotion
  28              	@ -falign-functions=16 -fomit-frame-pointer -fverbose-asm -fno-common
  29              	@ -ffunction-sections -fdata-sections
  30              	@ options enabled:  -faggressive-loop-optimizations -falign-functions
  31              	@ -falign-jumps -falign-labels -falign-loops -fallocation-dce
  32              	@ -fauto-inc-dec -fbranch-count-reg -fcaller-saves
  33              	@ -fcombine-stack-adjustments -fcompare-elim -fcprop-registers
  34              	@ -fcrossjumping -fcse-follow-jumps -fdata-sections -fdefer-pop
  35              	@ -fdelete-null-pointer-checks -fdevirtualize -fdevirtualize-speculatively
  36              	@ -fdwarf2-cfi-asm -fearly-inlining -feliminate-unused-debug-symbols
  37              	@ -feliminate-unused-debug-types -fexpensive-optimizations
  38              	@ -fforward-propagate -ffp-int-builtin-inexact -ffunction-cse
  39              	@ -ffunction-sections -fgcse -fgcse-lm -fgnu-unique
  40              	@ -fguess-branch-probability -fhoist-adjacent-loads -fident -fif-conversion
  41              	@ -fif-conversion2 -findirect-inlining -finline -finline-atomics
  42              	@ -finline-functions -finline-functions-called-once
  43              	@ -finline-small-functions -fipa-bit-cp -fipa-cp -fipa-icf
  44              	@ -fipa-icf-functions -fipa-icf-variables -fipa-profile -fipa-pure-const
  45              	@ -fipa-ra -fipa-reference -fipa-reference-addressable -fipa-sra
  46              	@ -fipa-stack-alignment -fipa-vrp -fira-hoist-pressure
  47              	@ -fira-share-save-slots -fira-share-spill-slots
  48              	@ -fisolate-erroneous-paths-dereference -fivopts -fkeep-static-consts
  49              	@ -fleading-underscore -flifetime-dse -flra-remat -fmath-errno
  50              	@ -fmerge-constants -fmerge-debug-strings -fmove-loop-invariants
  51              	@ -fomit-frame-pointer -foptimize-sibling-calls -foptimize-strlen
  52              	@ -fpartial-inlining -fpeephole -fpeephole2 -fplt -fprefetch-loop-arrays
  53              	@ -freg-struct-return -freorder-blocks -freorder-functions
  54              	@ -frerun-cse-after-loop -fsched-critical-path-heuristic
  55              	@ -fsched-dep-count-heuristic -fsched-group-heuristic -fsched-interblock
  56              	@ -fsched-last-insn-heuristic -fsched-pressure -fsched-rank-heuristic
  57              	@ -fsched-spec -fsched-spec-insn-heuristic -fsched-stalled-insns-dep
ARM GAS  /tmp/ccIwehAI.s 			page 2


  58              	@ -fschedule-insns -fschedule-insns2 -fsection-anchors
  59              	@ -fsemantic-interposition -fshow-column -fshrink-wrap
  60              	@ -fshrink-wrap-separate -fsigned-zeros -fsplit-ivs-in-unroller
  61              	@ -fsplit-wide-types -fssa-backprop -fssa-phiopt -fstdarg-opt
  62              	@ -fstore-merging -fstrict-aliasing -fstrict-volatile-bitfields
  63              	@ -fsync-libcalls -fthread-jumps -ftoplevel-reorder -ftrapping-math
  64              	@ -ftree-bit-ccp -ftree-builtin-call-dce -ftree-ccp -ftree-ch
  65              	@ -ftree-coalesce-vars -ftree-copy-prop -ftree-cselim -ftree-dce
  66              	@ -ftree-dominator-opts -ftree-dse -ftree-forwprop -ftree-fre
  67              	@ -ftree-loop-distribute-patterns -ftree-loop-if-convert -ftree-loop-im
  68              	@ -ftree-loop-ivcanon -ftree-loop-optimize -ftree-parallelize-loops=
  69              	@ -ftree-phiprop -ftree-pre -ftree-pta -ftree-reassoc -ftree-scev-cprop
  70              	@ -ftree-sink -ftree-slsr -ftree-sra -ftree-switch-conversion
  71              	@ -ftree-tail-merge -ftree-ter -ftree-vrp -funit-at-a-time -fvar-tracking
  72              	@ -fvar-tracking-assignments -fverbose-asm -fzero-initialized-in-bss
  73              	@ -masm-syntax-unified -mbe32 -mlittle-endian -mpic-data-is-text-relative
  74              	@ -msched-prolog -mthumb -munaligned-access -mvectorize-with-neon-quad
  75              	@ -mword-relocations
  76              	
  77              		.text
  78              	.Ltext0:
  79              		.cfi_sections	.debug_frame
  80              		.section	.text.move_player,"ax",%progbits
  81              		.align	1
  82              		.p2align 4,,15
  83              		.arch armv7e-m
  84              		.syntax unified
  85              		.thumb
  86              		.thumb_func
  87              		.fpu fpv5-sp-d16
  88              		.type	move_player, %function
  89              	move_player:
  90              	.LVL0:
  91              	.LFB37:
  92              		.file 1 "src/scenes/scene_game.c"
   1:src/scenes/scene_game.c **** #include "src/scenes/scene_game.h"
   2:src/scenes/scene_game.c **** #include "src/pdantler/mooselib.h"
   3:src/scenes/scene_game.c **** #include "src/pdantler/printf.h"
   4:src/scenes/scene_game.c **** 
   5:src/scenes/scene_game.c **** #define DEFAULT_BIRD_VELOCITY 5
   6:src/scenes/scene_game.c **** #define DEBOUNCER_DELAY 5
   7:src/scenes/scene_game.c **** #define SCREEN_WIDTH 400
   8:src/scenes/scene_game.c **** #define AUDIENCE_MEMBER_COUNT 5
   9:src/scenes/scene_game.c **** #define HECKLE_COUNT 7
  10:src/scenes/scene_game.c **** #define JOKE_COUNT 8
  11:src/scenes/scene_game.c **** #define SPEECH_BUBBLE_LEN 50
  12:src/scenes/scene_game.c **** #define AFTER_JOKE_WAIT_S 2.0
  13:src/scenes/scene_game.c **** #define HECKLE_S 2.0
  14:src/scenes/scene_game.c **** #define AFTER_THROW_WAIT_S 2.0
  15:src/scenes/scene_game.c **** #define SCREEN_BOUNDS                                                          \
  16:src/scenes/scene_game.c ****   (MLIBRect) { 0, 0, 400, 240 }
  17:src/scenes/scene_game.c **** 
  18:src/scenes/scene_game.c **** typedef enum {
  19:src/scenes/scene_game.c ****   STATE_JOKE,
  20:src/scenes/scene_game.c ****   STATE_HECKLING,
  21:src/scenes/scene_game.c ****   STATE_THROWING,
  22:src/scenes/scene_game.c ****   STATE_GAME_OVER
ARM GAS  /tmp/ccIwehAI.s 			page 3


  23:src/scenes/scene_game.c **** } GameState;
  24:src/scenes/scene_game.c **** 
  25:src/scenes/scene_game.c **** typedef struct {
  26:src/scenes/scene_game.c ****   MLIBPoint speech_location;
  27:src/scenes/scene_game.c ****   MLIBPoint throw_location;
  28:src/scenes/scene_game.c ****   bool right;
  29:src/scenes/scene_game.c **** } AudienceMember;
  30:src/scenes/scene_game.c **** 
  31:src/scenes/scene_game.c **** typedef struct {
  32:src/scenes/scene_game.c ****   MLIBSize size;
  33:src/scenes/scene_game.c ****   MLIBPoint location;
  34:src/scenes/scene_game.c ****   MLIBRect hitbox;
  35:src/scenes/scene_game.c ****   int velocity;
  36:src/scenes/scene_game.c **** } Player;
  37:src/scenes/scene_game.c **** 
  38:src/scenes/scene_game.c **** typedef struct {
  39:src/scenes/scene_game.c ****   MLIBFPoint location;
  40:src/scenes/scene_game.c ****   MLIBFPoint velocity;
  41:src/scenes/scene_game.c ****   bool active;
  42:src/scenes/scene_game.c **** } Tomato;
  43:src/scenes/scene_game.c **** 
  44:src/scenes/scene_game.c **** typedef struct {
  45:src/scenes/scene_game.c ****   char line1[SPEECH_BUBBLE_LEN];
  46:src/scenes/scene_game.c ****   MLIBSize size;
  47:src/scenes/scene_game.c ****   bool flipped;
  48:src/scenes/scene_game.c **** } SpeechBubble;
  49:src/scenes/scene_game.c **** 
  50:src/scenes/scene_game.c **** typedef struct {
  51:src/scenes/scene_game.c ****   Player player;
  52:src/scenes/scene_game.c ****   SpeechBubble speech_bubble;
  53:src/scenes/scene_game.c ****   AudienceMember audience[AUDIENCE_MEMBER_COUNT];
  54:src/scenes/scene_game.c ****   Tomato tomato;
  55:src/scenes/scene_game.c ****   int audience_index;
  56:src/scenes/scene_game.c ****   char *heckles[HECKLE_COUNT];
  57:src/scenes/scene_game.c ****   char *jokes[JOKE_COUNT];
  58:src/scenes/scene_game.c ****   int heckle_index;
  59:src/scenes/scene_game.c ****   int joke_index;
  60:src/scenes/scene_game.c ****   float change_state_time;
  61:src/scenes/scene_game.c ****   MLIBPoint player_location_bookmark;
  62:src/scenes/scene_game.c ****   GameState state;
  63:src/scenes/scene_game.c **** } GameSceneContext;
  64:src/scenes/scene_game.c **** 
  65:src/scenes/scene_game.c **** static void move_player(PlaydateAPI *pd, Player *player, GameAssets *assets,
  66:src/scenes/scene_game.c ****                         int x);
  67:src/scenes/scene_game.c **** static void init_player(PlaydateAPI *pd, GameSceneContext *gsc,
  68:src/scenes/scene_game.c ****                         GameAssets *assets);
  69:src/scenes/scene_game.c **** static void init_audience(PlaydateAPI *pd, GameSceneContext *gsc,
  70:src/scenes/scene_game.c ****                           GameAssets *assets);
  71:src/scenes/scene_game.c **** static void init_speech_bubble(PlaydateAPI *pd, GameSceneContext *gsc,
  72:src/scenes/scene_game.c ****                                GameAssets *assets);
  73:src/scenes/scene_game.c **** static void init_jokes(PlaydateAPI *pd, GameSceneContext *gsc,
  74:src/scenes/scene_game.c ****                        GameAssets *assets);
  75:src/scenes/scene_game.c **** static void init_misc(PlaydateAPI *pd, GameSceneContext *gsc,
  76:src/scenes/scene_game.c ****                       GameAssets *assets);
  77:src/scenes/scene_game.c **** static void show_speech(GameContext *game, GameAssets *assets, MLIBPoint p,
  78:src/scenes/scene_game.c ****                         char *text, bool flipped);
  79:src/scenes/scene_game.c **** static void hide_speech(GameContext *game, GameAssets *assets);
ARM GAS  /tmp/ccIwehAI.s 			page 4


  80:src/scenes/scene_game.c **** static void update_state(GameContext *game, GameAssets *assets);
  81:src/scenes/scene_game.c **** static void update_tomato(GameContext *game, GameAssets *assets);
  82:src/scenes/scene_game.c **** static void handle_movement(PlaydateAPI *pd, GameSceneContext *gsc,
  83:src/scenes/scene_game.c ****                             PDButtons debounced_buttons, GameAssets *assets);
  84:src/scenes/scene_game.c **** 
  85:src/scenes/scene_game.c **** static void throw_tomato(GameContext *game, GameAssets *assets, MLIBPoint start,
  86:src/scenes/scene_game.c ****                          MLIBPoint end, int steps);
  87:src/scenes/scene_game.c **** static void hide_tomato(GameContext *game, GameAssets *assets);
  88:src/scenes/scene_game.c **** static void kill_player(GameContext *game, GameAssets *assets);
  89:src/scenes/scene_game.c **** static void reset_game(GameContext *game, GameAssets *assets);
  90:src/scenes/scene_game.c **** static void new_joke(GameContext *game, GameAssets *assets);
  91:src/scenes/scene_game.c **** static void hide_joke(GameContext *game, GameAssets *assets);
  92:src/scenes/scene_game.c **** 
  93:src/scenes/scene_game.c **** static int rand_int_range(int min, int max) {
  94:src/scenes/scene_game.c ****   return (rand() % (max - min)) + min;
  95:src/scenes/scene_game.c **** }
  96:src/scenes/scene_game.c **** 
  97:src/scenes/scene_game.c **** // Initializes the scene. Do not change the function name/signature.
  98:src/scenes/scene_game.c **** void init_game(GameContext *game, GameAssets *assets) {
  99:src/scenes/scene_game.c ****   PlaydateAPI *pd = game->pd;
 100:src/scenes/scene_game.c **** 
 101:src/scenes/scene_game.c ****   game->debouncer.delay = DEBOUNCER_DELAY;
 102:src/scenes/scene_game.c **** 
 103:src/scenes/scene_game.c ****   GameSceneContext *gsc = pd->system->realloc(NULL, sizeof(GameSceneContext));
 104:src/scenes/scene_game.c ****   game->game_userdata = gsc;
 105:src/scenes/scene_game.c ****   init_player(pd, gsc, assets);
 106:src/scenes/scene_game.c ****   init_audience(pd, gsc, assets);
 107:src/scenes/scene_game.c ****   init_speech_bubble(pd, gsc, assets);
 108:src/scenes/scene_game.c ****   init_jokes(pd, gsc, assets);
 109:src/scenes/scene_game.c **** 
 110:src/scenes/scene_game.c ****   reset_game(game, assets);
 111:src/scenes/scene_game.c **** }
 112:src/scenes/scene_game.c **** 
 113:src/scenes/scene_game.c **** // Run once every game loop when scene is active. Do not change the function
 114:src/scenes/scene_game.c **** // name/signature Return the scene to transfer to, or NO_SCENE if same scene
 115:src/scenes/scene_game.c **** // should be used
 116:src/scenes/scene_game.c **** GameScene tick_game(GameContext *game, GameAssets *assets,
 117:src/scenes/scene_game.c ****                     PDButtons debounced_buttons, int delta) {
 118:src/scenes/scene_game.c ****   PlaydateAPI *pd = game->pd;
 119:src/scenes/scene_game.c ****   GameSceneContext *gsc = (GameSceneContext *)game->game_userdata;
 120:src/scenes/scene_game.c **** 
 121:src/scenes/scene_game.c ****   if (gsc->state == STATE_GAME_OVER) {
 122:src/scenes/scene_game.c ****     if ((debounced_buttons & kButtonA) || (debounced_buttons & kButtonB)) {
 123:src/scenes/scene_game.c ****       reset_game(game, assets);
 124:src/scenes/scene_game.c ****     }
 125:src/scenes/scene_game.c ****   } else {
 126:src/scenes/scene_game.c ****     handle_movement(pd, gsc, debounced_buttons, assets);
 127:src/scenes/scene_game.c ****     update_tomato(game, assets);
 128:src/scenes/scene_game.c ****     update_state(game, assets);
 129:src/scenes/scene_game.c ****   }
 130:src/scenes/scene_game.c **** 
 131:src/scenes/scene_game.c ****   return NO_SCENE;
 132:src/scenes/scene_game.c **** }
 133:src/scenes/scene_game.c **** 
 134:src/scenes/scene_game.c **** void enter_game(GameContext *game, GameAssets *assets) {}
 135:src/scenes/scene_game.c **** 
 136:src/scenes/scene_game.c **** void exit_game(GameContext *game, GameAssets *assets) {}
ARM GAS  /tmp/ccIwehAI.s 			page 5


 137:src/scenes/scene_game.c **** 
 138:src/scenes/scene_game.c **** void pause_game(GameContext *game, GameAssets *assets) {}
 139:src/scenes/scene_game.c **** 
 140:src/scenes/scene_game.c **** void unpause_game(GameContext *game, GameAssets *assets) {}
 141:src/scenes/scene_game.c **** 
 142:src/scenes/scene_game.c **** //
 143:src/scenes/scene_game.c **** // Main function
 144:src/scenes/scene_game.c **** //
 145:src/scenes/scene_game.c **** static void move_player(PlaydateAPI *pd, Player *player, GameAssets *assets,
 146:src/scenes/scene_game.c ****                         int x) {
  93              		.loc 1 146 32 view -0
  94              		.cfi_startproc
  95              		@ args = 0, pretend = 0, frame = 0
  96              		@ frame_needed = 0, uses_anonymous_args = 0
 147:src/scenes/scene_game.c ****   pd->sprite->setImageFlip(assets->bird_sprite, x < 0);
  97              		.loc 1 147 3 view .LVU1
  98              	@ src/scenes/scene_game.c:146:                         int x) {
 146:src/scenes/scene_game.c ****   pd->sprite->setImageFlip(assets->bird_sprite, x < 0);
  99              		.loc 1 146 32 is_stmt 0 view .LVU2
 100 0000 2DE9F041 		push	{r4, r5, r6, r7, r8, lr}	@
 101              	.LCFI0:
 102              		.cfi_def_cfa_offset 24
 103              		.cfi_offset 4, -24
 104              		.cfi_offset 5, -20
 105              		.cfi_offset 6, -16
 106              		.cfi_offset 7, -12
 107              		.cfi_offset 8, -8
 108              		.cfi_offset 14, -4
 109              	@ src/scenes/scene_game.c:146:                         int x) {
 146:src/scenes/scene_game.c ****   pd->sprite->setImageFlip(assets->bird_sprite, x < 0);
 110              		.loc 1 146 32 view .LVU3
 111 0004 1C46     		mov	r4, r3	@ x, tmp156
 112              	@ src/scenes/scene_game.c:147:   pd->sprite->setImageFlip(assets->bird_sprite, x < 0);
 113              		.loc 1 147 13 view .LVU4
 114 0006 C368     		ldr	r3, [r0, #12]	@ pd_19(D)->sprite, pd_19(D)->sprite
 115              	.LVL1:
 116              	@ src/scenes/scene_game.c:146:                         int x) {
 146:src/scenes/scene_game.c ****   pd->sprite->setImageFlip(assets->bird_sprite, x < 0);
 117              		.loc 1 146 32 view .LVU5
 118 0008 0D46     		mov	r5, r1	@ player, tmp154
 119 000a 0746     		mov	r7, r0	@ pd, tmp153
 120              	@ src/scenes/scene_game.c:147:   pd->sprite->setImageFlip(assets->bird_sprite, x < 0);
 121              		.loc 1 147 3 view .LVU6
 122 000c 9B6D     		ldr	r3, [r3, #88]	@ _1->setImageFlip, _1->setImageFlip
 123 000e E10F     		lsrs	r1, r4, #31	@, x,
 124              	.LVL2:
 125              		.loc 1 147 3 view .LVU7
 126 0010 D068     		ldr	r0, [r2, #12]	@, assets_20(D)->bird_sprite
 127              	.LVL3:
 128              	@ src/scenes/scene_game.c:146:                         int x) {
 146:src/scenes/scene_game.c ****   pd->sprite->setImageFlip(assets->bird_sprite, x < 0);
 129              		.loc 1 146 32 view .LVU8
 130 0012 1646     		mov	r6, r2	@ assets, tmp155
 131              	@ src/scenes/scene_game.c:147:   pd->sprite->setImageFlip(assets->bird_sprite, x < 0);
 132              		.loc 1 147 3 view .LVU9
 133 0014 9847     		blx	r3		@ _1->setImageFlip
 134              	.LVL4:
ARM GAS  /tmp/ccIwehAI.s 			page 6


 148:src/scenes/scene_game.c ****   player->location.x =
 135              		.loc 1 148 3 is_stmt 1 view .LVU10
 136              	@ src/scenes/scene_game.c:149:       MLIB_CLAMP_TO_RANGE(player->location.x + x, player->size.width
 149:src/scenes/scene_game.c ****       MLIB_CLAMP_TO_RANGE(player->location.x + x, player->size.width / 2,
 137              		.loc 1 149 63 is_stmt 0 view .LVU11
 138 0016 2A68     		ldr	r2, [r5]	@ _8, player_23(D)->size.width
 139              	@ src/scenes/scene_game.c:149:       MLIB_CLAMP_TO_RANGE(player->location.x + x, player->size.width
 140              		.loc 1 149 7 view .LVU12
 141 0018 AB68     		ldr	r3, [r5, #8]	@ player_23(D)->location.x, player_23(D)->location.x
 142 001a 002A     		cmp	r2, #0	@ _8,
 143 001c 1C44     		add	r4, r4, r3	@ _7, player_23(D)->location.x
 144              	.LVL5:
 145              		.loc 1 149 7 view .LVU13
 146 001e B4BF     		ite	lt
 147 0020 531C     		addlt	r3, r2, #1	@ _8, _8,
 148 0022 1346     		movge	r3, r2	@ _8, _8
 149 0024 5B10     		asrs	r3, r3, #1	@ tmp142, _8,
 150              	.LVL6:
 151              	.LBB62:
 152              	.LBI62:
 153              		.file 2 "./src/scenes/../pdantler/mooselib.h"
   1:./src/scenes/../pdantler/mooselib.h **** /** This file is managed by pdantler.
   2:./src/scenes/../pdantler/mooselib.h **** 
   3:./src/scenes/../pdantler/mooselib.h ****     Any changes you make to it directly will be overwritten next time pdantler
   4:./src/scenes/../pdantler/mooselib.h ****    runs
   5:./src/scenes/../pdantler/mooselib.h **** */
   6:./src/scenes/../pdantler/mooselib.h **** 
   7:./src/scenes/../pdantler/mooselib.h **** // Playdate-compatable stdlib replacement. Also includes some common
   8:./src/scenes/../pdantler/mooselib.h **** // structs/functions for working with points, etc
   9:./src/scenes/../pdantler/mooselib.h **** 
  10:./src/scenes/../pdantler/mooselib.h **** // If compiling for playdate, be sure to define MOOSELIB_PLAYDATE before
  11:./src/scenes/../pdantler/mooselib.h **** // including
  12:./src/scenes/../pdantler/mooselib.h **** 
  13:./src/scenes/../pdantler/mooselib.h **** #ifndef MOOSELIB_INCLUDE
  14:./src/scenes/../pdantler/mooselib.h **** #define MOOSELIB_INCLUDE
  15:./src/scenes/../pdantler/mooselib.h **** #include <math.h>
  16:./src/scenes/../pdantler/mooselib.h **** #include <stdbool.h>
  17:./src/scenes/../pdantler/mooselib.h **** 
  18:./src/scenes/../pdantler/mooselib.h **** //
  19:./src/scenes/../pdantler/mooselib.h **** // Graphic-related shared structs
  20:./src/scenes/../pdantler/mooselib.h **** //
  21:./src/scenes/../pdantler/mooselib.h **** 
  22:./src/scenes/../pdantler/mooselib.h **** typedef struct {
  23:./src/scenes/../pdantler/mooselib.h ****   int width;
  24:./src/scenes/../pdantler/mooselib.h ****   int height;
  25:./src/scenes/../pdantler/mooselib.h **** } MLIBSize;
  26:./src/scenes/../pdantler/mooselib.h **** 
  27:./src/scenes/../pdantler/mooselib.h **** static inline MLIBSize MLIBSIZE_CREATE(int width, int height) {
  28:./src/scenes/../pdantler/mooselib.h ****   return (MLIBSize){width, height};
  29:./src/scenes/../pdantler/mooselib.h **** }
  30:./src/scenes/../pdantler/mooselib.h **** 
  31:./src/scenes/../pdantler/mooselib.h **** typedef struct {
  32:./src/scenes/../pdantler/mooselib.h ****   int x;
  33:./src/scenes/../pdantler/mooselib.h ****   int y;
  34:./src/scenes/../pdantler/mooselib.h **** } MLIBPoint;
  35:./src/scenes/../pdantler/mooselib.h **** 
  36:./src/scenes/../pdantler/mooselib.h **** static inline MLIBPoint MLIBPOINT_CREATE(int x, int y) {
ARM GAS  /tmp/ccIwehAI.s 			page 7


  37:./src/scenes/../pdantler/mooselib.h ****   return (MLIBPoint){x, y};
  38:./src/scenes/../pdantler/mooselib.h **** }
  39:./src/scenes/../pdantler/mooselib.h **** 
  40:./src/scenes/../pdantler/mooselib.h **** typedef struct {
  41:./src/scenes/../pdantler/mooselib.h ****   float x;
  42:./src/scenes/../pdantler/mooselib.h ****   float y;
  43:./src/scenes/../pdantler/mooselib.h **** } MLIBFPoint;
  44:./src/scenes/../pdantler/mooselib.h **** 
  45:./src/scenes/../pdantler/mooselib.h **** static inline MLIBFPoint MLIBFPOINT_CREATE(float x, float y) {
  46:./src/scenes/../pdantler/mooselib.h ****   return (MLIBFPoint){x, y};
  47:./src/scenes/../pdantler/mooselib.h **** }
  48:./src/scenes/../pdantler/mooselib.h **** 
  49:./src/scenes/../pdantler/mooselib.h **** typedef struct {
  50:./src/scenes/../pdantler/mooselib.h ****   int x;
  51:./src/scenes/../pdantler/mooselib.h ****   int y;
  52:./src/scenes/../pdantler/mooselib.h ****   int width;
  53:./src/scenes/../pdantler/mooselib.h ****   int height;
  54:./src/scenes/../pdantler/mooselib.h **** } MLIBRect;
  55:./src/scenes/../pdantler/mooselib.h **** 
  56:./src/scenes/../pdantler/mooselib.h **** static inline MLIBRect MLIBRECT_CREATE(int x, int y, int width, int height) {
  57:./src/scenes/../pdantler/mooselib.h ****   return (MLIBRect){x, y, width, height};
  58:./src/scenes/../pdantler/mooselib.h **** }
  59:./src/scenes/../pdantler/mooselib.h **** 
  60:./src/scenes/../pdantler/mooselib.h **** static inline MLIBRect MLIBRECT_TRANSLATE(MLIBRect r, int x, int y) {
  61:./src/scenes/../pdantler/mooselib.h ****   return MLIBRECT_CREATE(r.x + x, r.y + y, r.width, r.height);
  62:./src/scenes/../pdantler/mooselib.h **** }
  63:./src/scenes/../pdantler/mooselib.h **** 
  64:./src/scenes/../pdantler/mooselib.h **** static inline MLIBPoint MLIBRECT_CENTER(MLIBRect r) {
  65:./src/scenes/../pdantler/mooselib.h ****   return MLIBPOINT_CREATE(r.x + r.width / 2, r.y + r.height / 2);
  66:./src/scenes/../pdantler/mooselib.h **** }
  67:./src/scenes/../pdantler/mooselib.h **** 
  68:./src/scenes/../pdantler/mooselib.h **** //
  69:./src/scenes/../pdantler/mooselib.h **** // Debug macros
  70:./src/scenes/../pdantler/mooselib.h **** //
  71:./src/scenes/../pdantler/mooselib.h **** 
  72:./src/scenes/../pdantler/mooselib.h **** #define MLIBPOINT_EXPAND(p) (p.x), (p.y)
  73:./src/scenes/../pdantler/mooselib.h **** #define MLIBSIZE_EXPAND(s) (s.width), (s.height)
  74:./src/scenes/../pdantler/mooselib.h **** #define MLIBRECT_EXPAND(r) (r.x), (r.y), (r.width), (r.height)
  75:./src/scenes/../pdantler/mooselib.h **** //
  76:./src/scenes/../pdantler/mooselib.h **** // Utility functions
  77:./src/scenes/../pdantler/mooselib.h **** //
  78:./src/scenes/../pdantler/mooselib.h **** 
  79:./src/scenes/../pdantler/mooselib.h **** // Make sure v is in range min to max (inclusive). if < min, return max,
  80:./src/scenes/../pdantler/mooselib.h **** // if > max, return min
  81:./src/scenes/../pdantler/mooselib.h **** static inline int MLIB_CLAMP_TO_RANGE_MOD(int v, int min, int max) {
  82:./src/scenes/../pdantler/mooselib.h ****   if (v < min) {
  83:./src/scenes/../pdantler/mooselib.h ****     return max;
  84:./src/scenes/../pdantler/mooselib.h ****   }
  85:./src/scenes/../pdantler/mooselib.h ****   if (v > max) {
  86:./src/scenes/../pdantler/mooselib.h ****     return min;
  87:./src/scenes/../pdantler/mooselib.h ****   }
  88:./src/scenes/../pdantler/mooselib.h ****   return v;
  89:./src/scenes/../pdantler/mooselib.h **** }
  90:./src/scenes/../pdantler/mooselib.h **** 
  91:./src/scenes/../pdantler/mooselib.h **** // Make sure v is in range min to max (inclusive). If < min, return min
  92:./src/scenes/../pdantler/mooselib.h **** // if > max, return max
  93:./src/scenes/../pdantler/mooselib.h **** static inline int MLIB_CLAMP_TO_RANGE(int v, int min, int max) {
ARM GAS  /tmp/ccIwehAI.s 			page 8


 154              		.loc 2 93 19 is_stmt 1 view .LVU14
 155              	.LBB63:
  94:./src/scenes/../pdantler/mooselib.h ****   if (v < min) {
 156              		.loc 2 94 3 view .LVU15
 157              	@ ./src/scenes/../pdantler/mooselib.h:94:   if (v < min) {
 158              		.loc 2 94 6 is_stmt 0 view .LVU16
 159 0026 9C42     		cmp	r4, r3	@ _7, _9
 160 0028 08DB     		blt	.L3		@,
  95:./src/scenes/../pdantler/mooselib.h ****     return min;
  96:./src/scenes/../pdantler/mooselib.h ****   }
  97:./src/scenes/../pdantler/mooselib.h ****   if (v > max) {
 161              		.loc 2 97 3 is_stmt 1 view .LVU17
 162              	.LBE63:
 163              	.LBE62:
 164              	@ src/scenes/scene_game.c:150:                           SCREEN_WIDTH - player->size.width / 2);
 150:src/scenes/scene_game.c ****                           SCREEN_WIDTH - player->size.width / 2);
 165              		.loc 1 150 61 is_stmt 0 view .LVU18
 166 002a 131E     		subs	r3, r2, #0	@ _8, _8
 167              	.LVL7:
 168              		.loc 1 150 61 view .LVU19
 169 002c B8BF     		it	lt
 170 002e 0133     		addlt	r3, r3, #1	@ _8, _8,
 171 0030 5B10     		asrs	r3, r3, #1	@ tmp145, _8,
 172              	@ src/scenes/scene_game.c:149:       MLIB_CLAMP_TO_RANGE(player->location.x + x, player->size.width
 149:src/scenes/scene_game.c ****                           SCREEN_WIDTH - player->size.width / 2);
 173              		.loc 1 149 7 view .LVU20
 174 0032 C3F5C873 		rsb	r3, r3, #400	@ tmp146, tmp145,
 175 0036 A342     		cmp	r3, r4	@ tmp146, _7
 176              	.LVL8:
 149:src/scenes/scene_game.c ****                           SCREEN_WIDTH - player->size.width / 2);
 177              		.loc 1 149 7 view .LVU21
 178 0038 A8BF     		it	ge
 179 003a 2346     		movge	r3, r4	@ _9, _7
 180              	.L3:
 181              	.LVL9:
 182              	@ src/scenes/scene_game.c:151:   pd->sprite->moveTo(assets->bird_sprite, player->location.x,
 151:src/scenes/scene_game.c ****   pd->sprite->moveTo(assets->bird_sprite, player->location.x,
 183              		.loc 1 151 3 view .LVU22
 184 003c 07EE903A 		vmov	s15, r3	@ int	@ _9, _9
 185              	@ src/scenes/scene_game.c:151:   pd->sprite->moveTo(assets->bird_sprite, player->location.x,
 186              		.loc 1 151 13 view .LVU23
 187 0040 FA68     		ldr	r2, [r7, #12]	@ pd_19(D)->sprite, pd_19(D)->sprite
 188              	@ src/scenes/scene_game.c:151:   pd->sprite->moveTo(assets->bird_sprite, player->location.x,
 189              		.loc 1 151 3 view .LVU24
 190 0042 F068     		ldr	r0, [r6, #12]	@, assets_20(D)->bird_sprite
 191 0044 B8EEE70A 		vcvt.f32.s32	s0, s15	@, _9
 192 0048 D5ED037A 		vldr.32	s15, [r5, #12]	@ int	@ tmp159, player_23(D)->location.y
 193 004c 926B     		ldr	r2, [r2, #56]	@ _12->moveTo, _12->moveTo
 194 004e F8EEE70A 		vcvt.f32.s32	s1, s15	@, tmp159
 195              	@ src/scenes/scene_game.c:148:   player->location.x =
 148:src/scenes/scene_game.c ****       MLIB_CLAMP_TO_RANGE(player->location.x + x, player->size.width / 2,
 196              		.loc 1 148 22 view .LVU25
 197 0052 AB60     		str	r3, [r5, #8]	@ _9, player_23(D)->location.x
 198              		.loc 1 151 3 is_stmt 1 view .LVU26
 199              	@ src/scenes/scene_game.c:153: }
 152:src/scenes/scene_game.c ****                      player->location.y);
 153:src/scenes/scene_game.c **** }
ARM GAS  /tmp/ccIwehAI.s 			page 9


 200              		.loc 1 153 1 is_stmt 0 view .LVU27
 201 0054 BDE8F041 		pop	{r4, r5, r6, r7, r8, lr}	@
 202              	.LCFI1:
 203              		.cfi_restore 14
 204              		.cfi_restore 8
 205              		.cfi_restore 7
 206              		.cfi_restore 6
 207              		.cfi_restore 5
 208              		.cfi_restore 4
 209              		.cfi_def_cfa_offset 0
 210              	.LVL10:
 211              	@ src/scenes/scene_game.c:151:   pd->sprite->moveTo(assets->bird_sprite, player->location.x,
 151:src/scenes/scene_game.c ****                      player->location.y);
 212              		.loc 1 151 3 view .LVU28
 213 0058 1047     		bx	r2	@ indirect register sibling call	@ _12->moveTo
 214              	.LVL11:
 215              		.cfi_endproc
 216              	.LFE37:
 217              		.size	move_player, .-move_player
 218 005a 00BF     		.section	.text.new_joke,"ax",%progbits
 219              		.align	1
 220              		.p2align 4,,15
 221              		.syntax unified
 222              		.thumb
 223              		.thumb_func
 224              		.fpu fpv5-sp-d16
 225              		.type	new_joke, %function
 226              	new_joke:
 227              	.LVL12:
 228              	.LFB52:
 154:src/scenes/scene_game.c **** 
 155:src/scenes/scene_game.c **** static void init_player(PlaydateAPI *pd, GameSceneContext *gsc,
 156:src/scenes/scene_game.c ****                         GameAssets *assets) {
 157:src/scenes/scene_game.c ****   gsc->player.velocity = DEFAULT_BIRD_VELOCITY;
 158:src/scenes/scene_game.c **** 
 159:src/scenes/scene_game.c ****   float x, y;
 160:src/scenes/scene_game.c ****   pd->sprite->getPosition(assets->bird_sprite, &x, &y);
 161:src/scenes/scene_game.c ****   gsc->player.location.x = x;
 162:src/scenes/scene_game.c ****   gsc->player.location.y = y;
 163:src/scenes/scene_game.c **** 
 164:src/scenes/scene_game.c ****   gsc->player.hitbox = MLIBRECT_CREATE(16, 16, 80, 50);
 165:src/scenes/scene_game.c **** 
 166:src/scenes/scene_game.c ****   pd->graphics->getBitmapData(assets->bird_image, &gsc->player.size.width,
 167:src/scenes/scene_game.c ****                               &gsc->player.size.height, NULL, NULL, NULL);
 168:src/scenes/scene_game.c **** }
 169:src/scenes/scene_game.c **** 
 170:src/scenes/scene_game.c **** static void init_misc(PlaydateAPI *pd, GameSceneContext *gsc,
 171:src/scenes/scene_game.c ****                       GameAssets *assets) {
 172:src/scenes/scene_game.c ****   srand(pd->system->getCurrentTimeMilliseconds());
 173:src/scenes/scene_game.c **** 
 174:src/scenes/scene_game.c ****   gsc->tomato.active = false;
 175:src/scenes/scene_game.c **** 
 176:src/scenes/scene_game.c ****   int width, height;
 177:src/scenes/scene_game.c ****   pd->graphics->getBitmapData(assets->tomato_image, &width, &height, NULL, NULL,
 178:src/scenes/scene_game.c ****                               NULL);
 179:src/scenes/scene_game.c **** }
 180:src/scenes/scene_game.c **** 
ARM GAS  /tmp/ccIwehAI.s 			page 10


 181:src/scenes/scene_game.c **** static void init_speech_bubble(PlaydateAPI *pd, GameSceneContext *gsc,
 182:src/scenes/scene_game.c ****                                GameAssets *assets) {
 183:src/scenes/scene_game.c ****   pd->graphics->getBitmapData(
 184:src/scenes/scene_game.c ****       assets->speech_bubble_base_image, &gsc->speech_bubble.size.width,
 185:src/scenes/scene_game.c ****       &gsc->speech_bubble.size.height, NULL, NULL, NULL);
 186:src/scenes/scene_game.c **** 
 187:src/scenes/scene_game.c ****   gsc->heckle_index = 0;
 188:src/scenes/scene_game.c ****   gsc->heckles[gsc->heckle_index++] = "Booooo!";
 189:src/scenes/scene_game.c ****   gsc->heckles[gsc->heckle_index++] = "Get new material!";
 190:src/scenes/scene_game.c ****   gsc->heckles[gsc->heckle_index++] = "You suck!";
 191:src/scenes/scene_game.c ****   gsc->heckles[gsc->heckle_index++] = "Go home!";
 192:src/scenes/scene_game.c ****   gsc->heckles[gsc->heckle_index++] = "Get a job!";
 193:src/scenes/scene_game.c ****   gsc->heckles[gsc->heckle_index++] = "You're not funny!";
 194:src/scenes/scene_game.c ****   gsc->heckles[gsc->heckle_index++] = "I want a refund!";
 195:src/scenes/scene_game.c ****   gsc->heckle_index = 0;
 196:src/scenes/scene_game.c **** }
 197:src/scenes/scene_game.c **** 
 198:src/scenes/scene_game.c **** static void init_jokes(PlaydateAPI *pd, GameSceneContext *gsc,
 199:src/scenes/scene_game.c ****                        GameAssets *assets) {
 200:src/scenes/scene_game.c ****   gsc->joke_index = 0;
 201:src/scenes/scene_game.c ****   gsc->jokes[gsc->joke_index++] = "Where do fruits go on vacation?"
 202:src/scenes/scene_game.c ****                                   "Pear-is!";
 203:src/scenes/scene_game.c ****   gsc->jokes[gsc->joke_index++] =
 204:src/scenes/scene_game.c ****       "I'm afraid for the calendar. Its days are numbered!";
 205:src/scenes/scene_game.c ****   gsc->jokes[gsc->joke_index++] =
 206:src/scenes/scene_game.c ****       "I only know 25 letters of the alphabet. I don't know y.";
 207:src/scenes/scene_game.c ****   gsc->jokes[gsc->joke_index++] =
 208:src/scenes/scene_game.c ****       "Why couldn't the bicycle stand up by itself? It was two tired.";
 209:src/scenes/scene_game.c ****   gsc->jokes[gsc->joke_index++] =
 210:src/scenes/scene_game.c ****       "What do you call cheese that isn't yours? Nacho cheese.";
 211:src/scenes/scene_game.c ****   gsc->jokes[gsc->joke_index++] =
 212:src/scenes/scene_game.c ****       "Why did the chicken cross the road? To get to the other side.";
 213:src/scenes/scene_game.c ****   gsc->jokes[gsc->joke_index++] =
 214:src/scenes/scene_game.c ****       "Shout out to my fingers. I can count on all of them.";
 215:src/scenes/scene_game.c ****   gsc->jokes[gsc->joke_index++] =
 216:src/scenes/scene_game.c ****       "I made a pencil with two erasers. It was pointless.";
 217:src/scenes/scene_game.c ****   gsc->joke_index = 0;
 218:src/scenes/scene_game.c **** }
 219:src/scenes/scene_game.c **** 
 220:src/scenes/scene_game.c **** static void init_audience(PlaydateAPI *pd, GameSceneContext *gsc,
 221:src/scenes/scene_game.c ****                           GameAssets *assets) {
 222:src/scenes/scene_game.c **** 
 223:src/scenes/scene_game.c ****   gsc->audience[0].speech_location = MLIBPOINT_CREATE(45, 200);
 224:src/scenes/scene_game.c ****   gsc->audience[0].throw_location = MLIBPOINT_CREATE(69, 178);
 225:src/scenes/scene_game.c ****   gsc->audience[0].right = false;
 226:src/scenes/scene_game.c **** 
 227:src/scenes/scene_game.c ****   gsc->audience[1].speech_location = MLIBPOINT_CREATE(130, 200);
 228:src/scenes/scene_game.c ****   gsc->audience[1].throw_location = MLIBPOINT_CREATE(178, 168);
 229:src/scenes/scene_game.c ****   gsc->audience[1].right = false;
 230:src/scenes/scene_game.c **** 
 231:src/scenes/scene_game.c ****   gsc->audience[2].speech_location = MLIBPOINT_CREATE(200, 200);
 232:src/scenes/scene_game.c ****   gsc->audience[2].throw_location = MLIBPOINT_CREATE(199, 187);
 233:src/scenes/scene_game.c ****   gsc->audience[2].right = false;
 234:src/scenes/scene_game.c **** 
 235:src/scenes/scene_game.c ****   gsc->audience[3].speech_location = MLIBPOINT_CREATE(128, 200);
 236:src/scenes/scene_game.c ****   gsc->audience[3].throw_location = MLIBPOINT_CREATE(275, 175);
 237:src/scenes/scene_game.c ****   gsc->audience[3].right = true;
ARM GAS  /tmp/ccIwehAI.s 			page 11


 238:src/scenes/scene_game.c **** 
 239:src/scenes/scene_game.c ****   gsc->audience[4].speech_location = MLIBPOINT_CREATE(190, 200);
 240:src/scenes/scene_game.c ****   gsc->audience[4].throw_location = MLIBPOINT_CREATE(312, 140);
 241:src/scenes/scene_game.c ****   gsc->audience[4].right = true;
 242:src/scenes/scene_game.c **** 
 243:src/scenes/scene_game.c ****   gsc->audience_index = 0;
 244:src/scenes/scene_game.c **** }
 245:src/scenes/scene_game.c **** 
 246:src/scenes/scene_game.c **** // Text will be copied and can be deallocated
 247:src/scenes/scene_game.c **** static void show_speech(GameContext *game, GameAssets *assets, MLIBPoint p,
 248:src/scenes/scene_game.c ****                         char *text, bool flipped) {
 249:src/scenes/scene_game.c ****   PlaydateAPI *pd = game->pd;
 250:src/scenes/scene_game.c ****   GameSceneContext *gsc = (GameSceneContext *)game->game_userdata;
 251:src/scenes/scene_game.c ****   snprintf(gsc->speech_bubble.line1, SPEECH_BUBBLE_LEN, text);
 252:src/scenes/scene_game.c ****   pd->graphics->pushContext(assets->speech_bubble_image);
 253:src/scenes/scene_game.c ****   pd->graphics->fillRect(0, 0, gsc->speech_bubble.size.width,
 254:src/scenes/scene_game.c ****                          gsc->speech_bubble.size.height, kColorWhite);
 255:src/scenes/scene_game.c **** 
 256:src/scenes/scene_game.c ****   if (flipped) {
 257:src/scenes/scene_game.c ****     pd->graphics->drawBitmap(assets->speech_bubble_base_image, 0, 0,
 258:src/scenes/scene_game.c ****                              kBitmapUnflipped);
 259:src/scenes/scene_game.c ****   } else {
 260:src/scenes/scene_game.c ****     pd->graphics->drawBitmap(assets->speech_bubble_base_image, 0, 0,
 261:src/scenes/scene_game.c ****                              kBitmapFlippedX);
 262:src/scenes/scene_game.c ****   }
 263:src/scenes/scene_game.c **** 
 264:src/scenes/scene_game.c ****   pd->graphics->setFont(game->main_font);
 265:src/scenes/scene_game.c ****   int tracking = pd->graphics->getTextTracking();
 266:src/scenes/scene_game.c ****   int width = pd->graphics->getTextWidth(
 267:src/scenes/scene_game.c ****       game->main_font, gsc->speech_bubble.line1,
 268:src/scenes/scene_game.c ****       strlen(gsc->speech_bubble.line1), kASCIIEncoding, tracking);
 269:src/scenes/scene_game.c **** 
 270:src/scenes/scene_game.c ****   pd->graphics->drawText(gsc->speech_bubble.line1,
 271:src/scenes/scene_game.c ****                          strlen(gsc->speech_bubble.line1), kASCIIEncoding,
 272:src/scenes/scene_game.c ****                          (gsc->speech_bubble.size.width - width) / 2, 15);
 273:src/scenes/scene_game.c ****   pd->graphics->popContext();
 274:src/scenes/scene_game.c **** 
 275:src/scenes/scene_game.c ****   pd->sprite->setVisible(assets->speech_bubble_sprite, true);
 276:src/scenes/scene_game.c ****   pd->sprite->moveTo(assets->speech_bubble_sprite,
 277:src/scenes/scene_game.c ****                      p.x + gsc->speech_bubble.size.width / 2,
 278:src/scenes/scene_game.c ****                      p.y - gsc->speech_bubble.size.height / 2);
 279:src/scenes/scene_game.c **** }
 280:src/scenes/scene_game.c **** 
 281:src/scenes/scene_game.c **** static void hide_speech(GameContext *game, GameAssets *assets) {
 282:src/scenes/scene_game.c ****   PlaydateAPI *pd = game->pd;
 283:src/scenes/scene_game.c ****   pd->sprite->setVisible(assets->speech_bubble_sprite, false);
 284:src/scenes/scene_game.c **** }
 285:src/scenes/scene_game.c **** 
 286:src/scenes/scene_game.c **** static void handle_movement(PlaydateAPI *pd, GameSceneContext *gsc,
 287:src/scenes/scene_game.c ****                             PDButtons debounced_buttons, GameAssets *assets) {
 288:src/scenes/scene_game.c ****   if ((debounced_buttons & kButtonLeft)) {
 289:src/scenes/scene_game.c ****     move_player(pd, &gsc->player, assets, -1 * gsc->player.velocity);
 290:src/scenes/scene_game.c ****   } else if ((debounced_buttons & kButtonRight)) {
 291:src/scenes/scene_game.c ****     move_player(pd, &gsc->player, assets, gsc->player.velocity);
 292:src/scenes/scene_game.c ****   }
 293:src/scenes/scene_game.c **** }
 294:src/scenes/scene_game.c **** 
ARM GAS  /tmp/ccIwehAI.s 			page 12


 295:src/scenes/scene_game.c **** static void update_tomato(GameContext *game, GameAssets *assets) {
 296:src/scenes/scene_game.c ****   PlaydateAPI *pd = game->pd;
 297:src/scenes/scene_game.c ****   GameSceneContext *gsc = (GameSceneContext *)game->game_userdata;
 298:src/scenes/scene_game.c ****   if (gsc->tomato.active) {
 299:src/scenes/scene_game.c ****     gsc->tomato.location.x += gsc->tomato.velocity.x;
 300:src/scenes/scene_game.c ****     gsc->tomato.location.y += gsc->tomato.velocity.y;
 301:src/scenes/scene_game.c **** 
 302:src/scenes/scene_game.c ****     MLIBPoint p =
 303:src/scenes/scene_game.c ****         MLIBPOINT_CREATE(gsc->tomato.location.x, gsc->tomato.location.y);
 304:src/scenes/scene_game.c ****     PDRect bounds = pd->sprite->getBounds(assets->bird_sprite);
 305:src/scenes/scene_game.c **** 
 306:src/scenes/scene_game.c ****     if (MLIB_POINT_IN_RECT(p, MLIBRECT_CREATE(bounds.x + gsc->player.hitbox.x,
 307:src/scenes/scene_game.c ****                                               bounds.y + gsc->player.hitbox.y,
 308:src/scenes/scene_game.c ****                                               gsc->player.hitbox.width,
 309:src/scenes/scene_game.c ****                                               gsc->player.hitbox.height))) {
 310:src/scenes/scene_game.c ****       hide_tomato(game, assets);
 311:src/scenes/scene_game.c ****       kill_player(game, assets);
 312:src/scenes/scene_game.c ****     } else if (MLIB_POINT_IN_RECT(p, SCREEN_BOUNDS)) {
 313:src/scenes/scene_game.c ****       pd->sprite->moveTo(assets->tomato_sprite, (int)gsc->tomato.location.x,
 314:src/scenes/scene_game.c ****                          (int)gsc->tomato.location.y);
 315:src/scenes/scene_game.c ****     } else {
 316:src/scenes/scene_game.c ****       new_joke(game, assets);
 317:src/scenes/scene_game.c ****       hide_tomato(game, assets);
 318:src/scenes/scene_game.c ****     }
 319:src/scenes/scene_game.c ****   }
 320:src/scenes/scene_game.c **** }
 321:src/scenes/scene_game.c **** static void update_state(GameContext *game, GameAssets *assets) {
 322:src/scenes/scene_game.c ****   PlaydateAPI *pd = game->pd;
 323:src/scenes/scene_game.c ****   GameSceneContext *gsc = (GameSceneContext *)game->game_userdata;
 324:src/scenes/scene_game.c **** 
 325:src/scenes/scene_game.c ****   switch (gsc->state) {
 326:src/scenes/scene_game.c ****   case STATE_JOKE:
 327:src/scenes/scene_game.c ****     if (pd->system->getElapsedTime() > gsc->change_state_time) {
 328:src/scenes/scene_game.c ****       gsc->audience_index = rand_int_range(0, AUDIENCE_MEMBER_COUNT);
 329:src/scenes/scene_game.c ****       gsc->heckle_index = rand_int_range(0, HECKLE_COUNT);
 330:src/scenes/scene_game.c **** 
 331:src/scenes/scene_game.c ****       show_speech(game, assets,
 332:src/scenes/scene_game.c ****                   gsc->audience[gsc->audience_index].speech_location,
 333:src/scenes/scene_game.c ****                   gsc->heckles[gsc->heckle_index],
 334:src/scenes/scene_game.c ****                   !gsc->audience[gsc->audience_index].right);
 335:src/scenes/scene_game.c **** 
 336:src/scenes/scene_game.c ****       gsc->change_state_time = HECKLE_S;
 337:src/scenes/scene_game.c ****       gsc->state = STATE_HECKLING;
 338:src/scenes/scene_game.c ****       pd->system->resetElapsedTime();
 339:src/scenes/scene_game.c ****       gsc->player_location_bookmark = gsc->player.location;
 340:src/scenes/scene_game.c ****       hide_joke(game, assets);
 341:src/scenes/scene_game.c ****     }
 342:src/scenes/scene_game.c ****     break;
 343:src/scenes/scene_game.c ****   case STATE_HECKLING:
 344:src/scenes/scene_game.c ****     if (pd->system->getElapsedTime() > gsc->change_state_time) {
 345:src/scenes/scene_game.c ****       hide_speech(game, assets);
 346:src/scenes/scene_game.c **** 
 347:src/scenes/scene_game.c ****       throw_tomato(game, assets,
 348:src/scenes/scene_game.c ****                    gsc->audience[gsc->audience_index].throw_location,
 349:src/scenes/scene_game.c ****                    gsc->player_location_bookmark, 20);
 350:src/scenes/scene_game.c ****     }
 351:src/scenes/scene_game.c ****     break;
ARM GAS  /tmp/ccIwehAI.s 			page 13


 352:src/scenes/scene_game.c ****   default:
 353:src/scenes/scene_game.c ****     break;
 354:src/scenes/scene_game.c ****   }
 355:src/scenes/scene_game.c **** }
 356:src/scenes/scene_game.c **** 
 357:src/scenes/scene_game.c **** static void throw_tomato(GameContext *game, GameAssets *assets, MLIBPoint start,
 358:src/scenes/scene_game.c ****                          MLIBPoint end, int steps) {
 359:src/scenes/scene_game.c ****   PlaydateAPI *pd = game->pd;
 360:src/scenes/scene_game.c ****   GameSceneContext *gsc = (GameSceneContext *)game->game_userdata;
 361:src/scenes/scene_game.c **** 
 362:src/scenes/scene_game.c ****   gsc->tomato.active = true;
 363:src/scenes/scene_game.c ****   gsc->tomato.location = MLIBFPOINT_CREATE(start.x, start.y);
 364:src/scenes/scene_game.c ****   gsc->tomato.velocity =
 365:src/scenes/scene_game.c ****       MLIBFPOINT_CREATE((end.x - start.x) / steps, (end.y - start.y) / steps);
 366:src/scenes/scene_game.c ****   pd->sprite->moveTo(assets->tomato_sprite, start.x, start.y);
 367:src/scenes/scene_game.c ****   pd->sprite->setVisible(assets->tomato_sprite, true);
 368:src/scenes/scene_game.c **** 
 369:src/scenes/scene_game.c ****   gsc->state = STATE_THROWING;
 370:src/scenes/scene_game.c **** }
 371:src/scenes/scene_game.c **** 
 372:src/scenes/scene_game.c **** static void hide_tomato(GameContext *game, GameAssets *assets) {
 373:src/scenes/scene_game.c ****   PlaydateAPI *pd = game->pd;
 374:src/scenes/scene_game.c ****   GameSceneContext *gsc = (GameSceneContext *)game->game_userdata;
 375:src/scenes/scene_game.c ****   gsc->tomato.active = false;
 376:src/scenes/scene_game.c ****   pd->sprite->setVisible(assets->tomato_sprite, false);
 377:src/scenes/scene_game.c **** }
 378:src/scenes/scene_game.c **** 
 379:src/scenes/scene_game.c **** static void kill_player(GameContext *game, GameAssets *assets) {
 380:src/scenes/scene_game.c ****   PlaydateAPI *pd = game->pd;
 381:src/scenes/scene_game.c ****   GameSceneContext *gsc = (GameSceneContext *)game->game_userdata;
 382:src/scenes/scene_game.c ****   gsc->state = STATE_GAME_OVER;
 383:src/scenes/scene_game.c ****   pd->sprite->setImageFlip(assets->bird_sprite, kBitmapFlippedY);
 384:src/scenes/scene_game.c **** }
 385:src/scenes/scene_game.c **** 
 386:src/scenes/scene_game.c **** static void reset_game(GameContext *game, GameAssets *assets) {
 387:src/scenes/scene_game.c ****   PlaydateAPI *pd = game->pd;
 388:src/scenes/scene_game.c ****   GameSceneContext *gsc = (GameSceneContext *)game->game_userdata;
 389:src/scenes/scene_game.c **** 
 390:src/scenes/scene_game.c ****   new_joke(game, assets);
 391:src/scenes/scene_game.c **** 
 392:src/scenes/scene_game.c ****   pd->sprite->setImageFlip(assets->bird_sprite, kBitmapUnflipped);
 393:src/scenes/scene_game.c **** }
 394:src/scenes/scene_game.c **** 
 395:src/scenes/scene_game.c **** static void new_joke(GameContext *game, GameAssets *assets) {
 229              		.loc 1 395 61 is_stmt 1 view -0
 230              		.cfi_startproc
 231              		@ args = 0, pretend = 0, frame = 0
 232              		@ frame_needed = 0, uses_anonymous_args = 0
 396:src/scenes/scene_game.c ****   PlaydateAPI *pd = game->pd;
 233              		.loc 1 396 3 view .LVU30
 234              	@ src/scenes/scene_game.c:395: static void new_joke(GameContext *game, GameAssets *assets) {
 395:src/scenes/scene_game.c ****   PlaydateAPI *pd = game->pd;
 235              		.loc 1 395 61 is_stmt 0 view .LVU31
 236 0000 2DE9F043 		push	{r4, r5, r6, r7, r8, r9, lr}	@
 237              	.LCFI2:
 238              		.cfi_def_cfa_offset 28
 239              		.cfi_offset 4, -28
ARM GAS  /tmp/ccIwehAI.s 			page 14


 240              		.cfi_offset 5, -24
 241              		.cfi_offset 6, -20
 242              		.cfi_offset 7, -16
 243              		.cfi_offset 8, -12
 244              		.cfi_offset 9, -8
 245              		.cfi_offset 14, -4
 246              	@ src/scenes/scene_game.c:399:   gsc->change_state_time = AFTER_JOKE_WAIT_S;
 397:src/scenes/scene_game.c ****   GameSceneContext *gsc = (GameSceneContext *)game->game_userdata;
 398:src/scenes/scene_game.c ****   gsc->state = STATE_JOKE;
 399:src/scenes/scene_game.c ****   gsc->change_state_time = AFTER_JOKE_WAIT_S;
 247              		.loc 1 399 26 view .LVU32
 248 0004 4FF08043 		mov	r3, #1073741824	@ tmp153,
 249              	@ src/scenes/scene_game.c:396:   PlaydateAPI *pd = game->pd;
 396:src/scenes/scene_game.c ****   GameSceneContext *gsc = (GameSceneContext *)game->game_userdata;
 250              		.loc 1 396 16 view .LVU33
 251 0008 0468     		ldr	r4, [r0]	@ pd, game_31(D)->pd
 252              	.LVL13:
 397:src/scenes/scene_game.c ****   GameSceneContext *gsc = (GameSceneContext *)game->game_userdata;
 253              		.loc 1 397 3 is_stmt 1 view .LVU34
 254              	@ src/scenes/scene_game.c:398:   gsc->state = STATE_JOKE;
 398:src/scenes/scene_game.c ****   gsc->change_state_time = AFTER_JOKE_WAIT_S;
 255              		.loc 1 398 14 is_stmt 0 view .LVU35
 256 000a 0025     		movs	r5, #0	@ tmp151,
 257              	@ src/scenes/scene_game.c:397:   GameSceneContext *gsc = (GameSceneContext *)game->game_userdata;
 397:src/scenes/scene_game.c ****   GameSceneContext *gsc = (GameSceneContext *)game->game_userdata;
 258              		.loc 1 397 21 view .LVU36
 259 000c D0F83080 		ldr	r8, [r0, #48]	@ gsc, game_31(D)->game_userdata
 260              	.LVL14:
 398:src/scenes/scene_game.c ****   gsc->change_state_time = AFTER_JOKE_WAIT_S;
 261              		.loc 1 398 3 is_stmt 1 view .LVU37
 262              	@ src/scenes/scene_game.c:395: static void new_joke(GameContext *game, GameAssets *assets) {
 395:src/scenes/scene_game.c ****   PlaydateAPI *pd = game->pd;
 263              		.loc 1 395 61 is_stmt 0 view .LVU38
 264 0010 83B0     		sub	sp, sp, #12	@,,
 265              	.LCFI3:
 266              		.cfi_def_cfa_offset 40
 267              	@ src/scenes/scene_game.c:395: static void new_joke(GameContext *game, GameAssets *assets) {
 395:src/scenes/scene_game.c ****   PlaydateAPI *pd = game->pd;
 268              		.loc 1 395 61 view .LVU39
 269 0012 0E46     		mov	r6, r1	@ assets, tmp193
 270              	@ src/scenes/scene_game.c:398:   gsc->state = STATE_JOKE;
 398:src/scenes/scene_game.c ****   gsc->change_state_time = AFTER_JOKE_WAIT_S;
 271              		.loc 1 398 14 view .LVU40
 272 0014 88F83051 		strb	r5, [r8, #304]	@ tmp151, gsc_33->state
 273              		.loc 1 399 3 is_stmt 1 view .LVU41
 400:src/scenes/scene_game.c ****   pd->system->resetElapsedTime();
 274              		.loc 1 400 3 view .LVU42
 275              	@ src/scenes/scene_game.c:395: static void new_joke(GameContext *game, GameAssets *assets) {
 395:src/scenes/scene_game.c ****   PlaydateAPI *pd = game->pd;
 276              		.loc 1 395 61 is_stmt 0 view .LVU43
 277 0018 0746     		mov	r7, r0	@ game, tmp192
 278              	@ src/scenes/scene_game.c:399:   gsc->change_state_time = AFTER_JOKE_WAIT_S;
 399:src/scenes/scene_game.c ****   pd->system->resetElapsedTime();
 279              		.loc 1 399 26 view .LVU44
 280 001a C8F82431 		str	r3, [r8, #292]	@ float	@ tmp153, gsc_33->change_state_time
 281              	@ src/scenes/scene_game.c:400:   pd->system->resetElapsedTime();
 282              		.loc 1 400 13 view .LVU45
ARM GAS  /tmp/ccIwehAI.s 			page 15


 283 001e 2368     		ldr	r3, [r4]	@ pd_32->system, pd_32->system
 284              	@ src/scenes/scene_game.c:400:   pd->system->resetElapsedTime();
 285              		.loc 1 400 3 view .LVU46
 286 0020 D3F88030 		ldr	r3, [r3, #128]	@ _1->resetElapsedTime, _1->resetElapsedTime
 287 0024 9847     		blx	r3		@ _1->resetElapsedTime
 288              	.LVL15:
 401:src/scenes/scene_game.c ****   gsc->joke_index = rand_int_range(0, JOKE_COUNT);
 289              		.loc 1 401 3 is_stmt 1 view .LVU47
 290              	.LBB64:
 291              	.LBI64:
  93:src/scenes/scene_game.c ****   return (rand() % (max - min)) + min;
 292              		.loc 1 93 12 view .LVU48
 293              	.LBB65:
  94:src/scenes/scene_game.c **** }
 294              		.loc 1 94 3 view .LVU49
 295              	@ src/scenes/scene_game.c:94:   return (rand() % (max - min)) + min;
  94:src/scenes/scene_game.c **** }
 296              		.loc 1 94 11 is_stmt 0 view .LVU50
 297 0026 FFF7FEFF 		bl	rand		@
 298              	.LVL16:
 299              	.LBE65:
 300              	.LBE64:
 301              	@ src/scenes/scene_game.c:403:   pd->graphics->pushContext(assets->joke_bubble_image);
 402:src/scenes/scene_game.c ****   char *joke = gsc->jokes[gsc->joke_index];
 403:src/scenes/scene_game.c ****   pd->graphics->pushContext(assets->joke_bubble_image);
 302              		.loc 1 403 15 view .LVU51
 303 002a A268     		ldr	r2, [r4, #8]	@ pd_32->graphics, pd_32->graphics
 304              	.LBB69:
 305              	.LBB66:
 306              	@ src/scenes/scene_game.c:94:   return (rand() % (max - min)) + min;
  94:src/scenes/scene_game.c **** }
 307              		.loc 1 94 18 view .LVU52
 308 002c 00F00703 		and	r3, r0, #7	@ _52, _51,
 309              	.LBE66:
 310              	.LBE69:
 311              	@ src/scenes/scene_game.c:403:   pd->graphics->pushContext(assets->joke_bubble_image);
 312              		.loc 1 403 3 view .LVU53
 313 0030 D16A     		ldr	r1, [r2, #44]	@ _3->pushContext, _3->pushContext
 314              	.LBB70:
 315              	.LBB67:
 316              	@ src/scenes/scene_game.c:94:   return (rand() % (max - min)) + min;
  94:src/scenes/scene_game.c **** }
 317              		.loc 1 94 18 view .LVU54
 318 0032 2A1A     		subs	r2, r5, r0	@ tmp156,, _51
 319              	.LBE67:
 320              	.LBE70:
 321              	@ src/scenes/scene_game.c:403:   pd->graphics->pushContext(assets->joke_bubble_image);
 322              		.loc 1 403 3 view .LVU55
 323 0034 B06A     		ldr	r0, [r6, #40]	@, assets_39(D)->joke_bubble_image
 324              	.LBB71:
 325              	.LBB68:
 326              	@ src/scenes/scene_game.c:94:   return (rand() % (max - min)) + min;
  94:src/scenes/scene_game.c **** }
 327              		.loc 1 94 18 view .LVU56
 328 0036 02F00702 		and	r2, r2, #7	@ tmp157, tmp156,
 329 003a 58BF     		it	pl
 330 003c 5342     		rsbpl	r3, r2, #0	@ _52, tmp157
ARM GAS  /tmp/ccIwehAI.s 			page 16


 331              	.LVL17:
  94:src/scenes/scene_game.c **** }
 332              		.loc 1 94 18 view .LVU57
 333              	.LBE68:
 334              	.LBE71:
 335              	@ src/scenes/scene_game.c:401:   gsc->joke_index = rand_int_range(0, JOKE_COUNT);
 401:src/scenes/scene_game.c ****   char *joke = gsc->jokes[gsc->joke_index];
 336              		.loc 1 401 19 view .LVU58
 337 003e C8F82031 		str	r3, [r8, #288]	@ _52, gsc_33->joke_index
 402:src/scenes/scene_game.c ****   char *joke = gsc->jokes[gsc->joke_index];
 338              		.loc 1 402 3 is_stmt 1 view .LVU59
 339              	@ src/scenes/scene_game.c:402:   char *joke = gsc->jokes[gsc->joke_index];
 402:src/scenes/scene_game.c ****   char *joke = gsc->jokes[gsc->joke_index];
 340              		.loc 1 402 9 is_stmt 0 view .LVU60
 341 0042 08EB8303 		add	r3, r8, r3, lsl #2	@ tmp159, gsc, _52,
 342 0046 D3F8FC80 		ldr	r8, [r3, #252]	@ joke, gsc_33->jokes[_52]
 343              	.LVL18:
 344              		.loc 1 403 3 is_stmt 1 view .LVU61
 345 004a 8847     		blx	r1		@ _3->pushContext
 346              	.LVL19:
 404:src/scenes/scene_game.c ****   pd->graphics->fillRect(0, 0, 400, 240, kColorWhite);
 347              		.loc 1 404 3 view .LVU62
 348              	@ src/scenes/scene_game.c:404:   pd->graphics->fillRect(0, 0, 400, 240, kColorWhite);
 349              		.loc 1 404 15 is_stmt 0 view .LVU63
 350 004c A368     		ldr	r3, [r4, #8]	@ pd_32->graphics, pd_32->graphics
 351              	@ src/scenes/scene_game.c:404:   pd->graphics->fillRect(0, 0, 400, 240, kColorWhite);
 352              		.loc 1 404 3 view .LVU64
 353 004e 0122     		movs	r2, #1	@ tmp165,
 354 0050 2946     		mov	r1, r5	@, tmp151
 355 0052 2846     		mov	r0, r5	@, tmp151
 356 0054 0092     		str	r2, [sp]	@ tmp165,
 357 0056 4FF4C872 		mov	r2, #400	@,
 358 005a D3F84890 		ldr	r9, [r3, #72]	@ _6->fillRect, _6->fillRect
 359 005e F023     		movs	r3, #240	@,
 360 0060 C847     		blx	r9		@ _6->fillRect
 361              	.LVL20:
 405:src/scenes/scene_game.c ****   pd->graphics->drawBitmap(assets->joke_bubble_base_image, 0, 0,
 362              		.loc 1 405 3 is_stmt 1 view .LVU65
 363              	@ src/scenes/scene_game.c:405:   pd->graphics->drawBitmap(assets->joke_bubble_base_image, 0, 0,
 364              		.loc 1 405 15 is_stmt 0 view .LVU66
 365 0062 A368     		ldr	r3, [r4, #8]	@ pd_32->graphics, pd_32->graphics
 366              	@ src/scenes/scene_game.c:405:   pd->graphics->drawBitmap(assets->joke_bubble_base_image, 0, 0,
 367              		.loc 1 405 3 view .LVU67
 368 0064 2A46     		mov	r2, r5	@, tmp151
 369 0066 2946     		mov	r1, r5	@, tmp151
 370 0068 D3F83490 		ldr	r9, [r3, #52]	@ _8->drawBitmap, _8->drawBitmap
 371 006c 2B46     		mov	r3, r5	@, tmp151
 372 006e 706B     		ldr	r0, [r6, #52]	@, assets_39(D)->joke_bubble_base_image
 373 0070 C847     		blx	r9		@ _8->drawBitmap
 374              	.LVL21:
 406:src/scenes/scene_game.c ****                            kBitmapUnflipped);
 407:src/scenes/scene_game.c ****   pd->graphics->setFont(game->main_font);
 375              		.loc 1 407 3 is_stmt 1 view .LVU68
 376              	@ src/scenes/scene_game.c:407:   pd->graphics->setFont(game->main_font);
 377              		.loc 1 407 15 is_stmt 0 view .LVU69
 378 0072 A368     		ldr	r3, [r4, #8]	@ pd_32->graphics, pd_32->graphics
 379              	@ src/scenes/scene_game.c:407:   pd->graphics->setFont(game->main_font);
ARM GAS  /tmp/ccIwehAI.s 			page 17


 380              		.loc 1 407 3 view .LVU70
 381 0074 786B     		ldr	r0, [r7, #52]	@, game_31(D)->main_font
 382 0076 5B6A     		ldr	r3, [r3, #36]	@ _11->setFont, _11->setFont
 383 0078 9847     		blx	r3		@ _11->setFont
 384              	.LVL22:
 408:src/scenes/scene_game.c ****   int tracking = pd->graphics->getTextTracking();
 385              		.loc 1 408 3 is_stmt 1 view .LVU71
 386              	@ src/scenes/scene_game.c:408:   int tracking = pd->graphics->getTextTracking();
 387              		.loc 1 408 30 is_stmt 0 view .LVU72
 388 007a A368     		ldr	r3, [r4, #8]	@ pd_32->graphics, pd_32->graphics
 389              	@ src/scenes/scene_game.c:408:   int tracking = pd->graphics->getTextTracking();
 390              		.loc 1 408 18 view .LVU73
 391 007c D3F8EC30 		ldr	r3, [r3, #236]	@ _14->getTextTracking, _14->getTextTracking
 392 0080 9847     		blx	r3		@ _14->getTextTracking
 393              	.LVL23:
 394 0082 8146     		mov	r9, r0	@ tracking, tmp195
 395              	.LVL24:
 409:src/scenes/scene_game.c ****   int width = pd->graphics->getTextWidth(game->main_font, joke, strlen(joke),
 396              		.loc 1 409 3 is_stmt 1 view .LVU74
 397              	@ src/scenes/scene_game.c:409:   int width = pd->graphics->getTextWidth(game->main_font, joke, strl
 398              		.loc 1 409 15 is_stmt 0 view .LVU75
 399 0084 4046     		mov	r0, r8	@, joke
 400              	.LVL25:
 401              		.loc 1 409 15 view .LVU76
 402 0086 FFF7FEFF 		bl	strlen		@
 403              	.LVL26:
 404              	@ src/scenes/scene_game.c:409:   int width = pd->graphics->getTextWidth(game->main_font, joke, strl
 405              		.loc 1 409 27 view .LVU77
 406 008a A168     		ldr	r1, [r4, #8]	@ pd_32->graphics, pd_32->graphics
 407              	@ src/scenes/scene_game.c:409:   int width = pd->graphics->getTextWidth(game->main_font, joke, strl
 408              		.loc 1 409 15 view .LVU78
 409 008c 0246     		mov	r2, r0	@ tmp196,
 410 008e 2B46     		mov	r3, r5	@, tmp151
 411 0090 786B     		ldr	r0, [r7, #52]	@, game_31(D)->main_font
 412 0092 CDF80090 		str	r9, [sp]	@ tracking,
 413 0096 D1F8A050 		ldr	r5, [r1, #160]	@ _16->getTextWidth, _16->getTextWidth
 414 009a 4146     		mov	r1, r8	@, joke
 415 009c A847     		blx	r5		@ _16->getTextWidth
 416              	.LVL27:
 417 009e 0546     		mov	r5, r0	@ tmp197,
 418              	@ src/scenes/scene_game.c:411:   pd->graphics->drawText(joke, strlen(joke), kASCIIEncoding, (384 - 
 410:src/scenes/scene_game.c ****                                          kASCIIEncoding, tracking);
 411:src/scenes/scene_game.c ****   pd->graphics->drawText(joke, strlen(joke), kASCIIEncoding, (384 - width) / 2,
 419              		.loc 1 411 3 view .LVU79
 420 00a0 4046     		mov	r0, r8	@, joke
 421              	.LVL28:
 422              		.loc 1 411 3 is_stmt 1 view .LVU80
 423 00a2 FFF7FEFF 		bl	strlen		@
 424              	.LVL29:
 425 00a6 D5F5C073 		rsbs	r3, r5, #384	@ tmp182, width,
 426              	@ src/scenes/scene_game.c:411:   pd->graphics->drawText(joke, strlen(joke), kASCIIEncoding, (384 - 
 427              		.loc 1 411 15 is_stmt 0 view .LVU81
 428 00aa A268     		ldr	r2, [r4, #8]	@ pd_32->graphics, pd_32->graphics
 429              	@ src/scenes/scene_game.c:411:   pd->graphics->drawText(joke, strlen(joke), kASCIIEncoding, (384 - 
 430              		.loc 1 411 3 view .LVU82
 431 00ac 4FF00A05 		mov	r5, #10	@ tmp185,
 432              	.LVL30:
ARM GAS  /tmp/ccIwehAI.s 			page 18


 433              		.loc 1 411 3 view .LVU83
 434 00b0 48BF     		it	mi
 435 00b2 0133     		addmi	r3, r3, #1	@ tmp182, tmp182,
 436 00b4 0146     		mov	r1, r0	@ _22, tmp198
 437 00b6 0095     		str	r5, [sp]	@ tmp185,
 438 00b8 4046     		mov	r0, r8	@, joke
 439 00ba 956D     		ldr	r5, [r2, #88]	@ _20->drawText, _20->drawText
 440 00bc 5B10     		asrs	r3, r3, #1	@, tmp182,
 441 00be 0022     		movs	r2, #0	@,
 442 00c0 A847     		blx	r5		@ _20->drawText
 443              	.LVL31:
 412:src/scenes/scene_game.c ****                          10);
 413:src/scenes/scene_game.c ****   pd->graphics->popContext();
 444              		.loc 1 413 3 is_stmt 1 view .LVU84
 445              	@ src/scenes/scene_game.c:413:   pd->graphics->popContext();
 446              		.loc 1 413 15 is_stmt 0 view .LVU85
 447 00c2 A368     		ldr	r3, [r4, #8]	@ pd_32->graphics, pd_32->graphics
 448              	@ src/scenes/scene_game.c:413:   pd->graphics->popContext();
 449              		.loc 1 413 3 view .LVU86
 450 00c4 1B6B     		ldr	r3, [r3, #48]	@ _25->popContext, _25->popContext
 451 00c6 9847     		blx	r3		@ _25->popContext
 452              	.LVL32:
 414:src/scenes/scene_game.c ****   pd->sprite->setVisible(assets->joke_bubble_sprite, true);
 453              		.loc 1 414 3 is_stmt 1 view .LVU87
 454              	@ src/scenes/scene_game.c:414:   pd->sprite->setVisible(assets->joke_bubble_sprite, true);
 455              		.loc 1 414 13 is_stmt 0 view .LVU88
 456 00c8 E368     		ldr	r3, [r4, #12]	@ pd_32->sprite, pd_32->sprite
 457              	@ src/scenes/scene_game.c:414:   pd->sprite->setVisible(assets->joke_bubble_sprite, true);
 458              		.loc 1 414 3 view .LVU89
 459 00ca 0121     		movs	r1, #1	@,
 460 00cc F06A     		ldr	r0, [r6, #44]	@, assets_39(D)->joke_bubble_sprite
 461 00ce D3F88430 		ldr	r3, [r3, #132]	@ _27->setVisible, _27->setVisible
 462              	@ src/scenes/scene_game.c:415: }
 415:src/scenes/scene_game.c **** }
 463              		.loc 1 415 1 view .LVU90
 464 00d2 03B0     		add	sp, sp, #12	@,,
 465              	.LCFI4:
 466              		.cfi_def_cfa_offset 28
 467              		@ sp needed	@
 468 00d4 BDE8F043 		pop	{r4, r5, r6, r7, r8, r9, lr}	@
 469              	.LCFI5:
 470              		.cfi_restore 14
 471              		.cfi_restore 9
 472              		.cfi_restore 8
 473              		.cfi_restore 7
 474              		.cfi_restore 6
 475              		.cfi_restore 5
 476              		.cfi_restore 4
 477              		.cfi_def_cfa_offset 0
 478              	.LVL33:
 479              	@ src/scenes/scene_game.c:414:   pd->sprite->setVisible(assets->joke_bubble_sprite, true);
 414:src/scenes/scene_game.c ****   pd->sprite->setVisible(assets->joke_bubble_sprite, true);
 480              		.loc 1 414 3 view .LVU91
 481 00d8 1847     		bx	r3	@ indirect register sibling call	@ _27->setVisible
 482              	.LVL34:
 483              		.cfi_endproc
 484              	.LFE52:
ARM GAS  /tmp/ccIwehAI.s 			page 19


 485              		.size	new_joke, .-new_joke
 486 00da 00BF     		.section	.rodata.init_game.str1.4,"aMS",%progbits,1
 487              		.align	2
 488              	.LC1:
 489 0000 426F6F6F 		.ascii	"Booooo!\000"
 489      6F6F2100 
 490              		.align	2
 491              	.LC2:
 492 0008 47657420 		.ascii	"Get new material!\000"
 492      6E657720 
 492      6D617465 
 492      7269616C 
 492      2100
 493 001a 0000     		.align	2
 494              	.LC3:
 495 001c 596F7520 		.ascii	"You suck!\000"
 495      7375636B 
 495      2100
 496 0026 0000     		.align	2
 497              	.LC4:
 498 0028 476F2068 		.ascii	"Go home!\000"
 498      6F6D6521 
 498      00
 499 0031 000000   		.align	2
 500              	.LC5:
 501 0034 47657420 		.ascii	"Get a job!\000"
 501      61206A6F 
 501      622100
 502 003f 00       		.align	2
 503              	.LC6:
 504 0040 596F7527 		.ascii	"You're not funny!\000"
 504      7265206E 
 504      6F742066 
 504      756E6E79 
 504      2100
 505 0052 0000     		.align	2
 506              	.LC7:
 507 0054 49207761 		.ascii	"I want a refund!\000"
 507      6E742061 
 507      20726566 
 507      756E6421 
 507      00
 508 0065 000000   		.align	2
 509              	.LC8:
 510 0068 57686572 		.ascii	"Where do fruits go on vacation?Pear-is!\000"
 510      6520646F 
 510      20667275 
 510      69747320 
 510      676F206F 
 511              		.align	2
 512              	.LC9:
 513 0090 49276D20 		.ascii	"I'm afraid for the calendar. Its days are numbered!"
 513      61667261 
 513      69642066 
 513      6F722074 
 513      68652063 
 514 00c3 00       		.ascii	"\000"
ARM GAS  /tmp/ccIwehAI.s 			page 20


 515              		.align	2
 516              	.LC10:
 517 00c4 49206F6E 		.ascii	"I only know 25 letters of the alphabet. I don't kno"
 517      6C79206B 
 517      6E6F7720 
 517      3235206C 
 517      65747465 
 518 00f7 7720792E 		.ascii	"w y.\000"
 518      00
 519              		.align	2
 520              	.LC11:
 521 00fc 57687920 		.ascii	"Why couldn't the bicycle stand up by itself? It was"
 521      636F756C 
 521      646E2774 
 521      20746865 
 521      20626963 
 522 012f 2074776F 		.ascii	" two tired.\000"
 522      20746972 
 522      65642E00 
 523 013b 00       		.align	2
 524              	.LC12:
 525 013c 57686174 		.ascii	"What do you call cheese that isn't yours? Nacho che"
 525      20646F20 
 525      796F7520 
 525      63616C6C 
 525      20636865 
 526 016f 6573652E 		.ascii	"ese.\000"
 526      00
 527              		.align	2
 528              	.LC13:
 529 0174 57687920 		.ascii	"Why did the chicken cross the road? To get to the o"
 529      64696420 
 529      74686520 
 529      63686963 
 529      6B656E20 
 530 01a7 74686572 		.ascii	"ther side.\000"
 530      20736964 
 530      652E00
 531 01b2 0000     		.align	2
 532              	.LC14:
 533 01b4 53686F75 		.ascii	"Shout out to my fingers. I can count on all of them"
 533      74206F75 
 533      7420746F 
 533      206D7920 
 533      66696E67 
 534 01e7 2E00     		.ascii	".\000"
 535 01e9 000000   		.align	2
 536              	.LC15:
 537 01ec 49206D61 		.ascii	"I made a pencil with two erasers. It was pointless."
 537      64652061 
 537      2070656E 
 537      63696C20 
 537      77697468 
 538 021f 00       		.ascii	"\000"
 539              		.section	.text.init_game,"ax",%progbits
 540              		.align	1
 541              		.p2align 4,,15
ARM GAS  /tmp/ccIwehAI.s 			page 21


 542              		.global	init_game
 543              		.syntax unified
 544              		.thumb
 545              		.thumb_func
 546              		.fpu fpv5-sp-d16
 547              		.type	init_game, %function
 548              	init_game:
 549              	.LVL35:
 550              	.LFB31:
  98:src/scenes/scene_game.c ****   PlaydateAPI *pd = game->pd;
 551              		.loc 1 98 55 is_stmt 1 view -0
 552              		.cfi_startproc
 553              		@ args = 0, pretend = 0, frame = 8
 554              		@ frame_needed = 0, uses_anonymous_args = 0
  99:src/scenes/scene_game.c **** 
 555              		.loc 1 99 3 view .LVU93
 556              	@ src/scenes/scene_game.c:98: void init_game(GameContext *game, GameAssets *assets) {
  98:src/scenes/scene_game.c ****   PlaydateAPI *pd = game->pd;
 557              		.loc 1 98 55 is_stmt 0 view .LVU94
 558 0000 2DE9F043 		push	{r4, r5, r6, r7, r8, r9, lr}	@
 559              	.LCFI6:
 560              		.cfi_def_cfa_offset 28
 561              		.cfi_offset 4, -28
 562              		.cfi_offset 5, -24
 563              		.cfi_offset 6, -20
 564              		.cfi_offset 7, -16
 565              		.cfi_offset 8, -12
 566              		.cfi_offset 9, -8
 567              		.cfi_offset 14, -4
 568 0004 0746     		mov	r7, r0	@ tmp221, game
 569              	@ src/scenes/scene_game.c:101:   game->debouncer.delay = DEBOUNCER_DELAY;
 101:src/scenes/scene_game.c **** 
 570              		.loc 1 101 25 view .LVU95
 571 0006 4FF00509 		mov	r9, #5	@ tmp140,
 572              	@ src/scenes/scene_game.c:103:   GameSceneContext *gsc = pd->system->realloc(NULL, sizeof(GameScene
 103:src/scenes/scene_game.c ****   game->game_userdata = gsc;
 573              		.loc 1 103 27 view .LVU96
 574 000a 0020     		movs	r0, #0	@,
 575              	.LVL36:
 576              	@ src/scenes/scene_game.c:98: void init_game(GameContext *game, GameAssets *assets) {
  98:src/scenes/scene_game.c ****   PlaydateAPI *pd = game->pd;
 577              		.loc 1 98 55 view .LVU97
 578 000c 85B0     		sub	sp, sp, #20	@,,
 579              	.LCFI7:
 580              		.cfi_def_cfa_offset 48
 581              	@ src/scenes/scene_game.c:99:   PlaydateAPI *pd = game->pd;
  99:src/scenes/scene_game.c **** 
 582              		.loc 1 99 16 view .LVU98
 583 000e D7F80080 		ldr	r8, [r7]	@ pd, game_4(D)->pd
 584              	.LVL37:
 101:src/scenes/scene_game.c **** 
 585              		.loc 1 101 3 is_stmt 1 view .LVU99
 586              	@ src/scenes/scene_game.c:98: void init_game(GameContext *game, GameAssets *assets) {
  98:src/scenes/scene_game.c ****   PlaydateAPI *pd = game->pd;
 587              		.loc 1 98 55 is_stmt 0 view .LVU100
 588 0012 0E46     		mov	r6, r1	@ tmp222, assets
 589              	@ src/scenes/scene_game.c:101:   game->debouncer.delay = DEBOUNCER_DELAY;
ARM GAS  /tmp/ccIwehAI.s 			page 22


 101:src/scenes/scene_game.c **** 
 590              		.loc 1 101 25 view .LVU101
 591 0014 C7F81890 		str	r9, [r7, #24]	@ tmp140, game_4(D)->debouncer.delay
 103:src/scenes/scene_game.c ****   game->game_userdata = gsc;
 592              		.loc 1 103 3 is_stmt 1 view .LVU102
 593              	@ src/scenes/scene_game.c:103:   GameSceneContext *gsc = pd->system->realloc(NULL, sizeof(GameScene
 103:src/scenes/scene_game.c ****   game->game_userdata = gsc;
 594              		.loc 1 103 27 is_stmt 0 view .LVU103
 595 0018 4FF49A71 		mov	r1, #308	@,
 596              	.LVL38:
 597              	@ src/scenes/scene_game.c:103:   GameSceneContext *gsc = pd->system->realloc(NULL, sizeof(GameScene
 103:src/scenes/scene_game.c ****   game->game_userdata = gsc;
 598              		.loc 1 103 37 view .LVU104
 599 001c D8F80030 		ldr	r3, [r8]	@ pd_5->system, pd_5->system
 600              	.LBB93:
 601              	.LBB94:
 602              	@ src/scenes/scene_game.c:166:   pd->graphics->getBitmapData(assets->bird_image, &gsc->player.size.
 166:src/scenes/scene_game.c ****                               &gsc->player.size.height, NULL, NULL, NULL);
 603              		.loc 1 166 3 view .LVU105
 604 0020 0546     		mov	r5, r0	@ tmp160,
 605              	.LBE94:
 606              	.LBE93:
 607              	@ src/scenes/scene_game.c:103:   GameSceneContext *gsc = pd->system->realloc(NULL, sizeof(GameScene
 103:src/scenes/scene_game.c ****   game->game_userdata = gsc;
 608              		.loc 1 103 27 view .LVU106
 609 0022 1B68     		ldr	r3, [r3]	@ _1->realloc, _1->realloc
 610 0024 9847     		blx	r3		@ _1->realloc
 611              	.LVL39:
 612              	.LBB99:
 613              	.LBB96:
 614              	@ src/scenes/scene_game.c:160:   pd->sprite->getPosition(assets->bird_sprite, &x, &y);
 160:src/scenes/scene_game.c ****   gsc->player.location.x = x;
 615              		.loc 1 160 13 view .LVU107
 616 0026 D8F80C30 		ldr	r3, [r8, #12]	@ pd_5->sprite, pd_5->sprite
 617              	.LBE96:
 618              	.LBE99:
 619              	@ src/scenes/scene_game.c:103:   GameSceneContext *gsc = pd->system->realloc(NULL, sizeof(GameScene
 103:src/scenes/scene_game.c ****   game->game_userdata = gsc;
 620              		.loc 1 103 27 view .LVU108
 621 002a 0446     		mov	r4, r0	@ gsc, tmp223
 622              	.LVL40:
 104:src/scenes/scene_game.c ****   init_player(pd, gsc, assets);
 623              		.loc 1 104 3 is_stmt 1 view .LVU109
 624              	@ src/scenes/scene_game.c:104:   game->game_userdata = gsc;
 104:src/scenes/scene_game.c ****   init_player(pd, gsc, assets);
 625              		.loc 1 104 23 is_stmt 0 view .LVU110
 626 002c 3863     		str	r0, [r7, #48]	@ gsc, game_4(D)->game_userdata
 105:src/scenes/scene_game.c ****   init_audience(pd, gsc, assets);
 627              		.loc 1 105 3 is_stmt 1 view .LVU111
 628              	.LVL41:
 629              	.LBB100:
 630              	.LBI93:
 155:src/scenes/scene_game.c ****                         GameAssets *assets) {
 631              		.loc 1 155 13 view .LVU112
 632              	.LBB97:
 157:src/scenes/scene_game.c **** 
 633              		.loc 1 157 3 view .LVU113
ARM GAS  /tmp/ccIwehAI.s 			page 23


 634              	@ src/scenes/scene_game.c:160:   pd->sprite->getPosition(assets->bird_sprite, &x, &y);
 160:src/scenes/scene_game.c ****   gsc->player.location.x = x;
 635              		.loc 1 160 3 is_stmt 0 view .LVU114
 636 002e 03AA     		add	r2, sp, #12	@,,
 637 0030 02A9     		add	r1, sp, #8	@,,
 638              	@ src/scenes/scene_game.c:157:   gsc->player.velocity = DEFAULT_BIRD_VELOCITY;
 157:src/scenes/scene_game.c **** 
 639              		.loc 1 157 24 view .LVU115
 640 0032 C0F82090 		str	r9, [r0, #32]	@ tmp140, gsc_8->player.velocity
 159:src/scenes/scene_game.c ****   pd->sprite->getPosition(assets->bird_sprite, &x, &y);
 641              		.loc 1 159 3 is_stmt 1 view .LVU116
 160:src/scenes/scene_game.c ****   gsc->player.location.x = x;
 642              		.loc 1 160 3 view .LVU117
 643 0036 D3F8A830 		ldr	r3, [r3, #168]	@ _35->getPosition, _35->getPosition
 644 003a F068     		ldr	r0, [r6, #12]	@, assets_10(D)->bird_sprite
 645              	.LVL42:
 160:src/scenes/scene_game.c ****   gsc->player.location.x = x;
 646              		.loc 1 160 3 is_stmt 0 view .LVU118
 647 003c 9847     		blx	r3		@ _35->getPosition
 648              	.LVL43:
 161:src/scenes/scene_game.c ****   gsc->player.location.y = y;
 649              		.loc 1 161 3 is_stmt 1 view .LVU119
 650              	@ src/scenes/scene_game.c:161:   gsc->player.location.x = x;
 161:src/scenes/scene_game.c ****   gsc->player.location.y = y;
 651              		.loc 1 161 26 is_stmt 0 view .LVU120
 652 003e 9DED027A 		vldr.32	s14, [sp, #8]	@ x, x
 653              	@ src/scenes/scene_game.c:162:   gsc->player.location.y = y;
 162:src/scenes/scene_game.c **** 
 654              		.loc 1 162 26 view .LVU121
 655 0042 DDED037A 		vldr.32	s15, [sp, #12]	@ y, y
 656              	@ src/scenes/scene_game.c:164:   gsc->player.hitbox = MLIBRECT_CREATE(16, 16, 80, 50);
 164:src/scenes/scene_game.c **** 
 657              		.loc 1 164 24 view .LVU122
 658 0046 1023     		movs	r3, #16	@ tmp153,
 659              	@ src/scenes/scene_game.c:161:   gsc->player.location.x = x;
 161:src/scenes/scene_game.c ****   gsc->player.location.y = y;
 660              		.loc 1 161 26 view .LVU123
 661 0048 BDEEC77A 		vcvt.s32.f32	s14, s14	@ tmp149, x
 662              	@ src/scenes/scene_game.c:166:   pd->graphics->getBitmapData(assets->bird_image, &gsc->player.size.
 166:src/scenes/scene_game.c ****                               &gsc->player.size.height, NULL, NULL, NULL);
 663              		.loc 1 166 15 view .LVU124
 664 004c D8F80820 		ldr	r2, [r8, #8]	@ pd_5->graphics, pd_5->graphics
 665              	@ src/scenes/scene_game.c:162:   gsc->player.location.y = y;
 162:src/scenes/scene_game.c **** 
 666              		.loc 1 162 26 view .LVU125
 667 0050 FDEEE77A 		vcvt.s32.f32	s15, s15	@ tmp151, y
 668              	@ src/scenes/scene_game.c:164:   gsc->player.hitbox = MLIBRECT_CREATE(16, 16, 80, 50);
 164:src/scenes/scene_game.c **** 
 669              		.loc 1 164 24 view .LVU126
 670 0054 5021     		movs	r1, #80	@,
 671 0056 C4E90433 		strd	r3, r3, [r4, #16]	@ tmp153, tmp153, gsc,
 672 005a 3223     		movs	r3, #50	@ tmp156,
 673              	@ src/scenes/scene_game.c:161:   gsc->player.location.x = x;
 161:src/scenes/scene_game.c ****   gsc->player.location.y = y;
 674              		.loc 1 161 26 view .LVU127
 675 005c 84ED027A 		vstr.32	s14, [r4, #8]	@ int	@ tmp149, gsc_8->player.location.x
 162:src/scenes/scene_game.c **** 
ARM GAS  /tmp/ccIwehAI.s 			page 24


 676              		.loc 1 162 3 is_stmt 1 view .LVU128
 677              	@ src/scenes/scene_game.c:162:   gsc->player.location.y = y;
 162:src/scenes/scene_game.c **** 
 678              		.loc 1 162 26 is_stmt 0 view .LVU129
 679 0060 C4ED037A 		vstr.32	s15, [r4, #12]	@ int	@ tmp151, gsc_8->player.location.y
 164:src/scenes/scene_game.c **** 
 680              		.loc 1 164 3 is_stmt 1 view .LVU130
 681              	.LVL44:
 682              	.LBB95:
 683              	.LBI95:
  56:./src/scenes/../pdantler/mooselib.h ****   return (MLIBRect){x, y, width, height};
 684              		.loc 2 56 24 view .LVU131
 685              	.LBE95:
 686              	.LBE97:
 687              	.LBE100:
  57:./src/scenes/../pdantler/mooselib.h **** }
 688              		.loc 2 57 3 view .LVU132
 689              	.LBB101:
 690              	.LBB98:
 691              	@ src/scenes/scene_game.c:164:   gsc->player.hitbox = MLIBRECT_CREATE(16, 16, 80, 50);
 164:src/scenes/scene_game.c **** 
 692              		.loc 1 164 24 is_stmt 0 view .LVU133
 693 0064 C4E90613 		strd	r1, r3, [r4, #24]	@, tmp156, gsc,
 166:src/scenes/scene_game.c ****                               &gsc->player.size.height, NULL, NULL, NULL);
 694              		.loc 1 166 3 is_stmt 1 view .LVU134
 695 0068 CDE90055 		strd	r5, r5, [sp]	@ tmp160, tmp160,
 696 006c 2B46     		mov	r3, r5	@, tmp160
 697 006e D2F87090 		ldr	r9, [r2, #112]	@ _42->getBitmapData, _42->getBitmapData
 698 0072 2146     		mov	r1, r4	@, gsc
 699 0074 221D     		adds	r2, r4, #4	@, gsc,
 700 0076 B068     		ldr	r0, [r6, #8]	@, assets_10(D)->bird_image
 701 0078 C847     		blx	r9		@ _42->getBitmapData
 702              	.LVL45:
 166:src/scenes/scene_game.c ****                               &gsc->player.size.height, NULL, NULL, NULL);
 703              		.loc 1 166 3 is_stmt 0 view .LVU135
 704              	.LBE98:
 705              	.LBE101:
 106:src/scenes/scene_game.c ****   init_speech_bubble(pd, gsc, assets);
 706              		.loc 1 106 3 is_stmt 1 view .LVU136
 707              	.LBB102:
 708              	.LBI102:
 220:src/scenes/scene_game.c ****                           GameAssets *assets) {
 709              		.loc 1 220 13 view .LVU137
 710              	.LBB103:
 223:src/scenes/scene_game.c ****   gsc->audience[0].throw_location = MLIBPOINT_CREATE(69, 178);
 711              		.loc 1 223 3 view .LVU138
 712              	.LBB104:
 713              	.LBI104:
  36:./src/scenes/../pdantler/mooselib.h ****   return (MLIBPoint){x, y};
 714              		.loc 2 36 25 view .LVU139
 715              	.LBE104:
 716              	.LBE103:
 717              	.LBE102:
  37:./src/scenes/../pdantler/mooselib.h **** }
 718              		.loc 2 37 3 view .LVU140
 719              	.LBB126:
 720              	.LBB114:
ARM GAS  /tmp/ccIwehAI.s 			page 25


 721              	@ src/scenes/scene_game.c:223:   gsc->audience[0].speech_location = MLIBPOINT_CREATE(45, 200);
 223:src/scenes/scene_game.c ****   gsc->audience[0].throw_location = MLIBPOINT_CREATE(69, 178);
 722              		.loc 1 223 38 is_stmt 0 view .LVU141
 723 007a C823     		movs	r3, #200	@ tmp164,
 724              	.LBE114:
 725              	.LBE126:
 726              	.LBB127:
 727              	.LBB128:
 728              	@ src/scenes/scene_game.c:183:   pd->graphics->getBitmapData(
 183:src/scenes/scene_game.c ****       assets->speech_bubble_base_image, &gsc->speech_bubble.size.width,
 729              		.loc 1 183 15 view .LVU142
 730 007c D8F80820 		ldr	r2, [r8, #8]	@ MEM[(const struct playdate_graphics * *)pd_5 + 8B], MEM[(const struct playdate_
 731              	.LBE128:
 732              	.LBE127:
 733              	.LBB132:
 734              	.LBB115:
 735              	@ src/scenes/scene_game.c:232:   gsc->audience[2].throw_location = MLIBPOINT_CREATE(199, 187);
 232:src/scenes/scene_game.c ****   gsc->audience[2].right = false;
 736              		.loc 1 232 37 view .LVU143
 737 0080 4FF0C709 		mov	r9, #199	@,
 738              	@ src/scenes/scene_game.c:223:   gsc->audience[0].speech_location = MLIBPOINT_CREATE(45, 200);
 223:src/scenes/scene_game.c ****   gsc->audience[0].throw_location = MLIBPOINT_CREATE(69, 178);
 739              		.loc 1 223 38 view .LVU144
 740 0084 A366     		str	r3, [r4, #104]	@ tmp164, gsc_8->audience[0].speech_location.y
 224:src/scenes/scene_game.c ****   gsc->audience[0].right = false;
 741              		.loc 1 224 3 is_stmt 1 view .LVU145
 742              	.LVL46:
 743              	.LBB105:
 744              	.LBI105:
  36:./src/scenes/../pdantler/mooselib.h ****   return (MLIBPoint){x, y};
 745              		.loc 2 36 25 view .LVU146
 746              	.LBE105:
 747              	.LBE115:
 748              	.LBE132:
  37:./src/scenes/../pdantler/mooselib.h **** }
 749              		.loc 2 37 3 view .LVU147
 750              	.LBB133:
 751              	.LBB116:
 752              	@ src/scenes/scene_game.c:236:   gsc->audience[3].throw_location = MLIBPOINT_CREATE(275, 175);
 236:src/scenes/scene_game.c ****   gsc->audience[3].right = true;
 753              		.loc 1 236 37 is_stmt 0 view .LVU148
 754 0086 40F21310 		movw	r0, #275	@,
 755              	@ src/scenes/scene_game.c:227:   gsc->audience[1].speech_location = MLIBPOINT_CREATE(130, 200);
 227:src/scenes/scene_game.c ****   gsc->audience[1].throw_location = MLIBPOINT_CREATE(178, 168);
 756              		.loc 1 227 38 view .LVU149
 757 008a E367     		str	r3, [r4, #124]	@ tmp164, gsc_8->audience[1].speech_location.y
 758              	@ src/scenes/scene_game.c:240:   gsc->audience[4].throw_location = MLIBPOINT_CREATE(312, 140);
 240:src/scenes/scene_game.c ****   gsc->audience[4].right = true;
 759              		.loc 1 240 37 view .LVU150
 760 008c 4FF49C7E 		mov	lr, #312	@,
 761              	@ src/scenes/scene_game.c:235:   gsc->audience[3].speech_location = MLIBPOINT_CREATE(128, 200);
 235:src/scenes/scene_game.c ****   gsc->audience[3].throw_location = MLIBPOINT_CREATE(275, 175);
 762              		.loc 1 235 38 view .LVU151
 763 0090 C4F8A430 		str	r3, [r4, #164]	@ tmp164, gsc_8->audience[3].speech_location.y
 764              	.LBE116:
 765              	.LBE133:
 766              	.LBB134:
ARM GAS  /tmp/ccIwehAI.s 			page 26


 767              	.LBB129:
 768              	@ src/scenes/scene_game.c:183:   pd->graphics->getBitmapData(
 183:src/scenes/scene_game.c ****       assets->speech_bubble_base_image, &gsc->speech_bubble.size.width,
 769              		.loc 1 183 3 view .LVU152
 770 0094 04F15801 		add	r1, r4, #88	@, gsc,
 771              	.LBE129:
 772              	.LBE134:
 773              	.LBB135:
 774              	.LBB117:
 775              	@ src/scenes/scene_game.c:239:   gsc->audience[4].speech_location = MLIBPOINT_CREATE(190, 200);
 239:src/scenes/scene_game.c ****   gsc->audience[4].throw_location = MLIBPOINT_CREATE(312, 140);
 776              		.loc 1 239 38 view .LVU153
 777 0098 C4F8B830 		str	r3, [r4, #184]	@ tmp164, gsc_8->audience[4].speech_location.y
 778              	@ src/scenes/scene_game.c:225:   gsc->audience[0].right = false;
 225:src/scenes/scene_game.c **** 
 779              		.loc 1 225 26 view .LVU154
 780 009c 84F87450 		strb	r5, [r4, #116]	@ tmp160, gsc_8->audience[0].right
 781              	@ src/scenes/scene_game.c:229:   gsc->audience[1].right = false;
 229:src/scenes/scene_game.c **** 
 782              		.loc 1 229 26 view .LVU155
 783 00a0 84F88850 		strb	r5, [r4, #136]	@ tmp160, gsc_8->audience[1].right
 784              	@ src/scenes/scene_game.c:233:   gsc->audience[2].right = false;
 233:src/scenes/scene_game.c **** 
 785              		.loc 1 233 26 view .LVU156
 786 00a4 84F89C50 		strb	r5, [r4, #156]	@ tmp160, gsc_8->audience[2].right
 787              	@ src/scenes/scene_game.c:243:   gsc->audience_index = 0;
 243:src/scenes/scene_game.c **** }
 788              		.loc 1 243 23 view .LVU157
 789 00a8 C4F8DC50 		str	r5, [r4, #220]	@ tmp160, gsc_8->audience_index
 790              	@ src/scenes/scene_game.c:231:   gsc->audience[2].speech_location = MLIBPOINT_CREATE(200, 200);
 231:src/scenes/scene_game.c ****   gsc->audience[2].throw_location = MLIBPOINT_CREATE(199, 187);
 791              		.loc 1 231 38 view .LVU158
 792 00ac C4E92333 		strd	r3, r3, [r4, #140]	@ tmp164, tmp164, gsc,
 793              	@ src/scenes/scene_game.c:224:   gsc->audience[0].throw_location = MLIBPOINT_CREATE(69, 178);
 224:src/scenes/scene_game.c ****   gsc->audience[0].right = false;
 794              		.loc 1 224 37 view .LVU159
 795 00b0 B223     		movs	r3, #178	@ tmp166,
 796 00b2 2367     		str	r3, [r4, #112]	@ tmp166, gsc_8->audience[0].throw_location.y
 225:src/scenes/scene_game.c **** 
 797              		.loc 1 225 3 is_stmt 1 view .LVU160
 227:src/scenes/scene_game.c ****   gsc->audience[1].throw_location = MLIBPOINT_CREATE(178, 168);
 798              		.loc 1 227 3 view .LVU161
 799              	.LVL47:
 800              	.LBB106:
 801              	.LBI106:
  36:./src/scenes/../pdantler/mooselib.h ****   return (MLIBPoint){x, y};
 802              		.loc 2 36 25 view .LVU162
 803              	.LBE106:
 804              	.LBE117:
 805              	.LBE135:
  37:./src/scenes/../pdantler/mooselib.h **** }
 806              		.loc 2 37 3 view .LVU163
 807              	.LBB136:
 808              	.LBB118:
 228:src/scenes/scene_game.c ****   gsc->audience[1].right = false;
 809              		.loc 1 228 3 view .LVU164
 810              	.LBB107:
ARM GAS  /tmp/ccIwehAI.s 			page 27


 811              	.LBI107:
  36:./src/scenes/../pdantler/mooselib.h ****   return (MLIBPoint){x, y};
 812              		.loc 2 36 25 view .LVU165
 813              	.LBE107:
 814              	.LBE118:
 815              	.LBE136:
  37:./src/scenes/../pdantler/mooselib.h **** }
 816              		.loc 2 37 3 view .LVU166
 817              	.LBB137:
 818              	.LBB119:
 819              	@ src/scenes/scene_game.c:228:   gsc->audience[1].throw_location = MLIBPOINT_CREATE(178, 168);
 228:src/scenes/scene_game.c ****   gsc->audience[1].right = false;
 820              		.loc 1 228 37 is_stmt 0 view .LVU167
 821 00b4 C4F88030 		str	r3, [r4, #128]	@ tmp166, gsc_8->audience[1].throw_location.x
 822              	@ src/scenes/scene_game.c:237:   gsc->audience[3].right = true;
 237:src/scenes/scene_game.c **** 
 823              		.loc 1 237 26 view .LVU168
 824 00b8 0123     		movs	r3, #1	@ tmp185,
 825 00ba 84F8B030 		strb	r3, [r4, #176]	@ tmp185, gsc_8->audience[3].right
 826              	@ src/scenes/scene_game.c:241:   gsc->audience[4].right = true;
 241:src/scenes/scene_game.c **** 
 827              		.loc 1 241 26 view .LVU169
 828 00be 84F8C430 		strb	r3, [r4, #196]	@ tmp185, gsc_8->audience[4].right
 829              	@ src/scenes/scene_game.c:223:   gsc->audience[0].speech_location = MLIBPOINT_CREATE(45, 200);
 223:src/scenes/scene_game.c ****   gsc->audience[0].throw_location = MLIBPOINT_CREATE(69, 178);
 830              		.loc 1 223 38 view .LVU170
 831 00c2 2D23     		movs	r3, #45	@ tmp163,
 832 00c4 6366     		str	r3, [r4, #100]	@ tmp163, gsc_8->audience[0].speech_location.x
 833              	@ src/scenes/scene_game.c:224:   gsc->audience[0].throw_location = MLIBPOINT_CREATE(69, 178);
 224:src/scenes/scene_game.c ****   gsc->audience[0].right = false;
 834              		.loc 1 224 37 view .LVU171
 835 00c6 4523     		movs	r3, #69	@ tmp165,
 836 00c8 E366     		str	r3, [r4, #108]	@ tmp165, gsc_8->audience[0].throw_location.x
 837              	@ src/scenes/scene_game.c:227:   gsc->audience[1].speech_location = MLIBPOINT_CREATE(130, 200);
 227:src/scenes/scene_game.c ****   gsc->audience[1].throw_location = MLIBPOINT_CREATE(178, 168);
 838              		.loc 1 227 38 view .LVU172
 839 00ca 8223     		movs	r3, #130	@ tmp169,
 840 00cc A367     		str	r3, [r4, #120]	@ tmp169, gsc_8->audience[1].speech_location.x
 841              	@ src/scenes/scene_game.c:228:   gsc->audience[1].throw_location = MLIBPOINT_CREATE(178, 168);
 228:src/scenes/scene_game.c ****   gsc->audience[1].right = false;
 842              		.loc 1 228 37 view .LVU173
 843 00ce A823     		movs	r3, #168	@ tmp172,
 844 00d0 C4F88430 		str	r3, [r4, #132]	@ tmp172, gsc_8->audience[1].throw_location.y
 229:src/scenes/scene_game.c **** 
 845              		.loc 1 229 3 is_stmt 1 view .LVU174
 231:src/scenes/scene_game.c ****   gsc->audience[2].throw_location = MLIBPOINT_CREATE(199, 187);
 846              		.loc 1 231 3 view .LVU175
 847              	.LVL48:
 848              	.LBB108:
 849              	.LBI108:
  36:./src/scenes/../pdantler/mooselib.h ****   return (MLIBPoint){x, y};
 850              		.loc 2 36 25 view .LVU176
 851              	.LBE108:
 852              	.LBE119:
 853              	.LBE137:
  37:./src/scenes/../pdantler/mooselib.h **** }
 854              		.loc 2 37 3 view .LVU177
ARM GAS  /tmp/ccIwehAI.s 			page 28


 855              	.LBB138:
 856              	.LBB120:
 232:src/scenes/scene_game.c ****   gsc->audience[2].right = false;
 857              		.loc 1 232 3 view .LVU178
 858              	.LBB109:
 859              	.LBI109:
  36:./src/scenes/../pdantler/mooselib.h ****   return (MLIBPoint){x, y};
 860              		.loc 2 36 25 view .LVU179
 861              	.LBE109:
 862              	.LBE120:
 863              	.LBE138:
  37:./src/scenes/../pdantler/mooselib.h **** }
 864              		.loc 2 37 3 view .LVU180
 865              	.LBB139:
 866              	.LBB121:
 867              	@ src/scenes/scene_game.c:232:   gsc->audience[2].throw_location = MLIBPOINT_CREATE(199, 187);
 232:src/scenes/scene_game.c ****   gsc->audience[2].right = false;
 868              		.loc 1 232 37 is_stmt 0 view .LVU181
 869 00d4 BB23     		movs	r3, #187	@ tmp178,
 870 00d6 C4E92593 		strd	r9, r3, [r4, #148]	@, tmp178, gsc,
 233:src/scenes/scene_game.c **** 
 871              		.loc 1 233 3 is_stmt 1 view .LVU182
 235:src/scenes/scene_game.c ****   gsc->audience[3].throw_location = MLIBPOINT_CREATE(275, 175);
 872              		.loc 1 235 3 view .LVU183
 873              	.LVL49:
 874              	.LBB110:
 875              	.LBI110:
  36:./src/scenes/../pdantler/mooselib.h ****   return (MLIBPoint){x, y};
 876              		.loc 2 36 25 view .LVU184
 877              	.LBE110:
 878              	.LBE121:
 879              	.LBE139:
  37:./src/scenes/../pdantler/mooselib.h **** }
 880              		.loc 2 37 3 view .LVU185
 881              	.LBB140:
 882              	.LBB122:
 236:src/scenes/scene_game.c ****   gsc->audience[3].right = true;
 883              		.loc 1 236 3 view .LVU186
 884              	.LBB111:
 885              	.LBI111:
  36:./src/scenes/../pdantler/mooselib.h ****   return (MLIBPoint){x, y};
 886              		.loc 2 36 25 view .LVU187
 887              	.LBE111:
 888              	.LBE122:
 889              	.LBE140:
  37:./src/scenes/../pdantler/mooselib.h **** }
 890              		.loc 2 37 3 view .LVU188
 891              	.LBB141:
 892              	.LBB123:
 893              	@ src/scenes/scene_game.c:235:   gsc->audience[3].speech_location = MLIBPOINT_CREATE(128, 200);
 235:src/scenes/scene_game.c ****   gsc->audience[3].throw_location = MLIBPOINT_CREATE(275, 175);
 894              		.loc 1 235 38 is_stmt 0 view .LVU189
 895 00da 8023     		movs	r3, #128	@ tmp181,
 896 00dc C4F8A030 		str	r3, [r4, #160]	@ tmp181, gsc_8->audience[3].speech_location.x
 897              	@ src/scenes/scene_game.c:236:   gsc->audience[3].throw_location = MLIBPOINT_CREATE(275, 175);
 236:src/scenes/scene_game.c ****   gsc->audience[3].right = true;
 898              		.loc 1 236 37 view .LVU190
ARM GAS  /tmp/ccIwehAI.s 			page 29


 899 00e0 AF23     		movs	r3, #175	@ tmp184,
 900 00e2 C4E92A03 		strd	r0, r3, [r4, #168]	@, tmp184, gsc,
 237:src/scenes/scene_game.c **** 
 901              		.loc 1 237 3 is_stmt 1 view .LVU191
 239:src/scenes/scene_game.c ****   gsc->audience[4].throw_location = MLIBPOINT_CREATE(312, 140);
 902              		.loc 1 239 3 view .LVU192
 903              	.LVL50:
 904              	.LBB112:
 905              	.LBI112:
  36:./src/scenes/../pdantler/mooselib.h ****   return (MLIBPoint){x, y};
 906              		.loc 2 36 25 view .LVU193
 907              	.LBE112:
 908              	.LBE123:
 909              	.LBE141:
  37:./src/scenes/../pdantler/mooselib.h **** }
 910              		.loc 2 37 3 view .LVU194
 911              	.LBB142:
 912              	.LBB124:
 240:src/scenes/scene_game.c ****   gsc->audience[4].right = true;
 913              		.loc 1 240 3 view .LVU195
 914              	.LBB113:
 915              	.LBI113:
  36:./src/scenes/../pdantler/mooselib.h ****   return (MLIBPoint){x, y};
 916              		.loc 2 36 25 view .LVU196
 917              	.LBE113:
 918              	.LBE124:
 919              	.LBE142:
  37:./src/scenes/../pdantler/mooselib.h **** }
 920              		.loc 2 37 3 view .LVU197
 921              	.LBB143:
 922              	.LBB125:
 923              	@ src/scenes/scene_game.c:239:   gsc->audience[4].speech_location = MLIBPOINT_CREATE(190, 200);
 239:src/scenes/scene_game.c ****   gsc->audience[4].throw_location = MLIBPOINT_CREATE(312, 140);
 924              		.loc 1 239 38 is_stmt 0 view .LVU198
 925 00e6 BE23     		movs	r3, #190	@ tmp187,
 926 00e8 C4F8B430 		str	r3, [r4, #180]	@ tmp187, gsc_8->audience[4].speech_location.x
 927              	@ src/scenes/scene_game.c:240:   gsc->audience[4].throw_location = MLIBPOINT_CREATE(312, 140);
 240:src/scenes/scene_game.c ****   gsc->audience[4].right = true;
 928              		.loc 1 240 37 view .LVU199
 929 00ec 8C23     		movs	r3, #140	@ tmp190,
 930 00ee C4E92FE3 		strd	lr, r3, [r4, #188]	@, tmp190, gsc,
 241:src/scenes/scene_game.c **** 
 931              		.loc 1 241 3 is_stmt 1 view .LVU200
 243:src/scenes/scene_game.c **** }
 932              		.loc 1 243 3 view .LVU201
 933              	.LVL51:
 243:src/scenes/scene_game.c **** }
 934              		.loc 1 243 3 is_stmt 0 view .LVU202
 935              	.LBE125:
 936              	.LBE143:
 107:src/scenes/scene_game.c ****   init_jokes(pd, gsc, assets);
 937              		.loc 1 107 3 is_stmt 1 view .LVU203
 938              	.LBB144:
 939              	.LBI127:
 181:src/scenes/scene_game.c ****                                GameAssets *assets) {
 940              		.loc 1 181 13 view .LVU204
 941              	.LBB130:
ARM GAS  /tmp/ccIwehAI.s 			page 30


 183:src/scenes/scene_game.c ****       assets->speech_bubble_base_image, &gsc->speech_bubble.size.width,
 942              		.loc 1 183 3 view .LVU205
 943 00f2 CDE90055 		strd	r5, r5, [sp]	@ tmp160, tmp160,
 944 00f6 2B46     		mov	r3, r5	@, tmp160
 945 00f8 D2F87080 		ldr	r8, [r2, #112]	@ _24->getBitmapData, _24->getBitmapData
 946              	.LVL52:
 183:src/scenes/scene_game.c ****       assets->speech_bubble_base_image, &gsc->speech_bubble.size.width,
 947              		.loc 1 183 3 is_stmt 0 view .LVU206
 948 00fc 306B     		ldr	r0, [r6, #48]	@, MEM[(struct LCDBitmap * *)assets_10(D) + 48B]
 949 00fe 04F15C02 		add	r2, r4, #92	@, gsc,
 950 0102 C047     		blx	r8		@ _24->getBitmapData
 951              	.LVL53:
 187:src/scenes/scene_game.c ****   gsc->heckles[gsc->heckle_index++] = "Booooo!";
 952              		.loc 1 187 3 is_stmt 1 view .LVU207
 188:src/scenes/scene_game.c ****   gsc->heckles[gsc->heckle_index++] = "Get new material!";
 953              		.loc 1 188 3 view .LVU208
 954              	@ src/scenes/scene_game.c:188:   gsc->heckles[gsc->heckle_index++] = "Booooo!";
 188:src/scenes/scene_game.c ****   gsc->heckles[gsc->heckle_index++] = "Get new material!";
 955              		.loc 1 188 37 is_stmt 0 view .LVU209
 956 0104 1D4B     		ldr	r3, .L13	@ tmp201,
 957              	.LBE130:
 958              	.LBE144:
 959              	.LBB145:
 960              	.LBB146:
 961              	@ src/scenes/scene_game.c:390:   new_joke(game, assets);
 390:src/scenes/scene_game.c **** 
 962              		.loc 1 390 3 view .LVU210
 963 0106 3146     		mov	r1, r6	@, assets
 964 0108 3846     		mov	r0, r7	@, game
 965              	.LBE146:
 966              	.LBE145:
 967              	.LBB149:
 968              	.LBB131:
 969              	@ src/scenes/scene_game.c:188:   gsc->heckles[gsc->heckle_index++] = "Booooo!";
 188:src/scenes/scene_game.c ****   gsc->heckles[gsc->heckle_index++] = "Get new material!";
 970              		.loc 1 188 37 view .LVU211
 971 010a C4F8E030 		str	r3, [r4, #224]	@ tmp201, gsc_8->heckles[0]
 189:src/scenes/scene_game.c ****   gsc->heckles[gsc->heckle_index++] = "You suck!";
 972              		.loc 1 189 3 is_stmt 1 view .LVU212
 973              	@ src/scenes/scene_game.c:189:   gsc->heckles[gsc->heckle_index++] = "Get new material!";
 189:src/scenes/scene_game.c ****   gsc->heckles[gsc->heckle_index++] = "You suck!";
 974              		.loc 1 189 37 is_stmt 0 view .LVU213
 975 010e 1C4B     		ldr	r3, .L13+4	@ tmp202,
 976 0110 C4F8E430 		str	r3, [r4, #228]	@ tmp202, gsc_8->heckles[1]
 190:src/scenes/scene_game.c ****   gsc->heckles[gsc->heckle_index++] = "Go home!";
 977              		.loc 1 190 3 is_stmt 1 view .LVU214
 978              	@ src/scenes/scene_game.c:190:   gsc->heckles[gsc->heckle_index++] = "You suck!";
 190:src/scenes/scene_game.c ****   gsc->heckles[gsc->heckle_index++] = "Go home!";
 979              		.loc 1 190 37 is_stmt 0 view .LVU215
 980 0114 1B4B     		ldr	r3, .L13+8	@ tmp203,
 981 0116 C4F8E830 		str	r3, [r4, #232]	@ tmp203, gsc_8->heckles[2]
 191:src/scenes/scene_game.c ****   gsc->heckles[gsc->heckle_index++] = "Get a job!";
 982              		.loc 1 191 3 is_stmt 1 view .LVU216
 983              	@ src/scenes/scene_game.c:191:   gsc->heckles[gsc->heckle_index++] = "Go home!";
 191:src/scenes/scene_game.c ****   gsc->heckles[gsc->heckle_index++] = "Get a job!";
 984              		.loc 1 191 37 is_stmt 0 view .LVU217
 985 011a 1B4B     		ldr	r3, .L13+12	@ tmp204,
ARM GAS  /tmp/ccIwehAI.s 			page 31


 986 011c C4F8EC30 		str	r3, [r4, #236]	@ tmp204, gsc_8->heckles[3]
 192:src/scenes/scene_game.c ****   gsc->heckles[gsc->heckle_index++] = "You're not funny!";
 987              		.loc 1 192 3 is_stmt 1 view .LVU218
 988              	@ src/scenes/scene_game.c:192:   gsc->heckles[gsc->heckle_index++] = "Get a job!";
 192:src/scenes/scene_game.c ****   gsc->heckles[gsc->heckle_index++] = "You're not funny!";
 989              		.loc 1 192 37 is_stmt 0 view .LVU219
 990 0120 1A4B     		ldr	r3, .L13+16	@ tmp205,
 991 0122 C4F8F030 		str	r3, [r4, #240]	@ tmp205, gsc_8->heckles[4]
 193:src/scenes/scene_game.c ****   gsc->heckles[gsc->heckle_index++] = "I want a refund!";
 992              		.loc 1 193 3 is_stmt 1 view .LVU220
 993              	@ src/scenes/scene_game.c:193:   gsc->heckles[gsc->heckle_index++] = "You're not funny!";
 193:src/scenes/scene_game.c ****   gsc->heckles[gsc->heckle_index++] = "I want a refund!";
 994              		.loc 1 193 37 is_stmt 0 view .LVU221
 995 0126 1A4B     		ldr	r3, .L13+20	@ tmp206,
 996 0128 C4F8F430 		str	r3, [r4, #244]	@ tmp206, gsc_8->heckles[5]
 194:src/scenes/scene_game.c ****   gsc->heckle_index = 0;
 997              		.loc 1 194 3 is_stmt 1 view .LVU222
 998              	@ src/scenes/scene_game.c:194:   gsc->heckles[gsc->heckle_index++] = "I want a refund!";
 194:src/scenes/scene_game.c ****   gsc->heckle_index = 0;
 999              		.loc 1 194 37 is_stmt 0 view .LVU223
 1000 012c 194B     		ldr	r3, .L13+24	@ tmp207,
 1001 012e C4F8F830 		str	r3, [r4, #248]	@ tmp207, gsc_8->heckles[6]
 195:src/scenes/scene_game.c **** }
 1002              		.loc 1 195 3 is_stmt 1 view .LVU224
 1003              	.LVL54:
 195:src/scenes/scene_game.c **** }
 1004              		.loc 1 195 3 is_stmt 0 view .LVU225
 1005              	.LBE131:
 1006              	.LBE149:
 108:src/scenes/scene_game.c **** 
 1007              		.loc 1 108 3 is_stmt 1 view .LVU226
 1008              	.LBB150:
 1009              	.LBI150:
 198:src/scenes/scene_game.c ****                        GameAssets *assets) {
 1010              		.loc 1 198 13 view .LVU227
 1011              	.LBB151:
 200:src/scenes/scene_game.c ****   gsc->jokes[gsc->joke_index++] = "Where do fruits go on vacation?"
 1012              		.loc 1 200 3 view .LVU228
 201:src/scenes/scene_game.c ****                                   "Pear-is!";
 1013              		.loc 1 201 3 view .LVU229
 1014              	@ src/scenes/scene_game.c:201:   gsc->jokes[gsc->joke_index++] = "Where do fruits go on vacation?"
 201:src/scenes/scene_game.c ****                                   "Pear-is!";
 1015              		.loc 1 201 33 is_stmt 0 view .LVU230
 1016 0132 194B     		ldr	r3, .L13+28	@ tmp209,
 1017 0134 C4F8FC30 		str	r3, [r4, #252]	@ tmp209, gsc_8->jokes[0]
 203:src/scenes/scene_game.c ****       "I'm afraid for the calendar. Its days are numbered!";
 1018              		.loc 1 203 3 is_stmt 1 view .LVU231
 1019              	@ src/scenes/scene_game.c:203:   gsc->jokes[gsc->joke_index++] =
 203:src/scenes/scene_game.c ****       "I'm afraid for the calendar. Its days are numbered!";
 1020              		.loc 1 203 33 is_stmt 0 view .LVU232
 1021 0138 184B     		ldr	r3, .L13+32	@ tmp210,
 1022 013a C4F80031 		str	r3, [r4, #256]	@ tmp210, gsc_8->jokes[1]
 205:src/scenes/scene_game.c ****       "I only know 25 letters of the alphabet. I don't know y.";
 1023              		.loc 1 205 3 is_stmt 1 view .LVU233
 1024              	@ src/scenes/scene_game.c:205:   gsc->jokes[gsc->joke_index++] =
 205:src/scenes/scene_game.c ****       "I only know 25 letters of the alphabet. I don't know y.";
 1025              		.loc 1 205 33 is_stmt 0 view .LVU234
ARM GAS  /tmp/ccIwehAI.s 			page 32


 1026 013e 184B     		ldr	r3, .L13+36	@ tmp211,
 1027 0140 C4F80431 		str	r3, [r4, #260]	@ tmp211, gsc_8->jokes[2]
 207:src/scenes/scene_game.c ****       "Why couldn't the bicycle stand up by itself? It was two tired.";
 1028              		.loc 1 207 3 is_stmt 1 view .LVU235
 1029              	@ src/scenes/scene_game.c:207:   gsc->jokes[gsc->joke_index++] =
 207:src/scenes/scene_game.c ****       "Why couldn't the bicycle stand up by itself? It was two tired.";
 1030              		.loc 1 207 33 is_stmt 0 view .LVU236
 1031 0144 174B     		ldr	r3, .L13+40	@ tmp212,
 1032 0146 C4F80831 		str	r3, [r4, #264]	@ tmp212, gsc_8->jokes[3]
 209:src/scenes/scene_game.c ****       "What do you call cheese that isn't yours? Nacho cheese.";
 1033              		.loc 1 209 3 is_stmt 1 view .LVU237
 1034              	@ src/scenes/scene_game.c:209:   gsc->jokes[gsc->joke_index++] =
 209:src/scenes/scene_game.c ****       "What do you call cheese that isn't yours? Nacho cheese.";
 1035              		.loc 1 209 33 is_stmt 0 view .LVU238
 1036 014a 174B     		ldr	r3, .L13+44	@ tmp213,
 1037 014c C4F80C31 		str	r3, [r4, #268]	@ tmp213, gsc_8->jokes[4]
 211:src/scenes/scene_game.c ****       "Why did the chicken cross the road? To get to the other side.";
 1038              		.loc 1 211 3 is_stmt 1 view .LVU239
 1039              	@ src/scenes/scene_game.c:211:   gsc->jokes[gsc->joke_index++] =
 211:src/scenes/scene_game.c ****       "Why did the chicken cross the road? To get to the other side.";
 1040              		.loc 1 211 33 is_stmt 0 view .LVU240
 1041 0150 164B     		ldr	r3, .L13+48	@ tmp214,
 1042 0152 C4F81031 		str	r3, [r4, #272]	@ tmp214, gsc_8->jokes[5]
 213:src/scenes/scene_game.c ****       "Shout out to my fingers. I can count on all of them.";
 1043              		.loc 1 213 3 is_stmt 1 view .LVU241
 1044              	@ src/scenes/scene_game.c:213:   gsc->jokes[gsc->joke_index++] =
 213:src/scenes/scene_game.c ****       "Shout out to my fingers. I can count on all of them.";
 1045              		.loc 1 213 33 is_stmt 0 view .LVU242
 1046 0156 164B     		ldr	r3, .L13+52	@ tmp215,
 1047 0158 C4F81431 		str	r3, [r4, #276]	@ tmp215, gsc_8->jokes[6]
 215:src/scenes/scene_game.c ****       "I made a pencil with two erasers. It was pointless.";
 1048              		.loc 1 215 3 is_stmt 1 view .LVU243
 1049              	@ src/scenes/scene_game.c:215:   gsc->jokes[gsc->joke_index++] =
 215:src/scenes/scene_game.c ****       "I made a pencil with two erasers. It was pointless.";
 1050              		.loc 1 215 33 is_stmt 0 view .LVU244
 1051 015c 154B     		ldr	r3, .L13+56	@ tmp216,
 1052              	@ src/scenes/scene_game.c:217:   gsc->joke_index = 0;
 217:src/scenes/scene_game.c **** }
 1053              		.loc 1 217 19 view .LVU245
 1054 015e C4E94755 		strd	r5, r5, [r4, #284]	@ tmp160, tmp160, gsc,
 1055              	@ src/scenes/scene_game.c:215:   gsc->jokes[gsc->joke_index++] =
 215:src/scenes/scene_game.c ****       "I made a pencil with two erasers. It was pointless.";
 1056              		.loc 1 215 33 view .LVU246
 1057 0162 C4F81831 		str	r3, [r4, #280]	@ tmp216, gsc_8->jokes[7]
 217:src/scenes/scene_game.c **** }
 1058              		.loc 1 217 3 is_stmt 1 view .LVU247
 1059              	.LVL55:
 217:src/scenes/scene_game.c **** }
 1060              		.loc 1 217 3 is_stmt 0 view .LVU248
 1061              	.LBE151:
 1062              	.LBE150:
 110:src/scenes/scene_game.c **** }
 1063              		.loc 1 110 3 is_stmt 1 view .LVU249
 1064              	.LBB152:
 1065              	.LBI145:
 386:src/scenes/scene_game.c ****   PlaydateAPI *pd = game->pd;
 1066              		.loc 1 386 13 view .LVU250
ARM GAS  /tmp/ccIwehAI.s 			page 33


 1067              	.LBB147:
 387:src/scenes/scene_game.c ****   GameSceneContext *gsc = (GameSceneContext *)game->game_userdata;
 1068              		.loc 1 387 3 view .LVU251
 1069              	@ src/scenes/scene_game.c:387:   PlaydateAPI *pd = game->pd;
 387:src/scenes/scene_game.c ****   GameSceneContext *gsc = (GameSceneContext *)game->game_userdata;
 1070              		.loc 1 387 16 is_stmt 0 view .LVU252
 1071 0166 3C68     		ldr	r4, [r7]	@ pd, game_4(D)->pd
 1072              	.LVL56:
 388:src/scenes/scene_game.c **** 
 1073              		.loc 1 388 3 is_stmt 1 view .LVU253
 390:src/scenes/scene_game.c **** 
 1074              		.loc 1 390 3 view .LVU254
 1075 0168 FFF7FEFF 		bl	new_joke		@
 1076              	.LVL57:
 392:src/scenes/scene_game.c **** }
 1077              		.loc 1 392 3 view .LVU255
 1078 016c 2946     		mov	r1, r5	@, tmp160
 1079 016e F068     		ldr	r0, [r6, #12]	@, assets_10(D)->bird_sprite
 1080              	@ src/scenes/scene_game.c:392:   pd->sprite->setImageFlip(assets->bird_sprite, kBitmapUnflipped);
 392:src/scenes/scene_game.c **** }
 1081              		.loc 1 392 13 is_stmt 0 view .LVU256
 1082 0170 E368     		ldr	r3, [r4, #12]	@ pd_26->sprite, pd_26->sprite
 1083              	@ src/scenes/scene_game.c:392:   pd->sprite->setImageFlip(assets->bird_sprite, kBitmapUnflipped);
 392:src/scenes/scene_game.c **** }
 1084              		.loc 1 392 3 view .LVU257
 1085 0172 9B6D     		ldr	r3, [r3, #88]	@ _27->setImageFlip, _27->setImageFlip
 1086              	.LBE147:
 1087              	.LBE152:
 1088              	@ src/scenes/scene_game.c:111: }
 111:src/scenes/scene_game.c **** 
 1089              		.loc 1 111 1 view .LVU258
 1090 0174 05B0     		add	sp, sp, #20	@,,
 1091              	.LCFI8:
 1092              		.cfi_def_cfa_offset 28
 1093              		@ sp needed	@
 1094 0176 BDE8F043 		pop	{r4, r5, r6, r7, r8, r9, lr}	@
 1095              	.LCFI9:
 1096              		.cfi_restore 14
 1097              		.cfi_restore 9
 1098              		.cfi_restore 8
 1099              		.cfi_restore 7
 1100              		.cfi_restore 6
 1101              		.cfi_restore 5
 1102              		.cfi_restore 4
 1103              		.cfi_def_cfa_offset 0
 1104              	.LVL58:
 1105              	.LBB153:
 1106              	.LBB148:
 1107              	@ src/scenes/scene_game.c:392:   pd->sprite->setImageFlip(assets->bird_sprite, kBitmapUnflipped);
 392:src/scenes/scene_game.c **** }
 1108              		.loc 1 392 3 view .LVU259
 1109 017a 1847     		bx	r3	@ indirect register sibling call	@ _27->setImageFlip
 1110              	.LVL59:
 1111              	.L14:
 1112              		.align	2
 1113              	.L13:
 1114 017c 00000000 		.word	.LC1
ARM GAS  /tmp/ccIwehAI.s 			page 34


 1115 0180 08000000 		.word	.LC2
 1116 0184 1C000000 		.word	.LC3
 1117 0188 28000000 		.word	.LC4
 1118 018c 34000000 		.word	.LC5
 1119 0190 40000000 		.word	.LC6
 1120 0194 54000000 		.word	.LC7
 1121 0198 68000000 		.word	.LC8
 1122 019c 90000000 		.word	.LC9
 1123 01a0 C4000000 		.word	.LC10
 1124 01a4 FC000000 		.word	.LC11
 1125 01a8 3C010000 		.word	.LC12
 1126 01ac 74010000 		.word	.LC13
 1127 01b0 B4010000 		.word	.LC14
 1128 01b4 EC010000 		.word	.LC15
 1129              	.LBE148:
 1130              	.LBE153:
 1131              		.cfi_endproc
 1132              	.LFE31:
 1133              		.size	init_game, .-init_game
 1134              		.section	.text.tick_game,"ax",%progbits
 1135              		.align	1
 1136              		.p2align 4,,15
 1137              		.global	tick_game
 1138              		.syntax unified
 1139              		.thumb
 1140              		.thumb_func
 1141              		.fpu fpv5-sp-d16
 1142              		.type	tick_game, %function
 1143              	tick_game:
 1144              	.LVL60:
 1145              	.LFB32:
 117:src/scenes/scene_game.c ****   PlaydateAPI *pd = game->pd;
 1146              		.loc 1 117 61 is_stmt 1 view -0
 1147              		.cfi_startproc
 1148              		@ args = 0, pretend = 0, frame = 32
 1149              		@ frame_needed = 0, uses_anonymous_args = 0
 118:src/scenes/scene_game.c ****   GameSceneContext *gsc = (GameSceneContext *)game->game_userdata;
 1150              		.loc 1 118 3 view .LVU261
 1151              	@ src/scenes/scene_game.c:117:                     PDButtons debounced_buttons, int delta) {
 117:src/scenes/scene_game.c ****   PlaydateAPI *pd = game->pd;
 1152              		.loc 1 117 61 is_stmt 0 view .LVU262
 1153 0000 2DE9F04F 		push	{r4, r5, r6, r7, r8, r9, r10, fp, lr}	@
 1154              	.LCFI10:
 1155              		.cfi_def_cfa_offset 36
 1156              		.cfi_offset 4, -36
 1157              		.cfi_offset 5, -32
 1158              		.cfi_offset 6, -28
 1159              		.cfi_offset 7, -24
 1160              		.cfi_offset 8, -20
 1161              		.cfi_offset 9, -16
 1162              		.cfi_offset 10, -12
 1163              		.cfi_offset 11, -8
 1164              		.cfi_offset 14, -4
 1165              	@ src/scenes/scene_game.c:119:   GameSceneContext *gsc = (GameSceneContext *)game->game_userdata;
 119:src/scenes/scene_game.c **** 
 1166              		.loc 1 119 21 view .LVU263
 1167 0004 046B     		ldr	r4, [r0, #48]	@ gsc, game_4(D)->game_userdata
ARM GAS  /tmp/ccIwehAI.s 			page 35


 1168              	@ src/scenes/scene_game.c:117:                     PDButtons debounced_buttons, int delta) {
 117:src/scenes/scene_game.c ****   PlaydateAPI *pd = game->pd;
 1169              		.loc 1 117 61 view .LVU264
 1170 0006 8BB0     		sub	sp, sp, #44	@,,
 1171              	.LCFI11:
 1172              		.cfi_def_cfa_offset 80
 1173              	@ src/scenes/scene_game.c:118:   PlaydateAPI *pd = game->pd;
 118:src/scenes/scene_game.c ****   GameSceneContext *gsc = (GameSceneContext *)game->game_userdata;
 1174              		.loc 1 118 16 view .LVU265
 1175 0008 0768     		ldr	r7, [r0]	@ pd, game_4(D)->pd
 1176              	.LVL61:
 119:src/scenes/scene_game.c **** 
 1177              		.loc 1 119 3 is_stmt 1 view .LVU266
 121:src/scenes/scene_game.c ****     if ((debounced_buttons & kButtonA) || (debounced_buttons & kButtonB)) {
 1178              		.loc 1 121 3 view .LVU267
 1179              	@ src/scenes/scene_game.c:121:   if (gsc->state == STATE_GAME_OVER) {
 121:src/scenes/scene_game.c ****     if ((debounced_buttons & kButtonA) || (debounced_buttons & kButtonB)) {
 1180              		.loc 1 121 6 is_stmt 0 view .LVU268
 1181 000a 94F83031 		ldrb	r3, [r4, #304]	@ zero_extendqisi2	@ gsc_6->state, gsc_6->state
 1182              	.LVL62:
 1183              	@ src/scenes/scene_game.c:117:                     PDButtons debounced_buttons, int delta) {
 117:src/scenes/scene_game.c ****   PlaydateAPI *pd = game->pd;
 1184              		.loc 1 117 61 view .LVU269
 1185 000e 0291     		str	r1, [sp, #8]	@ tmp513, %sfp
 1186              	@ src/scenes/scene_game.c:121:   if (gsc->state == STATE_GAME_OVER) {
 121:src/scenes/scene_game.c ****     if ((debounced_buttons & kButtonA) || (debounced_buttons & kButtonB)) {
 1187              		.loc 1 121 6 view .LVU270
 1188 0010 032B     		cmp	r3, #3	@ gsc_6->state,
 1189 0012 07D1     		bne	.L16		@,
 122:src/scenes/scene_game.c ****       reset_game(game, assets);
 1190              		.loc 1 122 5 is_stmt 1 view .LVU271
 1191              	@ src/scenes/scene_game.c:122:     if ((debounced_buttons & kButtonA) || (debounced_buttons & kButt
 122:src/scenes/scene_game.c ****       reset_game(game, assets);
 1192              		.loc 1 122 8 is_stmt 0 view .LVU272
 1193 0014 12F0300F 		tst	r2, #48	@ debounced_buttons,
 1194 0018 40F0C080 		bne	.L57		@,
 1195              	.LVL63:
 1196              	.L55:
 1197              	@ src/scenes/scene_game.c:132: }
 132:src/scenes/scene_game.c **** 
 1198              		.loc 1 132 1 view .LVU273
 1199 001c 0020     		movs	r0, #0	@,
 1200 001e 0BB0     		add	sp, sp, #44	@,,
 1201              	.LCFI12:
 1202              		.cfi_remember_state
 1203              		.cfi_def_cfa_offset 36
 1204              		@ sp needed	@
 1205 0020 BDE8F08F 		pop	{r4, r5, r6, r7, r8, r9, r10, fp, pc}	@
 1206              	.LVL64:
 1207              	.L16:
 1208              	.LCFI13:
 1209              		.cfi_restore_state
 126:src/scenes/scene_game.c ****     update_tomato(game, assets);
 1210              		.loc 1 126 5 is_stmt 1 view .LVU274
 1211              	.LBB186:
 1212              	.LBI186:
 286:src/scenes/scene_game.c ****                             PDButtons debounced_buttons, GameAssets *assets) {
ARM GAS  /tmp/ccIwehAI.s 			page 36


 1213              		.loc 1 286 13 view .LVU275
 1214              	.LBB187:
 288:src/scenes/scene_game.c ****     move_player(pd, &gsc->player, assets, -1 * gsc->player.velocity);
 1215              		.loc 1 288 3 view .LVU276
 1216              	@ src/scenes/scene_game.c:288:   if ((debounced_buttons & kButtonLeft)) {
 288:src/scenes/scene_game.c ****     move_player(pd, &gsc->player, assets, -1 * gsc->player.velocity);
 1217              		.loc 1 288 6 is_stmt 0 view .LVU277
 1218 0024 D107     		lsls	r1, r2, #31	@, debounced_buttons,
 1219              	.LVL65:
 288:src/scenes/scene_game.c ****     move_player(pd, &gsc->player, assets, -1 * gsc->player.velocity);
 1220              		.loc 1 288 6 view .LVU278
 1221 0026 0546     		mov	r5, r0	@ game, tmp512
 1222 0028 00F19881 		bmi	.L58		@,
 290:src/scenes/scene_game.c ****     move_player(pd, &gsc->player, assets, gsc->player.velocity);
 1223              		.loc 1 290 10 is_stmt 1 view .LVU279
 1224              	@ src/scenes/scene_game.c:290:   } else if ((debounced_buttons & kButtonRight)) {
 290:src/scenes/scene_game.c ****     move_player(pd, &gsc->player, assets, gsc->player.velocity);
 1225              		.loc 1 290 13 is_stmt 0 view .LVU280
 1226 002c 9307     		lsls	r3, r2, #30	@, debounced_buttons,
 1227 002e 00F1B181 		bmi	.L59		@,
 1228              	.LVL66:
 1229              	.L20:
 290:src/scenes/scene_game.c ****     move_player(pd, &gsc->player, assets, gsc->player.velocity);
 1230              		.loc 1 290 13 view .LVU281
 1231              	.LBE187:
 1232              	.LBE186:
 127:src/scenes/scene_game.c ****     update_state(game, assets);
 1233              		.loc 1 127 5 is_stmt 1 view .LVU282
 1234              	.LBB191:
 1235              	.LBI191:
 295:src/scenes/scene_game.c ****   PlaydateAPI *pd = game->pd;
 1236              		.loc 1 295 13 view .LVU283
 1237              	.LBB192:
 296:src/scenes/scene_game.c ****   GameSceneContext *gsc = (GameSceneContext *)game->game_userdata;
 1238              		.loc 1 296 3 view .LVU284
 297:src/scenes/scene_game.c ****   if (gsc->tomato.active) {
 1239              		.loc 1 297 3 view .LVU285
 298:src/scenes/scene_game.c ****     gsc->tomato.location.x += gsc->tomato.velocity.x;
 1240              		.loc 1 298 3 view .LVU286
 1241              	@ src/scenes/scene_game.c:298:   if (gsc->tomato.active) {
 298:src/scenes/scene_game.c ****     gsc->tomato.location.x += gsc->tomato.velocity.x;
 1242              		.loc 1 298 6 is_stmt 0 view .LVU287
 1243 0032 94F8D830 		ldrb	r3, [r4, #216]	@ zero_extendqisi2	@ MEM[(struct GameSceneContext *)prephitmp_244].tomato.acti
 1244 0036 002B     		cmp	r3, #0	@ MEM[(struct GameSceneContext *)prephitmp_244].tomato.active
 1245 0038 55D0     		beq	.L21	@
 1246              	.LBB193:
 299:src/scenes/scene_game.c ****     gsc->tomato.location.y += gsc->tomato.velocity.y;
 1247              		.loc 1 299 5 is_stmt 1 view .LVU288
 1248              	@ src/scenes/scene_game.c:299:     gsc->tomato.location.x += gsc->tomato.velocity.x;
 299:src/scenes/scene_game.c ****     gsc->tomato.location.y += gsc->tomato.velocity.y;
 1249              		.loc 1 299 28 is_stmt 0 view .LVU289
 1250 003a 94ED327A 		vldr.32	s14, [r4, #200]	@ MEM[(struct GameSceneContext *)prephitmp_244].tomato.location.x, MEM[(st
 1251              	@ src/scenes/scene_game.c:300:     gsc->tomato.location.y += gsc->tomato.velocity.y;
 300:src/scenes/scene_game.c **** 
 1252              		.loc 1 300 28 view .LVU290
 1253 003e D4ED337A 		vldr.32	s15, [r4, #204]	@ MEM[(struct GameSceneContext *)prephitmp_244].tomato.location.y, MEM[(st
 1254              	@ src/scenes/scene_game.c:299:     gsc->tomato.location.x += gsc->tomato.velocity.x;
ARM GAS  /tmp/ccIwehAI.s 			page 37


 299:src/scenes/scene_game.c ****     gsc->tomato.location.y += gsc->tomato.velocity.y;
 1255              		.loc 1 299 28 view .LVU291
 1256 0042 94ED346A 		vldr.32	s12, [r4, #208]	@ MEM[(struct GameSceneContext *)prephitmp_244].tomato.velocity.x, MEM[(st
 1257              	@ src/scenes/scene_game.c:300:     gsc->tomato.location.y += gsc->tomato.velocity.y;
 300:src/scenes/scene_game.c **** 
 1258              		.loc 1 300 28 view .LVU292
 1259 0046 D4ED356A 		vldr.32	s13, [r4, #212]	@ MEM[(struct GameSceneContext *)prephitmp_244].tomato.velocity.y, MEM[(st
 1260              	@ src/scenes/scene_game.c:299:     gsc->tomato.location.x += gsc->tomato.velocity.x;
 299:src/scenes/scene_game.c ****     gsc->tomato.location.y += gsc->tomato.velocity.y;
 1261              		.loc 1 299 28 view .LVU293
 1262 004a 37EE067A 		vadd.f32	s14, s14, s12	@ _55, MEM[(struct GameSceneContext *)prephitmp_244].tomato.location.x, MEM
 1263              	@ src/scenes/scene_game.c:304:     PDRect bounds = pd->sprite->getBounds(assets->bird_sprite);
 304:src/scenes/scene_game.c **** 
 1264              		.loc 1 304 21 view .LVU294
 1265 004e 029A     		ldr	r2, [sp, #8]	@ assets, %sfp
 1266              	@ src/scenes/scene_game.c:300:     gsc->tomato.location.y += gsc->tomato.velocity.y;
 300:src/scenes/scene_game.c **** 
 1267              		.loc 1 300 28 view .LVU295
 1268 0050 77EEA67A 		vadd.f32	s15, s15, s13	@ _58, MEM[(struct GameSceneContext *)prephitmp_244].tomato.location.y, MEM
 1269              	@ src/scenes/scene_game.c:304:     PDRect bounds = pd->sprite->getBounds(assets->bird_sprite);
 304:src/scenes/scene_game.c **** 
 1270              		.loc 1 304 31 view .LVU296
 1271 0054 FB68     		ldr	r3, [r7, #12]	@ prephitmp_168->sprite, prephitmp_168->sprite
 1272              	@ src/scenes/scene_game.c:304:     PDRect bounds = pd->sprite->getBounds(assets->bird_sprite);
 304:src/scenes/scene_game.c **** 
 1273              		.loc 1 304 21 view .LVU297
 1274 0056 D068     		ldr	r0, [r2, #12]	@, assets_8(D)->bird_sprite
 1275              	@ src/scenes/scene_game.c:299:     gsc->tomato.location.x += gsc->tomato.velocity.x;
 299:src/scenes/scene_game.c ****     gsc->tomato.location.y += gsc->tomato.velocity.y;
 1276              		.loc 1 299 28 view .LVU298
 1277 0058 84ED327A 		vstr.32	s14, [r4, #200]	@ _55, MEM[(struct GameSceneContext *)prephitmp_244].tomato.location.x
 300:src/scenes/scene_game.c **** 
 1278              		.loc 1 300 5 is_stmt 1 view .LVU299
 1279              	@ src/scenes/scene_game.c:303:         MLIBPOINT_CREATE(gsc->tomato.location.x, gsc->tomato.locatio
 303:src/scenes/scene_game.c ****     PDRect bounds = pd->sprite->getBounds(assets->bird_sprite);
 1280              		.loc 1 303 9 is_stmt 0 view .LVU300
 1281 005c BDEEC77A 		vcvt.s32.f32	s14, s14	@ _59, _55
 1282              	@ src/scenes/scene_game.c:300:     gsc->tomato.location.y += gsc->tomato.velocity.y;
 300:src/scenes/scene_game.c **** 
 1283              		.loc 1 300 28 view .LVU301
 1284 0060 C4ED337A 		vstr.32	s15, [r4, #204]	@ _58, MEM[(struct GameSceneContext *)prephitmp_244].tomato.location.y
 302:src/scenes/scene_game.c ****         MLIBPOINT_CREATE(gsc->tomato.location.x, gsc->tomato.location.y);
 1285              		.loc 1 302 5 is_stmt 1 view .LVU302
 1286              	@ src/scenes/scene_game.c:303:         MLIBPOINT_CREATE(gsc->tomato.location.x, gsc->tomato.locatio
 303:src/scenes/scene_game.c ****     PDRect bounds = pd->sprite->getBounds(assets->bird_sprite);
 1287              		.loc 1 303 9 is_stmt 0 view .LVU303
 1288 0064 FDEEE77A 		vcvt.s32.f32	s15, s15	@ _60, _58
 1289              	@ src/scenes/scene_game.c:304:     PDRect bounds = pd->sprite->getBounds(assets->bird_sprite);
 304:src/scenes/scene_game.c **** 
 1290              		.loc 1 304 21 view .LVU304
 1291 0068 5B6B     		ldr	r3, [r3, #52]	@ _61->getBounds, _61->getBounds
 1292              	@ src/scenes/scene_game.c:303:         MLIBPOINT_CREATE(gsc->tomato.location.x, gsc->tomato.locatio
 303:src/scenes/scene_game.c ****     PDRect bounds = pd->sprite->getBounds(assets->bird_sprite);
 1293              		.loc 1 303 9 view .LVU305
 1294 006a 17EE109A 		vmov	r9, s14	@ int	@ _59, _59
 1295 006e 17EE908A 		vmov	r8, s15	@ int	@ _60, _60
 1296              	.LVL67:
ARM GAS  /tmp/ccIwehAI.s 			page 38


 303:src/scenes/scene_game.c ****     PDRect bounds = pd->sprite->getBounds(assets->bird_sprite);
 1297              		.loc 1 303 9 view .LVU306
 1298              	.LBE193:
 1299              	.LBE192:
 1300              	.LBE191:
  37:./src/scenes/../pdantler/mooselib.h **** }
 1301              		.loc 2 37 3 is_stmt 1 view .LVU307
 1302              	.LBB220:
 1303              	.LBB215:
 1304              	.LBB211:
 304:src/scenes/scene_game.c **** 
 1305              		.loc 1 304 5 view .LVU308
 1306              	@ src/scenes/scene_game.c:304:     PDRect bounds = pd->sprite->getBounds(assets->bird_sprite);
 304:src/scenes/scene_game.c **** 
 1307              		.loc 1 304 21 is_stmt 0 view .LVU309
 1308 0072 9847     		blx	r3		@ _61->getBounds
 1309              	.LVL68:
 1310              	@ src/scenes/scene_game.c:307:                                               bounds.y + gsc->player
 307:src/scenes/scene_game.c ****                                               gsc->player.hitbox.width,
 1311              		.loc 1 307 56 view .LVU310
 1312 0074 D4ED057A 		vldr.32	s15, [r4, #20]	@ int	@ tmp535, MEM[(struct GameSceneContext *)prephitmp_244].player.hitbox
 1313              	@ src/scenes/scene_game.c:304:     PDRect bounds = pd->sprite->getBounds(assets->bird_sprite);
 304:src/scenes/scene_game.c **** 
 1314              		.loc 1 304 21 view .LVU311
 1315 0078 8DED060A 		vstr.32	s0, [sp, #24]	@ tmp312, bounds
 1316              	@ src/scenes/scene_game.c:307:                                               bounds.y + gsc->player
 307:src/scenes/scene_game.c ****                                               gsc->player.hitbox.width,
 1317              		.loc 1 307 56 view .LVU312
 1318 007c F8EEE77A 		vcvt.f32.s32	s15, s15	@ tmp320, tmp535
 1319              	@ src/scenes/scene_game.c:304:     PDRect bounds = pd->sprite->getBounds(assets->bird_sprite);
 304:src/scenes/scene_game.c **** 
 1320              		.loc 1 304 21 view .LVU313
 1321 0080 CDED070A 		vstr.32	s1, [sp, #28]	@ tmp313, bounds
 1322 0084 8DED081A 		vstr.32	s2, [sp, #32]	@ tmp517, bounds
 1323 0088 CDED091A 		vstr.32	s3, [sp, #36]	@ tmp518, bounds
 306:src/scenes/scene_game.c ****                                               bounds.y + gsc->player.hitbox.y,
 1324              		.loc 1 306 5 is_stmt 1 view .LVU314
 1325              	@ src/scenes/scene_game.c:307:                                               bounds.y + gsc->player
 307:src/scenes/scene_game.c ****                                               gsc->player.hitbox.width,
 1326              		.loc 1 307 56 is_stmt 0 view .LVU315
 1327 008c 37EEA07A 		vadd.f32	s14, s15, s1	@ tmp322, tmp320, tmp313
 1328              	@ src/scenes/scene_game.c:306:     if (MLIB_POINT_IN_RECT(p, MLIBRECT_CREATE(bounds.x + gsc->player
 306:src/scenes/scene_game.c ****                                               bounds.y + gsc->player.hitbox.y,
 1329              		.loc 1 306 56 view .LVU316
 1330 0090 D4ED047A 		vldr.32	s15, [r4, #16]	@ int	@ tmp536, MEM[(struct GameSceneContext *)prephitmp_244].player.hitbox
 1331 0094 F8EEE77A 		vcvt.f32.s32	s15, s15	@ tmp316, tmp536
 1332 0098 37EE800A 		vadd.f32	s0, s15, s0	@ tmp318, tmp316, tmp312
 1333              	@ src/scenes/scene_game.c:306:     if (MLIB_POINT_IN_RECT(p, MLIBRECT_CREATE(bounds.x + gsc->player
 306:src/scenes/scene_game.c ****                                               bounds.y + gsc->player.hitbox.y,
 1334              		.loc 1 306 9 view .LVU317
 1335 009c FDEEC77A 		vcvt.s32.f32	s15, s14	@ _73, tmp322
 1336 00a0 BDEEC00A 		vcvt.s32.f32	s0, s0	@ _68, tmp318
 1337              	.LVL69:
 306:src/scenes/scene_game.c ****                                               bounds.y + gsc->player.hitbox.y,
 1338              		.loc 1 306 9 view .LVU318
 1339 00a4 17EE902A 		vmov	r2, s15	@ int	@ _73, _73
 1340              	.LVL70:
ARM GAS  /tmp/ccIwehAI.s 			page 39


 306:src/scenes/scene_game.c ****                                               bounds.y + gsc->player.hitbox.y,
 1341              		.loc 1 306 9 view .LVU319
 1342              	.LBE211:
 1343              	.LBE215:
 1344              	.LBE220:
  57:./src/scenes/../pdantler/mooselib.h **** }
 1345              		.loc 2 57 3 is_stmt 1 view .LVU320
 1346              	.LBB221:
 1347              	.LBB216:
 1348              	.LBB212:
 1349              	.LBB194:
 1350              	.LBI194:
  98:./src/scenes/../pdantler/mooselib.h ****     return max;
  99:./src/scenes/../pdantler/mooselib.h ****   }
 100:./src/scenes/../pdantler/mooselib.h ****   return v;
 101:./src/scenes/../pdantler/mooselib.h **** }
 102:./src/scenes/../pdantler/mooselib.h **** 
 103:./src/scenes/../pdantler/mooselib.h **** // Return if point is fully contained in a rect
 104:./src/scenes/../pdantler/mooselib.h **** static inline bool MLIB_POINT_IN_RECT(MLIBPoint p, MLIBRect rect) {
 1351              		.loc 2 104 20 view .LVU321
 1352              	.LBB195:
 105:./src/scenes/../pdantler/mooselib.h ****   return (p.x >= rect.x && p.y >= rect.y && p.x < rect.x + rect.width &&
 1353              		.loc 2 105 3 view .LVU322
 1354              	@ ./src/scenes/../pdantler/mooselib.h:105:   return (p.x >= rect.x && p.y >= rect.y && p.x < rect.x
 1355              		.loc 2 105 25 is_stmt 0 view .LVU323
 1356 00a8 9045     		cmp	r8, r2	@ _60, _73
 1357 00aa 04DB     		blt	.L22		@,
 1358 00ac 10EE103A 		vmov	r3, s0	@ int	@ _68, _68
 1359 00b0 9945     		cmp	r9, r3	@ _59, _68
 1360 00b2 80F27881 		bge	.L60		@,
 1361              	.LVL71:
 1362              	.L22:
 1363              		.loc 2 105 25 view .LVU324
 1364              	.LBE195:
 1365              	.LBE194:
 312:src/scenes/scene_game.c ****       pd->sprite->moveTo(assets->tomato_sprite, (int)gsc->tomato.location.x,
 1366              		.loc 1 312 12 is_stmt 1 view .LVU325
 1367              	.LBB197:
 1368              	.LBB198:
 1369              	.LBI198:
 104:./src/scenes/../pdantler/mooselib.h ****   return (p.x >= rect.x && p.y >= rect.y && p.x < rect.x + rect.width &&
 1370              		.loc 2 104 20 view .LVU326
 1371              	.LBB199:
 1372              		.loc 2 105 3 view .LVU327
 1373              	@ ./src/scenes/../pdantler/mooselib.h:105:   return (p.x >= rect.x && p.y >= rect.y && p.x < rect.x
 1374              		.loc 2 105 71 is_stmt 0 view .LVU328
 1375 00b6 B8F1EF0F 		cmp	r8, #239	@ _60,
 1376 00ba 03D8     		bhi	.L26		@,
 1377 00bc B9F5C87F 		cmp	r9, #400	@ _59,
 1378 00c0 C0F05681 		bcc	.L61		@,
 1379              	.L26:
 1380              	.LVL72:
 1381              		.loc 2 105 71 view .LVU329
 1382              	.LBE199:
 1383              	.LBE198:
 316:src/scenes/scene_game.c ****       hide_tomato(game, assets);
 1384              		.loc 1 316 7 is_stmt 1 view .LVU330
ARM GAS  /tmp/ccIwehAI.s 			page 40


 1385 00c4 029C     		ldr	r4, [sp, #8]	@ assets, %sfp
 1386 00c6 2846     		mov	r0, r5	@, game
 1387 00c8 2146     		mov	r1, r4	@, assets
 1388 00ca FFF7FEFF 		bl	new_joke		@
 1389              	.LVL73:
 317:src/scenes/scene_game.c ****     }
 1390              		.loc 1 317 7 view .LVU331
 1391 00ce 2B68     		ldr	r3, [r5]	@ _97, MEM[(struct PlaydateAPI * *)game_4(D)]
 1392              	.LBB200:
 1393              	.LBB201:
 1394              	@ src/scenes/scene_game.c:375:   gsc->tomato.active = false;
 375:src/scenes/scene_game.c ****   pd->sprite->setVisible(assets->tomato_sprite, false);
 1395              		.loc 1 375 22 is_stmt 0 view .LVU332
 1396 00d0 2A6B     		ldr	r2, [r5, #48]	@ MEM[(void * *)game_4(D) + 48B], MEM[(void * *)game_4(D) + 48B]
 1397 00d2 0021     		movs	r1, #0	@ tmp498,
 1398              	@ src/scenes/scene_game.c:376:   pd->sprite->setVisible(assets->tomato_sprite, false);
 376:src/scenes/scene_game.c **** }
 1399              		.loc 1 376 13 view .LVU333
 1400 00d4 DB68     		ldr	r3, [r3, #12]	@ _97->sprite, _97->sprite
 1401 00d6 E069     		ldr	r0, [r4, #28]	@ _99, MEM[(struct LCDSprite * *)assets_8(D) + 28B]
 1402              	.LBE201:
 1403              	.LBI200:
 372:src/scenes/scene_game.c ****   PlaydateAPI *pd = game->pd;
 1404              		.loc 1 372 13 is_stmt 1 view .LVU334
 1405              	.LVL74:
 1406              	.LBB202:
 373:src/scenes/scene_game.c ****   GameSceneContext *gsc = (GameSceneContext *)game->game_userdata;
 1407              		.loc 1 373 3 view .LVU335
 374:src/scenes/scene_game.c ****   gsc->tomato.active = false;
 1408              		.loc 1 374 3 view .LVU336
 375:src/scenes/scene_game.c ****   pd->sprite->setVisible(assets->tomato_sprite, false);
 1409              		.loc 1 375 3 view .LVU337
 1410              	@ src/scenes/scene_game.c:376:   pd->sprite->setVisible(assets->tomato_sprite, false);
 376:src/scenes/scene_game.c **** }
 1411              		.loc 1 376 3 is_stmt 0 view .LVU338
 1412 00d8 D3F88430 		ldr	r3, [r3, #132]	@ _119->setVisible, _119->setVisible
 1413              	@ src/scenes/scene_game.c:375:   gsc->tomato.active = false;
 375:src/scenes/scene_game.c ****   pd->sprite->setVisible(assets->tomato_sprite, false);
 1414              		.loc 1 375 22 view .LVU339
 1415 00dc 82F8D810 		strb	r1, [r2, #216]	@ tmp498, MEM[(struct GameSceneContext *)_98].tomato.active
 376:src/scenes/scene_game.c **** }
 1416              		.loc 1 376 3 is_stmt 1 view .LVU340
 1417 00e0 9847     		blx	r3		@ _119->setVisible
 1418              	.LVL75:
 1419              	.L37:
 376:src/scenes/scene_game.c **** }
 1420              		.loc 1 376 3 is_stmt 0 view .LVU341
 1421              	.LBE202:
 1422              	.LBE200:
 1423              	.LBE197:
 1424              	.LBE212:
 1425              	.LBE216:
 1426              	.LBE221:
 1427              	.LBB222:
 1428              	.LBB223:
 1429              	@ src/scenes/scene_game.c:322:   PlaydateAPI *pd = game->pd;
 322:src/scenes/scene_game.c ****   GameSceneContext *gsc = (GameSceneContext *)game->game_userdata;
ARM GAS  /tmp/ccIwehAI.s 			page 41


 1430              		.loc 1 322 16 view .LVU342
 1431 00e2 2F68     		ldr	r7, [r5]	@ pd, game_4(D)->pd
 1432              	@ src/scenes/scene_game.c:323:   GameSceneContext *gsc = (GameSceneContext *)game->game_userdata;
 323:src/scenes/scene_game.c **** 
 1433              		.loc 1 323 21 view .LVU343
 1434 00e4 2C6B     		ldr	r4, [r5, #48]	@ gsc, game_4(D)->game_userdata
 1435              	.L21:
 1436              	.LVL76:
 323:src/scenes/scene_game.c **** 
 1437              		.loc 1 323 21 view .LVU344
 1438              	.LBE223:
 1439              	.LBE222:
 128:src/scenes/scene_game.c ****   }
 1440              		.loc 1 128 5 is_stmt 1 view .LVU345
 1441              	.LBB263:
 1442              	.LBI222:
 321:src/scenes/scene_game.c ****   PlaydateAPI *pd = game->pd;
 1443              		.loc 1 321 13 view .LVU346
 1444              	.LBB258:
 322:src/scenes/scene_game.c ****   GameSceneContext *gsc = (GameSceneContext *)game->game_userdata;
 1445              		.loc 1 322 3 view .LVU347
 323:src/scenes/scene_game.c **** 
 1446              		.loc 1 323 3 view .LVU348
 325:src/scenes/scene_game.c ****   case STATE_JOKE:
 1447              		.loc 1 325 3 view .LVU349
 1448              	@ src/scenes/scene_game.c:325:   switch (gsc->state) {
 325:src/scenes/scene_game.c ****   case STATE_JOKE:
 1449              		.loc 1 325 14 is_stmt 0 view .LVU350
 1450 00e6 94F83081 		ldrb	r8, [r4, #304]	@ zero_extendqisi2	@ _20, MEM[(struct GameSceneContext *)prephitmp_267].state
 1451              	@ src/scenes/scene_game.c:325:   switch (gsc->state) {
 325:src/scenes/scene_game.c ****   case STATE_JOKE:
 1452              		.loc 1 325 3 view .LVU351
 1453 00ea B8F1000F 		cmp	r8, #0	@ _20
 1454 00ee 61D0     		beq	.L27	@
 1455 00f0 B8F1010F 		cmp	r8, #1	@ _20,
 1456 00f4 92D1     		bne	.L55		@,
 344:src/scenes/scene_game.c ****       hide_speech(game, assets);
 1457              		.loc 1 344 5 is_stmt 1 view .LVU352
 1458              	@ src/scenes/scene_game.c:344:     if (pd->system->getElapsedTime() > gsc->change_state_time) {
 344:src/scenes/scene_game.c ****       hide_speech(game, assets);
 1459              		.loc 1 344 19 is_stmt 0 view .LVU353
 1460 00f6 3B68     		ldr	r3, [r7]	@ prephitmp_270->system, prephitmp_270->system
 1461              	@ src/scenes/scene_game.c:344:     if (pd->system->getElapsedTime() > gsc->change_state_time) {
 344:src/scenes/scene_game.c ****       hide_speech(game, assets);
 1462              		.loc 1 344 9 view .LVU354
 1463 00f8 DB6F     		ldr	r3, [r3, #124]	@ _39->getElapsedTime, _39->getElapsedTime
 1464 00fa 9847     		blx	r3		@ _39->getElapsedTime
 1465              	.LVL77:
 1466              	@ src/scenes/scene_game.c:344:     if (pd->system->getElapsedTime() > gsc->change_state_time) {
 344:src/scenes/scene_game.c ****       hide_speech(game, assets);
 1467              		.loc 1 344 8 view .LVU355
 1468 00fc D4ED497A 		vldr.32	s15, [r4, #292]	@ MEM[(struct GameSceneContext *)prephitmp_267].change_state_time, MEM[(st
 1469 0100 B4EEE70A 		vcmpe.f32	s0, s15	@ tmp526, MEM[(struct GameSceneContext *)prephitmp_267].change_state_time
 1470 0104 F1EE10FA 		vmrs	APSR_nzcv, FPSCR
 1471 0108 88DD     		ble	.L55		@,
 345:src/scenes/scene_game.c **** 
 1472              		.loc 1 345 7 is_stmt 1 view .LVU356
ARM GAS  /tmp/ccIwehAI.s 			page 42


 1473              	.LVL78:
 1474              	.LBB224:
 1475              	.LBI224:
 281:src/scenes/scene_game.c ****   PlaydateAPI *pd = game->pd;
 1476              		.loc 1 281 13 view .LVU357
 1477              	.LBB225:
 282:src/scenes/scene_game.c ****   pd->sprite->setVisible(assets->speech_bubble_sprite, false);
 1478              		.loc 1 282 3 view .LVU358
 283:src/scenes/scene_game.c **** }
 1479              		.loc 1 283 3 view .LVU359
 1480              	@ src/scenes/scene_game.c:283:   pd->sprite->setVisible(assets->speech_bubble_sprite, false);
 283:src/scenes/scene_game.c **** }
 1481              		.loc 1 283 5 is_stmt 0 view .LVU360
 1482 010a 2B68     		ldr	r3, [r5]	@ game_4(D)->pd, game_4(D)->pd
 1483              	@ src/scenes/scene_game.c:283:   pd->sprite->setVisible(assets->speech_bubble_sprite, false);
 283:src/scenes/scene_game.c **** }
 1484              		.loc 1 283 3 view .LVU361
 1485 010c 0021     		movs	r1, #0	@,
 1486 010e 029E     		ldr	r6, [sp, #8]	@ assets, %sfp
 1487              	@ src/scenes/scene_game.c:283:   pd->sprite->setVisible(assets->speech_bubble_sprite, false);
 283:src/scenes/scene_game.c **** }
 1488              		.loc 1 283 13 view .LVU362
 1489 0110 DB68     		ldr	r3, [r3, #12]	@ pd_43->sprite, pd_43->sprite
 1490              	@ src/scenes/scene_game.c:283:   pd->sprite->setVisible(assets->speech_bubble_sprite, false);
 283:src/scenes/scene_game.c **** }
 1491              		.loc 1 283 3 view .LVU363
 1492 0112 706A     		ldr	r0, [r6, #36]	@, assets_8(D)->speech_bubble_sprite
 1493 0114 D3F88430 		ldr	r3, [r3, #132]	@ _44->setVisible, _44->setVisible
 1494 0118 9847     		blx	r3		@ _44->setVisible
 1495              	.LVL79:
 283:src/scenes/scene_game.c **** }
 1496              		.loc 1 283 3 view .LVU364
 1497              	.LBE225:
 1498              	.LBE224:
 347:src/scenes/scene_game.c ****                    gsc->audience[gsc->audience_index].throw_location,
 1499              		.loc 1 347 7 is_stmt 1 view .LVU365
 1500              	@ src/scenes/scene_game.c:348:                    gsc->audience[gsc->audience_index].throw_location
 348:src/scenes/scene_game.c ****                    gsc->player_location_bookmark, 20);
 1501              		.loc 1 348 37 is_stmt 0 view .LVU366
 1502 011a D4F8DC10 		ldr	r1, [r4, #220]	@ _47, MEM[(struct GameSceneContext *)prephitmp_267].audience_index
 1503 011e 2F68     		ldr	r7, [r5]	@ _48, MEM[(struct PlaydateAPI * *)game_4(D)]
 1504 0120 01EB8101 		add	r1, r1, r1, lsl #2	@ tmp453, _47, _47,
 1505 0124 04EB8101 		add	r1, r4, r1, lsl #2	@ tmp455, gsc, tmp453,
 1506 0128 D4E94A23 		ldrd	r2, r3, [r4, #296]	@ end$x, end$y, gsc,
 1507 012c D1E91B01 		ldrd	r0, r1, [r1, #108]	@ start$x, start$y, tmp455,
 1508              	.LBB226:
 1509              	.LBB227:
 1510              	@ src/scenes/scene_game.c:365:       MLIBFPOINT_CREATE((end.x - start.x) / steps, (end.y - start.y)
 365:src/scenes/scene_game.c ****   pd->sprite->moveTo(assets->tomato_sprite, start.x, start.y);
 1511              		.loc 1 365 43 view .LVU367
 1512 0130 B34C     		ldr	r4, .L63	@ tmp468,
 1513              	@ src/scenes/scene_game.c:363:   gsc->tomato.location = MLIBFPOINT_CREATE(start.x, start.y);
 363:src/scenes/scene_game.c ****   gsc->tomato.velocity =
 1514              		.loc 1 363 26 view .LVU368
 1515 0132 07EE900A 		vmov	s15, r0	@ int	@ start$x, start$x
 1516              	@ src/scenes/scene_game.c:365:       MLIBFPOINT_CREATE((end.x - start.x) / steps, (end.y - start.y)
 365:src/scenes/scene_game.c ****   pd->sprite->moveTo(assets->tomato_sprite, start.x, start.y);
ARM GAS  /tmp/ccIwehAI.s 			page 43


 1517              		.loc 1 365 32 view .LVU369
 1518 0136 121A     		subs	r2, r2, r0	@ tmp465, end$x, start$x
 1519              	@ src/scenes/scene_game.c:365:       MLIBFPOINT_CREATE((end.x - start.x) / steps, (end.y - start.y)
 365:src/scenes/scene_game.c ****   pd->sprite->moveTo(assets->tomato_sprite, start.x, start.y);
 1520              		.loc 1 365 59 view .LVU370
 1521 0138 5B1A     		subs	r3, r3, r1	@ tmp472, end$y, start$y
 1522              	@ src/scenes/scene_game.c:363:   gsc->tomato.location = MLIBFPOINT_CREATE(start.x, start.y);
 363:src/scenes/scene_game.c ****   gsc->tomato.velocity =
 1523              		.loc 1 363 26 view .LVU371
 1524 013a B8EEE70A 		vcvt.f32.s32	s0, s15	@ _177, start$x
 1525 013e 07EE901A 		vmov	s15, r1	@ int	@ start$y, start$y
 1526              	@ src/scenes/scene_game.c:365:       MLIBFPOINT_CREATE((end.x - start.x) / steps, (end.y - start.y)
 365:src/scenes/scene_game.c ****   pd->sprite->moveTo(assets->tomato_sprite, start.x, start.y);
 1527              		.loc 1 365 43 view .LVU372
 1528 0142 84FB0201 		smull	r0, r1, r4, r2	@ tmp531, tmp467, tmp468, tmp465
 1529 0146 D217     		asrs	r2, r2, #31	@ tmp470, tmp465,
 1530              	@ src/scenes/scene_game.c:363:   gsc->tomato.location = MLIBFPOINT_CREATE(start.x, start.y);
 363:src/scenes/scene_game.c ****   gsc->tomato.velocity =
 1531              		.loc 1 363 26 view .LVU373
 1532 0148 F8EEE70A 		vcvt.f32.s32	s1, s15	@ _178, start$y
 1533              	@ src/scenes/scene_game.c:366:   pd->sprite->moveTo(assets->tomato_sprite, start.x, start.y);
 366:src/scenes/scene_game.c ****   pd->sprite->setVisible(assets->tomato_sprite, true);
 1534              		.loc 1 366 3 view .LVU374
 1535 014c F069     		ldr	r0, [r6, #28]	@, assets_8(D)->tomato_sprite
 1536              	@ src/scenes/scene_game.c:365:       MLIBFPOINT_CREATE((end.x - start.x) / steps, (end.y - start.y)
 365:src/scenes/scene_game.c ****   pd->sprite->moveTo(assets->tomato_sprite, start.x, start.y);
 1537              		.loc 1 365 43 view .LVU375
 1538 014e C2EBE102 		rsb	r2, r2, r1, asr #3	@ tmp466, tmp470, tmp467,
 1539              	@ src/scenes/scene_game.c:365:       MLIBFPOINT_CREATE((end.x - start.x) / steps, (end.y - start.y)
 365:src/scenes/scene_game.c ****   pd->sprite->moveTo(assets->tomato_sprite, start.x, start.y);
 1540              		.loc 1 365 7 view .LVU376
 1541 0152 07EE902A 		vmov	s15, r2	@ int	@ tmp466, tmp466
 1542              	@ src/scenes/scene_game.c:365:       MLIBFPOINT_CREATE((end.x - start.x) / steps, (end.y - start.y)
 365:src/scenes/scene_game.c ****   pd->sprite->moveTo(assets->tomato_sprite, start.x, start.y);
 1543              		.loc 1 365 70 view .LVU377
 1544 0156 84FB0324 		smull	r2, r4, r4, r3	@ tmp532, tmp474, tmp468, tmp472
 1545 015a DB17     		asrs	r3, r3, #31	@ tmp477, tmp472,
 1546              	@ src/scenes/scene_game.c:365:       MLIBFPOINT_CREATE((end.x - start.x) / steps, (end.y - start.y)
 365:src/scenes/scene_game.c ****   pd->sprite->moveTo(assets->tomato_sprite, start.x, start.y);
 1547              		.loc 1 365 7 view .LVU378
 1548 015c B8EEE77A 		vcvt.f32.s32	s14, s15	@ tmp471, tmp466
 1549              	@ src/scenes/scene_game.c:365:       MLIBFPOINT_CREATE((end.x - start.x) / steps, (end.y - start.y)
 365:src/scenes/scene_game.c ****   pd->sprite->moveTo(assets->tomato_sprite, start.x, start.y);
 1550              		.loc 1 365 70 view .LVU379
 1551 0160 C3EBE403 		rsb	r3, r3, r4, asr #3	@ tmp473, tmp477, tmp474,
 1552 0164 2C6B     		ldr	r4, [r5, #48]	@ _49, MEM[(void * *)game_4(D) + 48B]
 1553              	.LVL80:
 365:src/scenes/scene_game.c ****   pd->sprite->moveTo(assets->tomato_sprite, start.x, start.y);
 1554              		.loc 1 365 70 view .LVU380
 1555              	.LBE227:
 1556              	.LBI226:
 357:src/scenes/scene_game.c ****                          MLIBPoint end, int steps) {
 1557              		.loc 1 357 13 is_stmt 1 view .LVU381
 1558              	.LBB228:
 359:src/scenes/scene_game.c ****   GameSceneContext *gsc = (GameSceneContext *)game->game_userdata;
 1559              		.loc 1 359 3 view .LVU382
 360:src/scenes/scene_game.c **** 
ARM GAS  /tmp/ccIwehAI.s 			page 44


 1560              		.loc 1 360 3 view .LVU383
 362:src/scenes/scene_game.c ****   gsc->tomato.location = MLIBFPOINT_CREATE(start.x, start.y);
 1561              		.loc 1 362 3 view .LVU384
 1562              	@ src/scenes/scene_game.c:365:       MLIBFPOINT_CREATE((end.x - start.x) / steps, (end.y - start.y)
 365:src/scenes/scene_game.c ****   pd->sprite->moveTo(assets->tomato_sprite, start.x, start.y);
 1563              		.loc 1 365 7 is_stmt 0 view .LVU385
 1564 0166 07EE903A 		vmov	s15, r3	@ int	@ tmp473, tmp473
 1565              	@ src/scenes/scene_game.c:366:   pd->sprite->moveTo(assets->tomato_sprite, start.x, start.y);
 366:src/scenes/scene_game.c ****   pd->sprite->setVisible(assets->tomato_sprite, true);
 1566              		.loc 1 366 13 view .LVU386
 1567 016a FB68     		ldr	r3, [r7, #12]	@ _48->sprite, _48->sprite
 1568              	@ src/scenes/scene_game.c:363:   gsc->tomato.location = MLIBFPOINT_CREATE(start.x, start.y);
 363:src/scenes/scene_game.c ****   gsc->tomato.velocity =
 1569              		.loc 1 363 26 view .LVU387
 1570 016c 84ED320A 		vstr.32	s0, [r4, #200]	@ _177, MEM <float> [(struct GameSceneContext *)_49 + 200B]
 1571              	@ src/scenes/scene_game.c:365:       MLIBFPOINT_CREATE((end.x - start.x) / steps, (end.y - start.y)
 365:src/scenes/scene_game.c ****   pd->sprite->moveTo(assets->tomato_sprite, start.x, start.y);
 1572              		.loc 1 365 7 view .LVU388
 1573 0170 F8EEE77A 		vcvt.f32.s32	s15, s15	@ tmp478, tmp473
 1574              	@ src/scenes/scene_game.c:366:   pd->sprite->moveTo(assets->tomato_sprite, start.x, start.y);
 366:src/scenes/scene_game.c ****   pd->sprite->setVisible(assets->tomato_sprite, true);
 1575              		.loc 1 366 3 view .LVU389
 1576 0174 9B6B     		ldr	r3, [r3, #56]	@ _187->moveTo, _187->moveTo
 1577              	@ src/scenes/scene_game.c:363:   gsc->tomato.location = MLIBFPOINT_CREATE(start.x, start.y);
 363:src/scenes/scene_game.c ****   gsc->tomato.velocity =
 1578              		.loc 1 363 26 view .LVU390
 1579 0176 C4ED330A 		vstr.32	s1, [r4, #204]	@ _178, MEM <float> [(struct GameSceneContext *)_49 + 204B]
 1580              	@ src/scenes/scene_game.c:365:       MLIBFPOINT_CREATE((end.x - start.x) / steps, (end.y - start.y)
 365:src/scenes/scene_game.c ****   pd->sprite->moveTo(assets->tomato_sprite, start.x, start.y);
 1581              		.loc 1 365 7 view .LVU391
 1582 017a 84ED347A 		vstr.32	s14, [r4, #208]	@ tmp471, MEM <float> [(struct GameSceneContext *)_49 + 208B]
 1583 017e C4ED357A 		vstr.32	s15, [r4, #212]	@ tmp478, MEM <float> [(struct GameSceneContext *)_49 + 212B]
 1584              	@ src/scenes/scene_game.c:362:   gsc->tomato.active = true;
 362:src/scenes/scene_game.c ****   gsc->tomato.location = MLIBFPOINT_CREATE(start.x, start.y);
 1585              		.loc 1 362 22 view .LVU392
 1586 0182 84F8D880 		strb	r8, [r4, #216]	@ _20, MEM[(struct GameSceneContext *)_49].tomato.active
 363:src/scenes/scene_game.c ****   gsc->tomato.velocity =
 1587              		.loc 1 363 3 is_stmt 1 view .LVU393
 1588              	.LVL81:
 363:src/scenes/scene_game.c ****   gsc->tomato.velocity =
 1589              		.loc 1 363 3 is_stmt 0 view .LVU394
 1590              	.LBE228:
 1591              	.LBE226:
 1592              	.LBE258:
 1593              	.LBE263:
  46:./src/scenes/../pdantler/mooselib.h **** }
 1594              		.loc 2 46 3 is_stmt 1 view .LVU395
 1595              	.LBB264:
 1596              	.LBB259:
 1597              	.LBB231:
 1598              	.LBB229:
 364:src/scenes/scene_game.c ****       MLIBFPOINT_CREATE((end.x - start.x) / steps, (end.y - start.y) / steps);
 1599              		.loc 1 364 3 view .LVU396
 364:src/scenes/scene_game.c ****       MLIBFPOINT_CREATE((end.x - start.x) / steps, (end.y - start.y) / steps);
 1600              		.loc 1 364 3 is_stmt 0 view .LVU397
 1601              	.LBE229:
 1602              	.LBE231:
ARM GAS  /tmp/ccIwehAI.s 			page 45


 1603              	.LBE259:
 1604              	.LBE264:
  46:./src/scenes/../pdantler/mooselib.h **** }
 1605              		.loc 2 46 3 is_stmt 1 view .LVU398
 1606              	.LBB265:
 1607              	.LBB260:
 1608              	.LBB232:
 1609              	.LBB230:
 366:src/scenes/scene_game.c ****   pd->sprite->setVisible(assets->tomato_sprite, true);
 1610              		.loc 1 366 3 view .LVU399
 1611 0186 9847     		blx	r3		@ _187->moveTo
 1612              	.LVL82:
 367:src/scenes/scene_game.c **** 
 1613              		.loc 1 367 3 view .LVU400
 1614              	@ src/scenes/scene_game.c:367:   pd->sprite->setVisible(assets->tomato_sprite, true);
 367:src/scenes/scene_game.c **** 
 1615              		.loc 1 367 13 is_stmt 0 view .LVU401
 1616 0188 FB68     		ldr	r3, [r7, #12]	@ _48->sprite, _48->sprite
 1617              	@ src/scenes/scene_game.c:367:   pd->sprite->setVisible(assets->tomato_sprite, true);
 367:src/scenes/scene_game.c **** 
 1618              		.loc 1 367 3 view .LVU402
 1619 018a 4146     		mov	r1, r8	@, _20
 1620 018c F069     		ldr	r0, [r6, #28]	@, assets_8(D)->tomato_sprite
 1621 018e D3F88430 		ldr	r3, [r3, #132]	@ _190->setVisible, _190->setVisible
 1622 0192 9847     		blx	r3		@ _190->setVisible
 1623              	.LVL83:
 369:src/scenes/scene_game.c **** }
 1624              		.loc 1 369 3 is_stmt 1 view .LVU403
 1625              	@ src/scenes/scene_game.c:369:   gsc->state = STATE_THROWING;
 369:src/scenes/scene_game.c **** }
 1626              		.loc 1 369 14 is_stmt 0 view .LVU404
 1627 0194 0223     		movs	r3, #2	@ tmp485,
 1628 0196 84F83031 		strb	r3, [r4, #304]	@ tmp485, MEM[(struct GameSceneContext *)_49].state
 1629              	.LVL84:
 369:src/scenes/scene_game.c **** }
 1630              		.loc 1 369 14 view .LVU405
 1631              	.LBE230:
 1632              	.LBE232:
 1633              	.LBE260:
 1634              	.LBE265:
 131:src/scenes/scene_game.c **** }
 1635              		.loc 1 131 3 is_stmt 1 view .LVU406
 1636              	@ src/scenes/scene_game.c:131:   return NO_SCENE;
 131:src/scenes/scene_game.c **** }
 1637              		.loc 1 131 10 is_stmt 0 view .LVU407
 1638 019a 3FE7     		b	.L55		@
 1639              	.LVL85:
 1640              	.L57:
 123:src/scenes/scene_game.c ****     }
 1641              		.loc 1 123 7 is_stmt 1 view .LVU408
 1642              	.LBB266:
 1643              	.LBI266:
 386:src/scenes/scene_game.c ****   PlaydateAPI *pd = game->pd;
 1644              		.loc 1 386 13 view .LVU409
 1645              	.LBB267:
 387:src/scenes/scene_game.c ****   GameSceneContext *gsc = (GameSceneContext *)game->game_userdata;
 1646              		.loc 1 387 3 view .LVU410
ARM GAS  /tmp/ccIwehAI.s 			page 46


 388:src/scenes/scene_game.c **** 
 1647              		.loc 1 388 3 view .LVU411
 390:src/scenes/scene_game.c **** 
 1648              		.loc 1 390 3 view .LVU412
 1649 019c FFF7FEFF 		bl	new_joke		@
 1650              	.LVL86:
 392:src/scenes/scene_game.c **** }
 1651              		.loc 1 392 3 view .LVU413
 1652              	@ src/scenes/scene_game.c:392:   pd->sprite->setImageFlip(assets->bird_sprite, kBitmapUnflipped);
 392:src/scenes/scene_game.c **** }
 1653              		.loc 1 392 13 is_stmt 0 view .LVU414
 1654 01a0 FB68     		ldr	r3, [r7, #12]	@ pd_5->sprite, pd_5->sprite
 1655              	@ src/scenes/scene_game.c:392:   pd->sprite->setImageFlip(assets->bird_sprite, kBitmapUnflipped);
 392:src/scenes/scene_game.c **** }
 1656              		.loc 1 392 3 view .LVU415
 1657 01a2 029A     		ldr	r2, [sp, #8]	@ assets, %sfp
 1658 01a4 0021     		movs	r1, #0	@,
 1659 01a6 9B6D     		ldr	r3, [r3, #88]	@ _15->setImageFlip, _15->setImageFlip
 1660 01a8 D068     		ldr	r0, [r2, #12]	@, assets_8(D)->bird_sprite
 1661 01aa 9847     		blx	r3		@ _15->setImageFlip
 1662              	.LVL87:
 1663              	.LBE267:
 1664              	.LBE266:
 1665              	@ src/scenes/scene_game.c:132: }
 132:src/scenes/scene_game.c **** 
 1666              		.loc 1 132 1 view .LVU416
 1667 01ac 0020     		movs	r0, #0	@,
 1668 01ae 0BB0     		add	sp, sp, #44	@,,
 1669              	.LCFI14:
 1670              		.cfi_remember_state
 1671              		.cfi_def_cfa_offset 36
 1672              		@ sp needed	@
 1673 01b0 BDE8F08F 		pop	{r4, r5, r6, r7, r8, r9, r10, fp, pc}	@
 1674              	.LVL88:
 1675              	.L27:
 1676              	.LCFI15:
 1677              		.cfi_restore_state
 1678              	.LBB268:
 1679              	.LBB261:
 327:src/scenes/scene_game.c ****       gsc->audience_index = rand_int_range(0, AUDIENCE_MEMBER_COUNT);
 1680              		.loc 1 327 5 is_stmt 1 view .LVU417
 1681              	@ src/scenes/scene_game.c:327:     if (pd->system->getElapsedTime() > gsc->change_state_time) {
 327:src/scenes/scene_game.c ****       gsc->audience_index = rand_int_range(0, AUDIENCE_MEMBER_COUNT);
 1682              		.loc 1 327 19 is_stmt 0 view .LVU418
 1683 01b4 3B68     		ldr	r3, [r7]	@ prephitmp_270->system, prephitmp_270->system
 1684              	@ src/scenes/scene_game.c:327:     if (pd->system->getElapsedTime() > gsc->change_state_time) {
 327:src/scenes/scene_game.c ****       gsc->audience_index = rand_int_range(0, AUDIENCE_MEMBER_COUNT);
 1685              		.loc 1 327 9 view .LVU419
 1686 01b6 DB6F     		ldr	r3, [r3, #124]	@ _21->getElapsedTime, _21->getElapsedTime
 1687 01b8 9847     		blx	r3		@ _21->getElapsedTime
 1688              	.LVL89:
 1689              	@ src/scenes/scene_game.c:327:     if (pd->system->getElapsedTime() > gsc->change_state_time) {
 327:src/scenes/scene_game.c ****       gsc->audience_index = rand_int_range(0, AUDIENCE_MEMBER_COUNT);
 1690              		.loc 1 327 8 view .LVU420
 1691 01ba D4ED497A 		vldr.32	s15, [r4, #292]	@ MEM[(struct GameSceneContext *)prephitmp_267].change_state_time, MEM[(st
 1692 01be B4EEE70A 		vcmpe.f32	s0, s15	@ tmp519, MEM[(struct GameSceneContext *)prephitmp_267].change_state_time
 1693 01c2 F1EE10FA 		vmrs	APSR_nzcv, FPSCR
ARM GAS  /tmp/ccIwehAI.s 			page 47


 1694 01c6 7FF729AF 		ble	.L55		@,
 328:src/scenes/scene_game.c ****       gsc->heckle_index = rand_int_range(0, HECKLE_COUNT);
 1695              		.loc 1 328 7 is_stmt 1 view .LVU421
 1696              	.LVL90:
 1697              	.LBB233:
 1698              	.LBI233:
  93:src/scenes/scene_game.c ****   return (rand() % (max - min)) + min;
 1699              		.loc 1 93 12 view .LVU422
 1700              	.LBB234:
  94:src/scenes/scene_game.c **** }
 1701              		.loc 1 94 3 view .LVU423
 1702              	@ src/scenes/scene_game.c:94:   return (rand() % (max - min)) + min;
  94:src/scenes/scene_game.c **** }
 1703              		.loc 1 94 11 is_stmt 0 view .LVU424
 1704 01ca FFF7FEFF 		bl	rand		@
 1705              	.LVL91:
 1706              	@ src/scenes/scene_game.c:94:   return (rand() % (max - min)) + min;
  94:src/scenes/scene_game.c **** }
 1707              		.loc 1 94 18 view .LVU425
 1708 01ce 8C4A     		ldr	r2, .L63	@ tmp345,
 1709 01d0 82FB0032 		smull	r3, r2, r2, r0	@ tmp529, tmp344, tmp345, _25
 1710 01d4 C317     		asrs	r3, r0, #31	@ tmp347, _25,
 1711 01d6 C3EB6203 		rsb	r3, r3, r2, asr #1	@ tmp348, tmp347, tmp344,
 1712 01da 03EB8303 		add	r3, r3, r3, lsl #2	@ tmp351, tmp348, tmp348,
 1713 01de C01A     		subs	r0, r0, r3	@ tmp352, _25, tmp351
 1714              	.LBE234:
 1715              	.LBE233:
 1716              	@ src/scenes/scene_game.c:328:       gsc->audience_index = rand_int_range(0, AUDIENCE_MEMBER_COUNT)
 328:src/scenes/scene_game.c ****       gsc->heckle_index = rand_int_range(0, HECKLE_COUNT);
 1717              		.loc 1 328 27 view .LVU426
 1718 01e0 C4F8DC00 		str	r0, [r4, #220]	@ tmp352, MEM[(struct GameSceneContext *)prephitmp_267].audience_index
 329:src/scenes/scene_game.c **** 
 1719              		.loc 1 329 7 is_stmt 1 view .LVU427
 1720              	.LVL92:
 1721              	.LBB235:
 1722              	.LBI235:
  93:src/scenes/scene_game.c ****   return (rand() % (max - min)) + min;
 1723              		.loc 1 93 12 view .LVU428
 1724              	.LBB236:
  94:src/scenes/scene_game.c **** }
 1725              		.loc 1 94 3 view .LVU429
 1726              	@ src/scenes/scene_game.c:94:   return (rand() % (max - min)) + min;
  94:src/scenes/scene_game.c **** }
 1727              		.loc 1 94 11 is_stmt 0 view .LVU430
 1728 01e4 FFF7FEFF 		bl	rand		@
 1729              	.LVL93:
 1730              	@ src/scenes/scene_game.c:94:   return (rand() % (max - min)) + min;
  94:src/scenes/scene_game.c **** }
 1731              		.loc 1 94 18 view .LVU431
 1732 01e8 864B     		ldr	r3, .L63+4	@ tmp354,
 1733              	.LBE236:
 1734              	.LBE235:
 1735              	.LBB239:
 1736              	.LBB240:
 1737              	@ src/scenes/scene_game.c:250:   GameSceneContext *gsc = (GameSceneContext *)game->game_userdata;
 250:src/scenes/scene_game.c ****   snprintf(gsc->speech_bubble.line1, SPEECH_BUBBLE_LEN, text);
 1738              		.loc 1 250 21 view .LVU432
ARM GAS  /tmp/ccIwehAI.s 			page 48


 1739 01ea D5F830B0 		ldr	fp, [r5, #48]	@ gsc, game_4(D)->game_userdata
 1740              	@ src/scenes/scene_game.c:251:   snprintf(gsc->speech_bubble.line1, SPEECH_BUBBLE_LEN, text);
 251:src/scenes/scene_game.c ****   pd->graphics->pushContext(assets->speech_bubble_image);
 1741              		.loc 1 251 3 view .LVU433
 1742 01ee 3221     		movs	r1, #50	@,
 1743              	.LBE240:
 1744              	.LBE239:
 1745              	.LBB246:
 1746              	.LBB237:
 1747              	@ src/scenes/scene_game.c:94:   return (rand() % (max - min)) + min;
  94:src/scenes/scene_game.c **** }
 1748              		.loc 1 94 18 view .LVU434
 1749 01f0 83FB0023 		smull	r2, r3, r3, r0	@ tmp530, tmp353, tmp354, _27
 1750              	.LBE237:
 1751              	.LBE246:
 1752              	.LBB247:
 1753              	.LBB241:
 1754              	@ src/scenes/scene_game.c:249:   PlaydateAPI *pd = game->pd;
 249:src/scenes/scene_game.c ****   GameSceneContext *gsc = (GameSceneContext *)game->game_userdata;
 1755              		.loc 1 249 16 view .LVU435
 1756 01f4 D5F80090 		ldr	r9, [r5]	@ pd, game_4(D)->pd
 1757              	@ src/scenes/scene_game.c:251:   snprintf(gsc->speech_bubble.line1, SPEECH_BUBBLE_LEN, text);
 251:src/scenes/scene_game.c ****   pd->graphics->pushContext(assets->speech_bubble_image);
 1758              		.loc 1 251 30 view .LVU436
 1759 01f8 0BF1240A 		add	r10, fp, #36	@ _124, gsc,
 1760              	.LBE241:
 1761              	.LBE247:
 1762              	.LBB248:
 1763              	.LBB238:
 1764              	@ src/scenes/scene_game.c:94:   return (rand() % (max - min)) + min;
  94:src/scenes/scene_game.c **** }
 1765              		.loc 1 94 18 view .LVU437
 1766 01fc 1A18     		adds	r2, r3, r0	@ tmp355, tmp353, _27
 1767 01fe C317     		asrs	r3, r0, #31	@ tmp357, _27,
 1768 0200 C3EBA203 		rsb	r3, r3, r2, asr #2	@ _28, tmp357, tmp355,
 1769 0204 C3EBC303 		rsb	r3, r3, r3, lsl #3	@ tmp360, _28, _28,
 1770 0208 C31A     		subs	r3, r0, r3	@ _28, _27, tmp360
 1771              	.LVL94:
  94:src/scenes/scene_game.c **** }
 1772              		.loc 1 94 18 view .LVU438
 1773              	.LBE238:
 1774              	.LBE248:
 1775              	@ src/scenes/scene_game.c:329:       gsc->heckle_index = rand_int_range(0, HECKLE_COUNT);
 329:src/scenes/scene_game.c **** 
 1776              		.loc 1 329 25 view .LVU439
 1777 020a C4F81C31 		str	r3, [r4, #284]	@ _28, MEM[(struct GameSceneContext *)prephitmp_267].heckle_index
 331:src/scenes/scene_game.c ****                   gsc->audience[gsc->audience_index].speech_location,
 1778              		.loc 1 331 7 is_stmt 1 view .LVU440
 1779              	.LVL95:
 331:src/scenes/scene_game.c ****                   gsc->audience[gsc->audience_index].speech_location,
 1780              		.loc 1 331 7 is_stmt 0 view .LVU441
 1781 020e 3833     		adds	r3, r3, #56	@ tmp379, _28,
 1782              	.LBB249:
 1783              	.LBB242:
 1784              	@ src/scenes/scene_game.c:251:   snprintf(gsc->speech_bubble.line1, SPEECH_BUBBLE_LEN, text);
 251:src/scenes/scene_game.c ****   pd->graphics->pushContext(assets->speech_bubble_image);
 1785              		.loc 1 251 3 view .LVU442
ARM GAS  /tmp/ccIwehAI.s 			page 49


 1786 0210 54F82320 		ldr	r2, [r4, r3, lsl #2]	@, MEM[(struct GameSceneContext *)prephitmp_267].heckles[_28]
 1787              	.LBE242:
 1788              	.LBE249:
 1789              	@ src/scenes/scene_game.c:332:                   gsc->audience[gsc->audience_index].speech_location
 332:src/scenes/scene_game.c ****                   gsc->heckles[gsc->heckle_index],
 1790              		.loc 1 332 36 view .LVU443
 1791 0214 D4F8DC30 		ldr	r3, [r4, #220]	@ _29, MEM[(struct GameSceneContext *)prephitmp_267].audience_index
 1792              	@ src/scenes/scene_game.c:334:                   !gsc->audience[gsc->audience_index].right);
 334:src/scenes/scene_game.c **** 
 1793              		.loc 1 334 54 view .LVU444
 1794 0218 03EB8303 		add	r3, r3, r3, lsl #2	@ tmp363, _29, _29,
 1795 021c 04EB8303 		add	r3, r4, r3, lsl #2	@ tmp365, gsc, tmp363,
 1796 0220 93F87400 		ldrb	r0, [r3, #116]	@ zero_extendqisi2	@ _31, MEM[(struct GameSceneContext *)prephitmp_267].audien
 1797 0224 0390     		str	r0, [sp, #12]	@ _31, %sfp
 1798 0226 586E     		ldr	r0, [r3, #100]	@ p$x, MEM[(struct GameSceneContext *)prephitmp_267].audience[_29].speech_locat
 1799 0228 9B6E     		ldr	r3, [r3, #104]	@ p$y, MEM[(struct GameSceneContext *)prephitmp_267].audience[_29].speech_locat
 1800 022a 0590     		str	r0, [sp, #20]	@ p$x, %sfp
 1801              	.LVL96:
 1802              	.LBB250:
 1803              	.LBB243:
 1804              	@ src/scenes/scene_game.c:251:   snprintf(gsc->speech_bubble.line1, SPEECH_BUBBLE_LEN, text);
 251:src/scenes/scene_game.c ****   pd->graphics->pushContext(assets->speech_bubble_image);
 1805              		.loc 1 251 3 view .LVU445
 1806 022c 5046     		mov	r0, r10	@, _124
 1807              	.LVL97:
 251:src/scenes/scene_game.c ****   pd->graphics->pushContext(assets->speech_bubble_image);
 1808              		.loc 1 251 3 view .LVU446
 1809 022e 0493     		str	r3, [sp, #16]	@ p$y, %sfp
 1810              	.LVL98:
 251:src/scenes/scene_game.c ****   pd->graphics->pushContext(assets->speech_bubble_image);
 1811              		.loc 1 251 3 view .LVU447
 1812              	.LBE243:
 1813              	.LBI239:
 247:src/scenes/scene_game.c ****                         char *text, bool flipped) {
 1814              		.loc 1 247 13 is_stmt 1 view .LVU448
 1815              	.LBB244:
 249:src/scenes/scene_game.c ****   GameSceneContext *gsc = (GameSceneContext *)game->game_userdata;
 1816              		.loc 1 249 3 view .LVU449
 250:src/scenes/scene_game.c ****   snprintf(gsc->speech_bubble.line1, SPEECH_BUBBLE_LEN, text);
 1817              		.loc 1 250 3 view .LVU450
 251:src/scenes/scene_game.c ****   pd->graphics->pushContext(assets->speech_bubble_image);
 1818              		.loc 1 251 3 view .LVU451
 1819 0230 FFF7FEFF 		bl	snprintf_		@
 1820              	.LVL99:
 252:src/scenes/scene_game.c ****   pd->graphics->fillRect(0, 0, gsc->speech_bubble.size.width,
 1821              		.loc 1 252 3 view .LVU452
 1822              	@ src/scenes/scene_game.c:252:   pd->graphics->pushContext(assets->speech_bubble_image);
 252:src/scenes/scene_game.c ****   pd->graphics->fillRect(0, 0, gsc->speech_bubble.size.width,
 1823              		.loc 1 252 15 is_stmt 0 view .LVU453
 1824 0234 D9F80830 		ldr	r3, [r9, #8]	@ pd_122->graphics, pd_122->graphics
 1825              	@ src/scenes/scene_game.c:252:   pd->graphics->pushContext(assets->speech_bubble_image);
 252:src/scenes/scene_game.c ****   pd->graphics->fillRect(0, 0, gsc->speech_bubble.size.width,
 1826              		.loc 1 252 3 view .LVU454
 1827 0238 0298     		ldr	r0, [sp, #8]	@ assets, %sfp
 1828 023a DB6A     		ldr	r3, [r3, #44]	@ _125->pushContext, _125->pushContext
 1829 023c 006A     		ldr	r0, [r0, #32]	@, assets_8(D)->speech_bubble_image
 1830 023e 9847     		blx	r3		@ _125->pushContext
ARM GAS  /tmp/ccIwehAI.s 			page 50


 1831              	.LVL100:
 253:src/scenes/scene_game.c ****                          gsc->speech_bubble.size.height, kColorWhite);
 1832              		.loc 1 253 3 is_stmt 1 view .LVU455
 1833              	@ src/scenes/scene_game.c:253:   pd->graphics->fillRect(0, 0, gsc->speech_bubble.size.width,
 253:src/scenes/scene_game.c ****                          gsc->speech_bubble.size.height, kColorWhite);
 1834              		.loc 1 253 15 is_stmt 0 view .LVU456
 1835 0240 D9F80810 		ldr	r1, [r9, #8]	@ pd_122->graphics, pd_122->graphics
 1836              	@ src/scenes/scene_game.c:253:   pd->graphics->fillRect(0, 0, gsc->speech_bubble.size.width,
 253:src/scenes/scene_game.c ****                          gsc->speech_bubble.size.height, kColorWhite);
 1837              		.loc 1 253 3 view .LVU457
 1838 0244 0120     		movs	r0, #1	@ tmp544,
 1839 0246 DBE91623 		ldrd	r2, r3, [fp, #88]	@ gsc_123->speech_bubble.size.width, gsc_123->speech_bubble.size.height, gs
 1840 024a 0090     		str	r0, [sp]	@ tmp544,
 1841 024c 4046     		mov	r0, r8	@, _20
 1842 024e 896C     		ldr	r1, [r1, #72]	@ _128->fillRect, _128->fillRect
 1843 0250 0E46     		mov	r6, r1	@ _128->fillRect, _128->fillRect
 1844 0252 4146     		mov	r1, r8	@, _20
 1845 0254 B047     		blx	r6		@ _128->fillRect
 1846              	.LVL101:
 256:src/scenes/scene_game.c ****     pd->graphics->drawBitmap(assets->speech_bubble_base_image, 0, 0,
 1847              		.loc 1 256 3 is_stmt 1 view .LVU458
 1848              	@ src/scenes/scene_game.c:256:   if (flipped) {
 256:src/scenes/scene_game.c ****     pd->graphics->drawBitmap(assets->speech_bubble_base_image, 0, 0,
 1849              		.loc 1 256 6 is_stmt 0 view .LVU459
 1850 0256 039A     		ldr	r2, [sp, #12]	@ _31, %sfp
 1851 0258 002A     		cmp	r2, #0	@ _31
 1852 025a 00F0C680 		beq	.L62	@
 260:src/scenes/scene_game.c ****                              kBitmapFlippedX);
 1853              		.loc 1 260 5 is_stmt 1 view .LVU460
 1854              	@ src/scenes/scene_game.c:260:     pd->graphics->drawBitmap(assets->speech_bubble_base_image, 0, 0,
 260:src/scenes/scene_game.c ****                              kBitmapFlippedX);
 1855              		.loc 1 260 17 is_stmt 0 view .LVU461
 1856 025e D9F80820 		ldr	r2, [r9, #8]	@ pd_122->graphics, pd_122->graphics
 1857              	@ src/scenes/scene_game.c:260:     pd->graphics->drawBitmap(assets->speech_bubble_base_image, 0, 0,
 260:src/scenes/scene_game.c ****                              kBitmapFlippedX);
 1858              		.loc 1 260 5 view .LVU462
 1859 0262 0123     		movs	r3, #1	@,
 1860 0264 0298     		ldr	r0, [sp, #8]	@ assets, %sfp
 1861 0266 4146     		mov	r1, r8	@, tmp2
 1862 0268 526B     		ldr	r2, [r2, #52]	@ _135->drawBitmap, _135->drawBitmap
 1863 026a 006B     		ldr	r0, [r0, #48]	@, assets_8(D)->speech_bubble_base_image
 1864 026c 1646     		mov	r6, r2	@ _135->drawBitmap, _135->drawBitmap
 1865 026e 4246     		mov	r2, r8	@, _20
 1866 0270 B047     		blx	r6		@ _135->drawBitmap
 1867              	.LVL102:
 1868              	.L32:
 264:src/scenes/scene_game.c ****   int tracking = pd->graphics->getTextTracking();
 1869              		.loc 1 264 3 is_stmt 1 view .LVU463
 1870              	@ src/scenes/scene_game.c:264:   pd->graphics->setFont(game->main_font);
 264:src/scenes/scene_game.c ****   int tracking = pd->graphics->getTextTracking();
 1871              		.loc 1 264 15 is_stmt 0 view .LVU464
 1872 0272 D9F80830 		ldr	r3, [r9, #8]	@ pd_122->graphics, pd_122->graphics
 1873              	@ src/scenes/scene_game.c:264:   pd->graphics->setFont(game->main_font);
 264:src/scenes/scene_game.c ****   int tracking = pd->graphics->getTextTracking();
 1874              		.loc 1 264 3 view .LVU465
 1875 0276 686B     		ldr	r0, [r5, #52]	@, game_4(D)->main_font
 1876 0278 5B6A     		ldr	r3, [r3, #36]	@ _138->setFont, _138->setFont
ARM GAS  /tmp/ccIwehAI.s 			page 51


 1877 027a 9847     		blx	r3		@ _138->setFont
 1878              	.LVL103:
 265:src/scenes/scene_game.c ****   int width = pd->graphics->getTextWidth(
 1879              		.loc 1 265 3 is_stmt 1 view .LVU466
 1880              	@ src/scenes/scene_game.c:265:   int tracking = pd->graphics->getTextTracking();
 265:src/scenes/scene_game.c ****   int width = pd->graphics->getTextWidth(
 1881              		.loc 1 265 30 is_stmt 0 view .LVU467
 1882 027c D9F80830 		ldr	r3, [r9, #8]	@ pd_122->graphics, pd_122->graphics
 1883              	@ src/scenes/scene_game.c:265:   int tracking = pd->graphics->getTextTracking();
 265:src/scenes/scene_game.c ****   int width = pd->graphics->getTextWidth(
 1884              		.loc 1 265 18 view .LVU468
 1885 0280 D3F8EC30 		ldr	r3, [r3, #236]	@ _141->getTextTracking, _141->getTextTracking
 1886 0284 9847     		blx	r3		@ _141->getTextTracking
 1887              	.LVL104:
 1888 0286 8046     		mov	r8, r0	@ tracking, tmp522
 1889              	.LVL105:
 266:src/scenes/scene_game.c ****       game->main_font, gsc->speech_bubble.line1,
 1890              		.loc 1 266 3 is_stmt 1 view .LVU469
 1891              	@ src/scenes/scene_game.c:266:   int width = pd->graphics->getTextWidth(
 266:src/scenes/scene_game.c ****       game->main_font, gsc->speech_bubble.line1,
 1892              		.loc 1 266 15 is_stmt 0 view .LVU470
 1893 0288 5046     		mov	r0, r10	@, _124
 1894              	.LVL106:
 266:src/scenes/scene_game.c ****       game->main_font, gsc->speech_bubble.line1,
 1895              		.loc 1 266 15 view .LVU471
 1896 028a FFF7FEFF 		bl	strlen		@
 1897              	.LVL107:
 1898              	@ src/scenes/scene_game.c:266:   int width = pd->graphics->getTextWidth(
 266:src/scenes/scene_game.c ****       game->main_font, gsc->speech_bubble.line1,
 1899              		.loc 1 266 27 view .LVU472
 1900 028e D9F80830 		ldr	r3, [r9, #8]	@ pd_122->graphics, pd_122->graphics
 1901              	@ src/scenes/scene_game.c:266:   int width = pd->graphics->getTextWidth(
 266:src/scenes/scene_game.c ****       game->main_font, gsc->speech_bubble.line1,
 1902              		.loc 1 266 15 view .LVU473
 1903 0292 0246     		mov	r2, r0	@ tmp523,
 1904 0294 5146     		mov	r1, r10	@, _124
 1905 0296 CDF80080 		str	r8, [sp]	@ tracking,
 1906 029a D3F8A080 		ldr	r8, [r3, #160]	@ _144->getTextWidth, _144->getTextWidth
 1907              	.LVL108:
 266:src/scenes/scene_game.c ****       game->main_font, gsc->speech_bubble.line1,
 1908              		.loc 1 266 15 view .LVU474
 1909 029e 0023     		movs	r3, #0	@,
 1910 02a0 686B     		ldr	r0, [r5, #52]	@, game_4(D)->main_font
 1911 02a2 C047     		blx	r8		@ _144->getTextWidth
 1912              	.LVL109:
 266:src/scenes/scene_game.c ****       game->main_font, gsc->speech_bubble.line1,
 1913              		.loc 1 266 15 view .LVU475
 1914 02a4 8046     		mov	r8, r0	@ width, tmp524
 1915              	.LVL110:
 270:src/scenes/scene_game.c ****                          strlen(gsc->speech_bubble.line1), kASCIIEncoding,
 1916              		.loc 1 270 3 is_stmt 1 view .LVU476
 1917 02a6 5046     		mov	r0, r10	@, _124
 1918              	.LVL111:
 270:src/scenes/scene_game.c ****                          strlen(gsc->speech_bubble.line1), kASCIIEncoding,
 1919              		.loc 1 270 3 is_stmt 0 view .LVU477
 1920 02a8 FFF7FEFF 		bl	strlen		@
 1921              	.LVL112:
ARM GAS  /tmp/ccIwehAI.s 			page 52


 1922              	@ src/scenes/scene_game.c:272:                          (gsc->speech_bubble.size.width - width) / 2
 272:src/scenes/scene_game.c ****   pd->graphics->popContext();
 1923              		.loc 1 272 57 view .LVU478
 1924 02ac DBF85830 		ldr	r3, [fp, #88]	@ gsc_123->speech_bubble.size.width, gsc_123->speech_bubble.size.width
 1925              	@ src/scenes/scene_game.c:270:   pd->graphics->drawText(gsc->speech_bubble.line1,
 270:src/scenes/scene_game.c ****                          strlen(gsc->speech_bubble.line1), kASCIIEncoding,
 1926              		.loc 1 270 3 view .LVU479
 1927 02b0 4FF00F0C 		mov	ip, #15	@ tmp411,
 1928              	@ src/scenes/scene_game.c:270:   pd->graphics->drawText(gsc->speech_bubble.line1,
 270:src/scenes/scene_game.c ****                          strlen(gsc->speech_bubble.line1), kASCIIEncoding,
 1929              		.loc 1 270 15 view .LVU480
 1930 02b4 D9F80820 		ldr	r2, [r9, #8]	@ pd_122->graphics, pd_122->graphics
 1931              	@ src/scenes/scene_game.c:270:   pd->graphics->drawText(gsc->speech_bubble.line1,
 270:src/scenes/scene_game.c ****                          strlen(gsc->speech_bubble.line1), kASCIIEncoding,
 1932              		.loc 1 270 3 view .LVU481
 1933 02b8 B3EB0803 		subs	r3, r3, r8	@ tmp408, gsc_123->speech_bubble.size.width, width
 1934 02bc 0146     		mov	r1, r0	@ _151, tmp525
 1935 02be CDF800C0 		str	ip, [sp]	@ tmp411,
 1936 02c2 5046     		mov	r0, r10	@, _124
 1937 02c4 48BF     		it	mi
 1938 02c6 0133     		addmi	r3, r3, #1	@ tmp408, tmp408,
 1939 02c8 D2F85880 		ldr	r8, [r2, #88]	@ _149->drawText, _149->drawText
 1940              	.LVL113:
 270:src/scenes/scene_game.c ****                          strlen(gsc->speech_bubble.line1), kASCIIEncoding,
 1941              		.loc 1 270 3 view .LVU482
 1942 02cc 0022     		movs	r2, #0	@,
 1943 02ce 5B10     		asrs	r3, r3, #1	@, tmp408,
 1944 02d0 C047     		blx	r8		@ _149->drawText
 1945              	.LVL114:
 273:src/scenes/scene_game.c **** 
 1946              		.loc 1 273 3 is_stmt 1 view .LVU483
 1947              	@ src/scenes/scene_game.c:273:   pd->graphics->popContext();
 273:src/scenes/scene_game.c **** 
 1948              		.loc 1 273 15 is_stmt 0 view .LVU484
 1949 02d2 D9F80830 		ldr	r3, [r9, #8]	@ pd_122->graphics, pd_122->graphics
 1950              	@ src/scenes/scene_game.c:273:   pd->graphics->popContext();
 273:src/scenes/scene_game.c **** 
 1951              		.loc 1 273 3 view .LVU485
 1952 02d6 1B6B     		ldr	r3, [r3, #48]	@ _155->popContext, _155->popContext
 1953 02d8 9847     		blx	r3		@ _155->popContext
 1954              	.LVL115:
 275:src/scenes/scene_game.c ****   pd->sprite->moveTo(assets->speech_bubble_sprite,
 1955              		.loc 1 275 3 is_stmt 1 view .LVU486
 1956 02da 029A     		ldr	r2, [sp, #8]	@ assets, %sfp
 1957              	@ src/scenes/scene_game.c:275:   pd->sprite->setVisible(assets->speech_bubble_sprite, true);
 275:src/scenes/scene_game.c ****   pd->sprite->moveTo(assets->speech_bubble_sprite,
 1958              		.loc 1 275 13 is_stmt 0 view .LVU487
 1959 02dc D9F80C30 		ldr	r3, [r9, #12]	@ pd_122->sprite, pd_122->sprite
 1960              	@ src/scenes/scene_game.c:275:   pd->sprite->setVisible(assets->speech_bubble_sprite, true);
 275:src/scenes/scene_game.c ****   pd->sprite->moveTo(assets->speech_bubble_sprite,
 1961              		.loc 1 275 3 view .LVU488
 1962 02e0 0121     		movs	r1, #1	@,
 1963 02e2 506A     		ldr	r0, [r2, #36]	@, assets_8(D)->speech_bubble_sprite
 1964 02e4 D3F88430 		ldr	r3, [r3, #132]	@ _157->setVisible, _157->setVisible
 1965 02e8 9847     		blx	r3		@ _157->setVisible
 1966              	.LVL116:
 276:src/scenes/scene_game.c ****                      p.x + gsc->speech_bubble.size.width / 2,
ARM GAS  /tmp/ccIwehAI.s 			page 53


 1967              		.loc 1 276 3 is_stmt 1 view .LVU489
 1968              	@ src/scenes/scene_game.c:278:                      p.y - gsc->speech_bubble.size.height / 2);
 278:src/scenes/scene_game.c **** }
 1969              		.loc 1 278 59 is_stmt 0 view .LVU490
 1970 02ea DBF85C30 		ldr	r3, [fp, #92]	@ gsc_123->speech_bubble.size.height, gsc_123->speech_bubble.size.height
 1971              	@ src/scenes/scene_game.c:278:                      p.y - gsc->speech_bubble.size.height / 2);
 278:src/scenes/scene_game.c **** }
 1972              		.loc 1 278 26 view .LVU491
 1973 02ee 049A     		ldr	r2, [sp, #16]	@ p$y, %sfp
 1974              	@ src/scenes/scene_game.c:278:                      p.y - gsc->speech_bubble.size.height / 2);
 278:src/scenes/scene_game.c **** }
 1975              		.loc 1 278 59 view .LVU492
 1976 02f0 002B     		cmp	r3, #0	@ gsc_123->speech_bubble.size.height,
 1977              	@ src/scenes/scene_game.c:276:   pd->sprite->moveTo(assets->speech_bubble_sprite,
 276:src/scenes/scene_game.c ****                      p.x + gsc->speech_bubble.size.width / 2,
 1978              		.loc 1 276 3 view .LVU493
 1979 02f2 029E     		ldr	r6, [sp, #8]	@ assets, %sfp
 1980              	@ src/scenes/scene_game.c:278:                      p.y - gsc->speech_bubble.size.height / 2);
 278:src/scenes/scene_game.c **** }
 1981              		.loc 1 278 59 view .LVU494
 1982 02f4 B8BF     		it	lt
 1983 02f6 0133     		addlt	r3, r3, #1	@ gsc_123->speech_bubble.size.height, gsc_123->speech_bubble.size.height,
 1984              	@ src/scenes/scene_game.c:276:   pd->sprite->moveTo(assets->speech_bubble_sprite,
 276:src/scenes/scene_game.c ****                      p.x + gsc->speech_bubble.size.width / 2,
 1985              		.loc 1 276 3 view .LVU495
 1986 02f8 706A     		ldr	r0, [r6, #36]	@, assets_8(D)->speech_bubble_sprite
 1987              	@ src/scenes/scene_game.c:278:                      p.y - gsc->speech_bubble.size.height / 2);
 278:src/scenes/scene_game.c **** }
 1988              		.loc 1 278 26 view .LVU496
 1989 02fa A2EB6303 		sub	r3, r2, r3, asr #1	@ tmp422, p$y, gsc_123->speech_bubble.size.height,
 1990              	@ src/scenes/scene_game.c:277:                      p.x + gsc->speech_bubble.size.width / 2,
 277:src/scenes/scene_game.c ****                      p.y - gsc->speech_bubble.size.height / 2);
 1991              		.loc 1 277 26 view .LVU497
 1992 02fe 059A     		ldr	r2, [sp, #20]	@ p$x, %sfp
 1993              	@ src/scenes/scene_game.c:278:                      p.y - gsc->speech_bubble.size.height / 2);
 278:src/scenes/scene_game.c **** }
 1994              		.loc 1 278 26 view .LVU498
 1995 0300 00EE903A 		vmov	s1, r3	@ int	@ tmp422, tmp422
 1996              	@ src/scenes/scene_game.c:277:                      p.x + gsc->speech_bubble.size.width / 2,
 277:src/scenes/scene_game.c ****                      p.y - gsc->speech_bubble.size.height / 2);
 1997              		.loc 1 277 58 view .LVU499
 1998 0304 DBF85830 		ldr	r3, [fp, #88]	@ gsc_123->speech_bubble.size.width, gsc_123->speech_bubble.size.width
 1999 0308 002B     		cmp	r3, #0	@ gsc_123->speech_bubble.size.width,
 2000              	@ src/scenes/scene_game.c:276:   pd->sprite->moveTo(assets->speech_bubble_sprite,
 276:src/scenes/scene_game.c ****                      p.x + gsc->speech_bubble.size.width / 2,
 2001              		.loc 1 276 3 view .LVU500
 2002 030a F8EEE00A 		vcvt.f32.s32	s1, s1	@ tmp423, tmp422
 2003              	@ src/scenes/scene_game.c:277:                      p.x + gsc->speech_bubble.size.width / 2,
 277:src/scenes/scene_game.c ****                      p.y - gsc->speech_bubble.size.height / 2);
 2004              		.loc 1 277 58 view .LVU501
 2005 030e B8BF     		it	lt
 2006 0310 0133     		addlt	r3, r3, #1	@ gsc_123->speech_bubble.size.width, gsc_123->speech_bubble.size.width,
 2007              	@ src/scenes/scene_game.c:277:                      p.x + gsc->speech_bubble.size.width / 2,
 277:src/scenes/scene_game.c ****                      p.y - gsc->speech_bubble.size.height / 2);
 2008              		.loc 1 277 26 view .LVU502
 2009 0312 02EB6303 		add	r3, r2, r3, asr #1	@ tmp428, p$x, gsc_123->speech_bubble.size.width,
 2010 0316 00EE103A 		vmov	s0, r3	@ int	@ tmp428, tmp428
ARM GAS  /tmp/ccIwehAI.s 			page 54


 2011              	@ src/scenes/scene_game.c:276:   pd->sprite->moveTo(assets->speech_bubble_sprite,
 276:src/scenes/scene_game.c ****                      p.x + gsc->speech_bubble.size.width / 2,
 2012              		.loc 1 276 13 view .LVU503
 2013 031a D9F80C30 		ldr	r3, [r9, #12]	@ pd_122->sprite, pd_122->sprite
 2014              	@ src/scenes/scene_game.c:276:   pd->sprite->moveTo(assets->speech_bubble_sprite,
 276:src/scenes/scene_game.c ****                      p.x + gsc->speech_bubble.size.width / 2,
 2015              		.loc 1 276 3 view .LVU504
 2016 031e B8EEC00A 		vcvt.f32.s32	s0, s0	@, tmp428
 2017 0322 9B6B     		ldr	r3, [r3, #56]	@ _160->moveTo, _160->moveTo
 2018 0324 9847     		blx	r3		@ _160->moveTo
 2019              	.LVL117:
 276:src/scenes/scene_game.c ****                      p.x + gsc->speech_bubble.size.width / 2,
 2020              		.loc 1 276 3 view .LVU505
 2021              	.LBE244:
 2022              	.LBE250:
 336:src/scenes/scene_game.c ****       gsc->state = STATE_HECKLING;
 2023              		.loc 1 336 7 is_stmt 1 view .LVU506
 2024              	@ src/scenes/scene_game.c:336:       gsc->change_state_time = HECKLE_S;
 336:src/scenes/scene_game.c ****       gsc->state = STATE_HECKLING;
 2025              		.loc 1 336 30 is_stmt 0 view .LVU507
 2026 0326 4FF08043 		mov	r3, #1073741824	@ tmp433,
 2027 032a C4F82431 		str	r3, [r4, #292]	@ float	@ tmp433, MEM[(struct GameSceneContext *)prephitmp_267].change_state_ti
 337:src/scenes/scene_game.c ****       pd->system->resetElapsedTime();
 2028              		.loc 1 337 7 is_stmt 1 view .LVU508
 2029              	@ src/scenes/scene_game.c:337:       gsc->state = STATE_HECKLING;
 337:src/scenes/scene_game.c ****       pd->system->resetElapsedTime();
 2030              		.loc 1 337 18 is_stmt 0 view .LVU509
 2031 032e 0123     		movs	r3, #1	@ tmp434,
 2032 0330 84F83031 		strb	r3, [r4, #304]	@ tmp434, MEM[(struct GameSceneContext *)prephitmp_267].state
 338:src/scenes/scene_game.c ****       gsc->player_location_bookmark = gsc->player.location;
 2033              		.loc 1 338 7 is_stmt 1 view .LVU510
 2034              	@ src/scenes/scene_game.c:338:       pd->system->resetElapsedTime();
 338:src/scenes/scene_game.c ****       gsc->player_location_bookmark = gsc->player.location;
 2035              		.loc 1 338 17 is_stmt 0 view .LVU511
 2036 0334 3B68     		ldr	r3, [r7]	@ prephitmp_270->system, prephitmp_270->system
 2037              	@ src/scenes/scene_game.c:338:       pd->system->resetElapsedTime();
 338:src/scenes/scene_game.c ****       gsc->player_location_bookmark = gsc->player.location;
 2038              		.loc 1 338 7 view .LVU512
 2039 0336 D3F88030 		ldr	r3, [r3, #128]	@ _33->resetElapsedTime, _33->resetElapsedTime
 2040 033a 9847     		blx	r3		@ _33->resetElapsedTime
 2041              	.LVL118:
 339:src/scenes/scene_game.c ****       hide_joke(game, assets);
 2042              		.loc 1 339 7 is_stmt 1 view .LVU513
 2043              	@ src/scenes/scene_game.c:339:       gsc->player_location_bookmark = gsc->player.location;
 339:src/scenes/scene_game.c ****       hide_joke(game, assets);
 2044              		.loc 1 339 37 is_stmt 0 view .LVU514
 2045 033c 04F10803 		add	r3, r4, #8	@ tmp439, gsc,
 2046              	.LBB251:
 2047              	.LBB252:
 2048              	@ src/scenes/scene_game.c:419:   pd->sprite->setVisible(assets->joke_bubble_sprite, false);
 416:src/scenes/scene_game.c **** 
 417:src/scenes/scene_game.c **** static void hide_joke(GameContext *game, GameAssets *assets) {
 418:src/scenes/scene_game.c ****   PlaydateAPI *pd = game->pd;
 419:src/scenes/scene_game.c ****   pd->sprite->setVisible(assets->joke_bubble_sprite, false);
 2049              		.loc 1 419 5 view .LVU515
 2050 0340 2A68     		ldr	r2, [r5]	@ game_4(D)->pd, game_4(D)->pd
 2051              	.LBE252:
ARM GAS  /tmp/ccIwehAI.s 			page 55


 2052              	.LBE251:
 2053              	@ src/scenes/scene_game.c:339:       gsc->player_location_bookmark = gsc->player.location;
 339:src/scenes/scene_game.c ****       hide_joke(game, assets);
 2054              		.loc 1 339 37 view .LVU516
 2055 0342 04F59474 		add	r4, r4, #296	@ tmp438, gsc,
 2056 0346 93E80300 		ldm	r3, {r0, r1}	@ tmp439,,
 2057              	.LBB255:
 2058              	.LBB253:
 2059              	@ src/scenes/scene_game.c:419:   pd->sprite->setVisible(assets->joke_bubble_sprite, false);
 2060              		.loc 1 419 13 view .LVU517
 2061 034a D368     		ldr	r3, [r2, #12]	@ pd_35->sprite, pd_35->sprite
 2062              	.LBE253:
 2063              	.LBE255:
 2064              	@ src/scenes/scene_game.c:339:       gsc->player_location_bookmark = gsc->player.location;
 339:src/scenes/scene_game.c ****       hide_joke(game, assets);
 2065              		.loc 1 339 37 view .LVU518
 2066 034c 84E80300 		stm	r4, {r0, r1}	@ tmp438,,
 340:src/scenes/scene_game.c ****     }
 2067              		.loc 1 340 7 is_stmt 1 view .LVU519
 2068              	.LVL119:
 2069              	.LBB256:
 2070              	.LBI251:
 417:src/scenes/scene_game.c ****   PlaydateAPI *pd = game->pd;
 2071              		.loc 1 417 13 view .LVU520
 2072              	.LBB254:
 418:src/scenes/scene_game.c ****   pd->sprite->setVisible(assets->joke_bubble_sprite, false);
 2073              		.loc 1 418 3 view .LVU521
 2074              		.loc 1 419 3 view .LVU522
 2075 0350 D3F88430 		ldr	r3, [r3, #132]	@ _36->setVisible, _36->setVisible
 2076 0354 0021     		movs	r1, #0	@,
 2077 0356 F06A     		ldr	r0, [r6, #44]	@, assets_8(D)->joke_bubble_sprite
 2078 0358 9847     		blx	r3		@ _36->setVisible
 2079              	.LVL120:
 2080              	@ src/scenes/scene_game.c:420: }
 420:src/scenes/scene_game.c **** }
 2081              		.loc 1 420 1 is_stmt 0 view .LVU523
 2082 035a 5FE6     		b	.L55		@
 2083              	.LVL121:
 2084              	.L58:
 2085              		.loc 1 420 1 view .LVU524
 2086              	.LBE254:
 2087              	.LBE256:
 2088              	.LBE261:
 2089              	.LBE268:
 2090              	.LBB269:
 2091              	.LBB188:
 289:src/scenes/scene_game.c ****   } else if ((debounced_buttons & kButtonRight)) {
 2092              		.loc 1 289 5 is_stmt 1 view .LVU525
 2093 035c 236A     		ldr	r3, [r4, #32]	@ gsc_6->player.velocity, gsc_6->player.velocity
 2094 035e 2146     		mov	r1, r4	@, gsc
 2095 0360 3846     		mov	r0, r7	@, pd
 2096              	.LVL122:
 289:src/scenes/scene_game.c ****   } else if ((debounced_buttons & kButtonRight)) {
 2097              		.loc 1 289 5 is_stmt 0 view .LVU526
 2098 0362 029A     		ldr	r2, [sp, #8]	@, %sfp
 2099              	.LVL123:
 289:src/scenes/scene_game.c ****   } else if ((debounced_buttons & kButtonRight)) {
ARM GAS  /tmp/ccIwehAI.s 			page 56


 2100              		.loc 1 289 5 view .LVU527
 2101 0364 5B42     		rsbs	r3, r3, #0	@, gsc_6->player.velocity
 2102 0366 FFF7FEFF 		bl	move_player		@
 2103              	.LVL124:
 2104              	.LBE188:
 2105              	.LBE269:
 2106              	.LBB270:
 2107              	.LBB217:
 2108              	@ src/scenes/scene_game.c:296:   PlaydateAPI *pd = game->pd;
 296:src/scenes/scene_game.c ****   GameSceneContext *gsc = (GameSceneContext *)game->game_userdata;
 2109              		.loc 1 296 16 view .LVU528
 2110 036a 2F68     		ldr	r7, [r5]	@ pd, game_4(D)->pd
 2111              	.LVL125:
 2112              	@ src/scenes/scene_game.c:297:   GameSceneContext *gsc = (GameSceneContext *)game->game_userdata;
 297:src/scenes/scene_game.c ****   if (gsc->tomato.active) {
 2113              		.loc 1 297 21 view .LVU529
 2114 036c 2C6B     		ldr	r4, [r5, #48]	@ gsc, game_4(D)->game_userdata
 2115              	.LVL126:
 297:src/scenes/scene_game.c ****   if (gsc->tomato.active) {
 2116              		.loc 1 297 21 view .LVU530
 2117              	.LBE217:
 2118              	.LBE270:
 2119              	.LBB271:
 2120              	.LBB189:
 2121 036e 60E6     		b	.L20		@
 2122              	.LVL127:
 2123              	.L61:
 297:src/scenes/scene_game.c ****   if (gsc->tomato.active) {
 2124              		.loc 1 297 21 view .LVU531
 2125              	.LBE189:
 2126              	.LBE271:
 2127              	.LBB272:
 2128              	.LBB218:
 2129              	.LBB213:
 2130              	.LBB203:
 313:src/scenes/scene_game.c ****                          (int)gsc->tomato.location.y);
 2131              		.loc 1 313 7 is_stmt 1 view .LVU532
 2132              	@ src/scenes/scene_game.c:314:                          (int)gsc->tomato.location.y);
 314:src/scenes/scene_game.c ****     } else {
 2133              		.loc 1 314 26 is_stmt 0 view .LVU533
 2134 0370 D4ED330A 		vldr.32	s1, [r4, #204]	@ MEM[(struct GameSceneContext *)prephitmp_244].tomato.location.y, MEM[(str
 2135              	@ src/scenes/scene_game.c:313:       pd->sprite->moveTo(assets->tomato_sprite, (int)gsc->tomato.loc
 313:src/scenes/scene_game.c ****                          (int)gsc->tomato.location.y);
 2136              		.loc 1 313 49 view .LVU534
 2137 0374 94ED320A 		vldr.32	s0, [r4, #200]	@ MEM[(struct GameSceneContext *)prephitmp_244].tomato.location.x, MEM[(str
 2138              	@ src/scenes/scene_game.c:314:                          (int)gsc->tomato.location.y);
 314:src/scenes/scene_game.c ****     } else {
 2139              		.loc 1 314 26 view .LVU535
 2140 0378 FDEEE00A 		vcvt.s32.f32	s1, s1	@ tmp488, MEM[(struct GameSceneContext *)prephitmp_244].tomato.location.y
 2141              	@ src/scenes/scene_game.c:313:       pd->sprite->moveTo(assets->tomato_sprite, (int)gsc->tomato.loc
 313:src/scenes/scene_game.c ****                          (int)gsc->tomato.location.y);
 2142              		.loc 1 313 17 view .LVU536
 2143 037c FB68     		ldr	r3, [r7, #12]	@ prephitmp_168->sprite, prephitmp_168->sprite
 2144              	@ src/scenes/scene_game.c:313:       pd->sprite->moveTo(assets->tomato_sprite, (int)gsc->tomato.loc
 313:src/scenes/scene_game.c ****                          (int)gsc->tomato.location.y);
 2145              		.loc 1 313 49 view .LVU537
 2146 037e BDEEC00A 		vcvt.s32.f32	s0, s0	@ tmp491, MEM[(struct GameSceneContext *)prephitmp_244].tomato.location.x
ARM GAS  /tmp/ccIwehAI.s 			page 57


 2147              	@ src/scenes/scene_game.c:313:       pd->sprite->moveTo(assets->tomato_sprite, (int)gsc->tomato.loc
 313:src/scenes/scene_game.c ****                          (int)gsc->tomato.location.y);
 2148              		.loc 1 313 7 view .LVU538
 2149 0382 029A     		ldr	r2, [sp, #8]	@ assets, %sfp
 2150 0384 9B6B     		ldr	r3, [r3, #56]	@ _82->moveTo, _82->moveTo
 2151 0386 F8EEE00A 		vcvt.f32.s32	s1, s1	@, tmp488
 2152 038a D069     		ldr	r0, [r2, #28]	@, assets_8(D)->tomato_sprite
 2153 038c B8EEC00A 		vcvt.f32.s32	s0, s0	@, tmp491
 2154 0390 9847     		blx	r3		@ _82->moveTo
 2155              	.LVL128:
 2156 0392 A6E6     		b	.L37		@
 2157              	.LVL129:
 2158              	.L59:
 313:src/scenes/scene_game.c ****                          (int)gsc->tomato.location.y);
 2159              		.loc 1 313 7 view .LVU539
 2160              	.LBE203:
 2161              	.LBE213:
 2162              	.LBE218:
 2163              	.LBE272:
 2164              	.LBB273:
 2165              	.LBB190:
 291:src/scenes/scene_game.c ****   }
 2166              		.loc 1 291 5 is_stmt 1 view .LVU540
 2167 0394 236A     		ldr	r3, [r4, #32]	@, gsc_6->player.velocity
 2168 0396 2146     		mov	r1, r4	@, gsc
 2169 0398 3846     		mov	r0, r7	@, pd
 2170              	.LVL130:
 291:src/scenes/scene_game.c ****   }
 2171              		.loc 1 291 5 is_stmt 0 view .LVU541
 2172 039a 029A     		ldr	r2, [sp, #8]	@, %sfp
 2173              	.LVL131:
 291:src/scenes/scene_game.c ****   }
 2174              		.loc 1 291 5 view .LVU542
 2175 039c FFF7FEFF 		bl	move_player		@
 2176              	.LVL132:
 2177              	.LBE190:
 2178              	.LBE273:
 2179              	.LBB274:
 2180              	.LBB219:
 2181              	@ src/scenes/scene_game.c:296:   PlaydateAPI *pd = game->pd;
 296:src/scenes/scene_game.c ****   GameSceneContext *gsc = (GameSceneContext *)game->game_userdata;
 2182              		.loc 1 296 16 view .LVU543
 2183 03a0 2F68     		ldr	r7, [r5]	@ pd, game_4(D)->pd
 2184              	.LVL133:
 2185              	@ src/scenes/scene_game.c:297:   GameSceneContext *gsc = (GameSceneContext *)game->game_userdata;
 297:src/scenes/scene_game.c ****   if (gsc->tomato.active) {
 2186              		.loc 1 297 21 view .LVU544
 2187 03a2 2C6B     		ldr	r4, [r5, #48]	@ gsc, game_4(D)->game_userdata
 2188              	.LVL134:
 297:src/scenes/scene_game.c ****   if (gsc->tomato.active) {
 2189              		.loc 1 297 21 view .LVU545
 2190 03a4 45E6     		b	.L20		@
 2191              	.LVL135:
 2192              	.L60:
 2193              	.LBB214:
 2194              	.LBB204:
 2195              	.LBB196:
ARM GAS  /tmp/ccIwehAI.s 			page 58


 2196              	@ ./src/scenes/../pdantler/mooselib.h:105:   return (p.x >= rect.x && p.y >= rect.y && p.x < rect.x
 2197              		.loc 2 105 58 view .LVU546
 2198 03a6 A369     		ldr	r3, [r4, #24]	@ MEM[(struct GameSceneContext *)prephitmp_244].player.hitbox.width, MEM[(struct
 2199              	.LVL136:
 2200              		.loc 2 105 58 view .LVU547
 2201 03a8 10EE101A 		vmov	r1, s0	@ int	@ _68, _68
 2202 03ac 1944     		add	r1, r1, r3	@ _68, MEM[(struct GameSceneContext *)prephitmp_244].player.hitbox.width
 2203              	@ ./src/scenes/../pdantler/mooselib.h:105:   return (p.x >= rect.x && p.y >= rect.y && p.x < rect.x
 2204              		.loc 2 105 42 view .LVU548
 2205 03ae 8945     		cmp	r9, r1	@ _59, tmp330
 2206 03b0 BFF681AE 		bge	.L22		@,
 2207              	@ ./src/scenes/../pdantler/mooselib.h:106:           p.y < rect.y + rect.height);
 106:./src/scenes/../pdantler/mooselib.h ****           p.y < rect.y + rect.height);
 2208              		.loc 2 106 24 view .LVU549
 2209 03b4 E369     		ldr	r3, [r4, #28]	@ MEM[(struct GameSceneContext *)prephitmp_244].player.hitbox.height, MEM[(struc
 2210 03b6 1A44     		add	r2, r2, r3	@ tmp332, MEM[(struct GameSceneContext *)prephitmp_244].player.hitbox.height
 2211              	.LVL137:
 2212              	@ ./src/scenes/../pdantler/mooselib.h:105:   return (p.x >= rect.x && p.y >= rect.y && p.x < rect.x
 105:./src/scenes/../pdantler/mooselib.h ****           p.y < rect.y + rect.height);
 2213              		.loc 2 105 71 view .LVU550
 2214 03b8 9045     		cmp	r8, r2	@ _60, tmp332
 2215 03ba BFF67CAE 		bge	.L22		@,
 2216              	.LVL138:
 105:./src/scenes/../pdantler/mooselib.h ****           p.y < rect.y + rect.height);
 2217              		.loc 2 105 71 view .LVU551
 2218              	.LBE196:
 2219              	.LBE204:
 310:src/scenes/scene_game.c ****       kill_player(game, assets);
 2220              		.loc 1 310 7 is_stmt 1 view .LVU552
 2221 03be 2B68     		ldr	r3, [r5]	@ _91, MEM[(struct PlaydateAPI * *)game_4(D)]
 2222              	.LBB205:
 2223              	.LBB206:
 2224              	@ src/scenes/scene_game.c:375:   gsc->tomato.active = false;
 375:src/scenes/scene_game.c ****   pd->sprite->setVisible(assets->tomato_sprite, false);
 2225              		.loc 1 375 22 is_stmt 0 view .LVU553
 2226 03c0 0021     		movs	r1, #0	@ tmp503,
 2227 03c2 029C     		ldr	r4, [sp, #8]	@ assets, %sfp
 2228 03c4 2A6B     		ldr	r2, [r5, #48]	@ MEM[(void * *)game_4(D) + 48B], MEM[(void * *)game_4(D) + 48B]
 2229              	@ src/scenes/scene_game.c:376:   pd->sprite->setVisible(assets->tomato_sprite, false);
 376:src/scenes/scene_game.c **** }
 2230              		.loc 1 376 13 view .LVU554
 2231 03c6 DB68     		ldr	r3, [r3, #12]	@ _91->sprite, _91->sprite
 2232 03c8 E069     		ldr	r0, [r4, #28]	@ _93, MEM[(struct LCDSprite * *)assets_8(D) + 28B]
 2233              	.LBE206:
 2234              	.LBI205:
 372:src/scenes/scene_game.c ****   PlaydateAPI *pd = game->pd;
 2235              		.loc 1 372 13 is_stmt 1 view .LVU555
 2236              	.LVL139:
 2237              	.LBB207:
 373:src/scenes/scene_game.c ****   GameSceneContext *gsc = (GameSceneContext *)game->game_userdata;
 2238              		.loc 1 373 3 view .LVU556
 374:src/scenes/scene_game.c ****   gsc->tomato.active = false;
 2239              		.loc 1 374 3 view .LVU557
 375:src/scenes/scene_game.c ****   pd->sprite->setVisible(assets->tomato_sprite, false);
 2240              		.loc 1 375 3 view .LVU558
 2241              	@ src/scenes/scene_game.c:376:   pd->sprite->setVisible(assets->tomato_sprite, false);
 376:src/scenes/scene_game.c **** }
ARM GAS  /tmp/ccIwehAI.s 			page 59


 2242              		.loc 1 376 3 is_stmt 0 view .LVU559
 2243 03ca D3F88430 		ldr	r3, [r3, #132]	@ _114->setVisible, _114->setVisible
 2244              	@ src/scenes/scene_game.c:375:   gsc->tomato.active = false;
 375:src/scenes/scene_game.c ****   pd->sprite->setVisible(assets->tomato_sprite, false);
 2245              		.loc 1 375 22 view .LVU560
 2246 03ce 82F8D810 		strb	r1, [r2, #216]	@ tmp503, MEM[(struct GameSceneContext *)_92].tomato.active
 376:src/scenes/scene_game.c **** }
 2247              		.loc 1 376 3 is_stmt 1 view .LVU561
 2248 03d2 9847     		blx	r3		@ _114->setVisible
 2249              	.LVL140:
 376:src/scenes/scene_game.c **** }
 2250              		.loc 1 376 3 is_stmt 0 view .LVU562
 2251              	.LBE207:
 2252              	.LBE205:
 311:src/scenes/scene_game.c ****     } else if (MLIB_POINT_IN_RECT(p, SCREEN_BOUNDS)) {
 2253              		.loc 1 311 7 is_stmt 1 view .LVU563
 2254 03d4 2B68     		ldr	r3, [r5]	@ _94, MEM[(struct PlaydateAPI * *)game_4(D)]
 2255              	.LBB208:
 2256              	.LBB209:
 2257              	@ src/scenes/scene_game.c:382:   gsc->state = STATE_GAME_OVER;
 382:src/scenes/scene_game.c ****   pd->sprite->setImageFlip(assets->bird_sprite, kBitmapFlippedY);
 2258              		.loc 1 382 14 is_stmt 0 view .LVU564
 2259 03d6 2A6B     		ldr	r2, [r5, #48]	@ MEM[(void * *)game_4(D) + 48B], MEM[(void * *)game_4(D) + 48B]
 2260 03d8 0321     		movs	r1, #3	@ tmp508,
 2261 03da E068     		ldr	r0, [r4, #12]	@ _96, MEM[(struct LCDSprite * *)assets_8(D) + 12B]
 2262              	.LBE209:
 2263              	.LBI208:
 379:src/scenes/scene_game.c ****   PlaydateAPI *pd = game->pd;
 2264              		.loc 1 379 13 is_stmt 1 view .LVU565
 2265              	.LVL141:
 2266              	.LBB210:
 380:src/scenes/scene_game.c ****   GameSceneContext *gsc = (GameSceneContext *)game->game_userdata;
 2267              		.loc 1 380 3 view .LVU566
 381:src/scenes/scene_game.c ****   gsc->state = STATE_GAME_OVER;
 2268              		.loc 1 381 3 view .LVU567
 382:src/scenes/scene_game.c ****   pd->sprite->setImageFlip(assets->bird_sprite, kBitmapFlippedY);
 2269              		.loc 1 382 3 view .LVU568
 2270              	@ src/scenes/scene_game.c:382:   gsc->state = STATE_GAME_OVER;
 382:src/scenes/scene_game.c ****   pd->sprite->setImageFlip(assets->bird_sprite, kBitmapFlippedY);
 2271              		.loc 1 382 14 is_stmt 0 view .LVU569
 2272 03dc 82F83011 		strb	r1, [r2, #304]	@ tmp508, MEM[(struct GameSceneContext *)_95].state
 2273              	.LVL142:
 383:src/scenes/scene_game.c **** }
 2274              		.loc 1 383 3 is_stmt 1 view .LVU570
 2275 03e0 0221     		movs	r1, #2	@,
 2276              	@ src/scenes/scene_game.c:383:   pd->sprite->setImageFlip(assets->bird_sprite, kBitmapFlippedY);
 383:src/scenes/scene_game.c **** }
 2277              		.loc 1 383 13 is_stmt 0 view .LVU571
 2278 03e2 DB68     		ldr	r3, [r3, #12]	@ _94->sprite, _94->sprite
 2279              	.LVL143:
 2280              	@ src/scenes/scene_game.c:383:   pd->sprite->setImageFlip(assets->bird_sprite, kBitmapFlippedY);
 383:src/scenes/scene_game.c **** }
 2281              		.loc 1 383 3 view .LVU572
 2282 03e4 9B6D     		ldr	r3, [r3, #88]	@ _109->setImageFlip, _109->setImageFlip
 2283 03e6 9847     		blx	r3		@ _109->setImageFlip
 2284              	.LVL144:
 2285              	@ src/scenes/scene_game.c:384: }
ARM GAS  /tmp/ccIwehAI.s 			page 60


 384:src/scenes/scene_game.c **** 
 2286              		.loc 1 384 1 view .LVU573
 2287 03e8 7BE6     		b	.L37		@
 2288              	.LVL145:
 2289              	.L62:
 384:src/scenes/scene_game.c **** 
 2290              		.loc 1 384 1 view .LVU574
 2291              	.LBE210:
 2292              	.LBE208:
 2293              	.LBE214:
 2294              	.LBE219:
 2295              	.LBE274:
 2296              	.LBB275:
 2297              	.LBB262:
 2298              	.LBB257:
 2299              	.LBB245:
 257:src/scenes/scene_game.c ****                              kBitmapUnflipped);
 2300              		.loc 1 257 5 is_stmt 1 view .LVU575
 2301              	@ src/scenes/scene_game.c:257:     pd->graphics->drawBitmap(assets->speech_bubble_base_image, 0, 0,
 257:src/scenes/scene_game.c ****                              kBitmapUnflipped);
 2302              		.loc 1 257 17 is_stmt 0 view .LVU576
 2303 03ea D9F80830 		ldr	r3, [r9, #8]	@ pd_122->graphics, pd_122->graphics
 2304              	@ src/scenes/scene_game.c:257:     pd->graphics->drawBitmap(assets->speech_bubble_base_image, 0, 0,
 257:src/scenes/scene_game.c ****                              kBitmapUnflipped);
 2305              		.loc 1 257 5 view .LVU577
 2306 03ee 1146     		mov	r1, r2	@, tmp3
 2307 03f0 0298     		ldr	r0, [sp, #8]	@ assets, %sfp
 2308 03f2 D3F83480 		ldr	r8, [r3, #52]	@ _132->drawBitmap, _132->drawBitmap
 2309 03f6 1346     		mov	r3, r2	@, _31
 2310 03f8 006B     		ldr	r0, [r0, #48]	@, assets_8(D)->speech_bubble_base_image
 2311 03fa C047     		blx	r8		@ _132->drawBitmap
 2312              	.LVL146:
 2313 03fc 39E7     		b	.L32		@
 2314              	.L64:
 2315 03fe 00BF     		.align	2
 2316              	.L63:
 2317 0400 67666666 		.word	1717986919
 2318 0404 93244992 		.word	-1840700269
 2319              	.LBE245:
 2320              	.LBE257:
 2321              	.LBE262:
 2322              	.LBE275:
 2323              		.cfi_endproc
 2324              	.LFE32:
 2325              		.size	tick_game, .-tick_game
 2326              		.section	.text.enter_game,"ax",%progbits
 2327              		.align	1
 2328              		.p2align 4,,15
 2329              		.global	enter_game
 2330              		.syntax unified
 2331              		.thumb
 2332              		.thumb_func
 2333              		.fpu fpv5-sp-d16
 2334              		.type	enter_game, %function
 2335              	enter_game:
 2336              	.LVL147:
 2337              	.LFB33:
ARM GAS  /tmp/ccIwehAI.s 			page 61


 134:src/scenes/scene_game.c **** 
 2338              		.loc 1 134 56 is_stmt 1 view -0
 2339              		.cfi_startproc
 2340              		@ args = 0, pretend = 0, frame = 0
 2341              		@ frame_needed = 0, uses_anonymous_args = 0
 2342              		@ link register save eliminated.
 134:src/scenes/scene_game.c **** 
 2343              		.loc 1 134 57 view .LVU579
 2344 0000 7047     		bx	lr	@
 2345              		.cfi_endproc
 2346              	.LFE33:
 2347              		.size	enter_game, .-enter_game
 2348 0002 00BF     		.section	.text.exit_game,"ax",%progbits
 2349              		.align	1
 2350              		.p2align 4,,15
 2351              		.global	exit_game
 2352              		.syntax unified
 2353              		.thumb
 2354              		.thumb_func
 2355              		.fpu fpv5-sp-d16
 2356              		.type	exit_game, %function
 2357              	exit_game:
 2358              	.LFB55:
 2359              		.cfi_startproc
 2360              		@ args = 0, pretend = 0, frame = 0
 2361              		@ frame_needed = 0, uses_anonymous_args = 0
 2362              		@ link register save eliminated.
 2363 0000 7047     		bx	lr	@
 2364              		.cfi_endproc
 2365              	.LFE55:
 2366              		.size	exit_game, .-exit_game
 2367 0002 00BF     		.section	.text.pause_game,"ax",%progbits
 2368              		.align	1
 2369              		.p2align 4,,15
 2370              		.global	pause_game
 2371              		.syntax unified
 2372              		.thumb
 2373              		.thumb_func
 2374              		.fpu fpv5-sp-d16
 2375              		.type	pause_game, %function
 2376              	pause_game:
 2377              	.LFB57:
 2378              		.cfi_startproc
 2379              		@ args = 0, pretend = 0, frame = 0
 2380              		@ frame_needed = 0, uses_anonymous_args = 0
 2381              		@ link register save eliminated.
 2382 0000 7047     		bx	lr	@
 2383              		.cfi_endproc
 2384              	.LFE57:
 2385              		.size	pause_game, .-pause_game
 2386 0002 00BF     		.section	.text.unpause_game,"ax",%progbits
 2387              		.align	1
 2388              		.p2align 4,,15
 2389              		.global	unpause_game
 2390              		.syntax unified
 2391              		.thumb
 2392              		.thumb_func
ARM GAS  /tmp/ccIwehAI.s 			page 62


 2393              		.fpu fpv5-sp-d16
 2394              		.type	unpause_game, %function
 2395              	unpause_game:
 2396              	.LFB59:
 2397              		.cfi_startproc
 2398              		@ args = 0, pretend = 0, frame = 0
 2399              		@ frame_needed = 0, uses_anonymous_args = 0
 2400              		@ link register save eliminated.
 2401 0000 7047     		bx	lr	@
 2402              		.cfi_endproc
 2403              	.LFE59:
 2404              		.size	unpause_game, .-unpause_game
 2405 0002 00BF     		.text
 2406              	.Letext0:
 2407              		.file 3 "/usr/lib/gcc/arm-none-eabi/10.3.1/include/stdint.h"
 2408              		.file 4 "/usr/lib/gcc/arm-none-eabi/10.3.1/include/stddef.h"
 2409              		.file 5 "/home/mchristensen/src/PlaydateSDK-2.2.0/C_API/pd_api/pd_api_gfx.h"
 2410              		.file 6 "/home/mchristensen/src/PlaydateSDK-2.2.0/C_API/pd_api/pd_api_sys.h"
 2411              		.file 7 "/home/mchristensen/src/PlaydateSDK-2.2.0/C_API/pd_api/pd_api_lua.h"
 2412              		.file 8 "/home/mchristensen/src/PlaydateSDK-2.2.0/C_API/pd_api/pd_api_json.h"
 2413              		.file 9 "/home/mchristensen/src/PlaydateSDK-2.2.0/C_API/pd_api/pd_api_file.h"
 2414              		.file 10 "/home/mchristensen/src/PlaydateSDK-2.2.0/C_API/pd_api/pd_api_sprite.h"
 2415              		.file 11 "/home/mchristensen/src/PlaydateSDK-2.2.0/C_API/pd_api/pd_api_sound.h"
 2416              		.file 12 "/home/mchristensen/src/PlaydateSDK-2.2.0/C_API/pd_api/pd_api_display.h"
 2417              		.file 13 "/home/mchristensen/src/PlaydateSDK-2.2.0/C_API/pd_api/pd_api_scoreboards.h"
 2418              		.file 14 "/home/mchristensen/src/PlaydateSDK-2.2.0/C_API/pd_api.h"
 2419              		.file 15 "./src/scenes/../common.h"
 2420              		.file 16 "./src/scenes/scene_game.h"
 2421              		.file 17 "/usr/include/newlib/stdlib.h"
 2422              		.file 18 "/usr/include/newlib/string.h"
 2423              		.file 19 "./src/pdantler/printf.h"