ARM GAS  /tmp/ccwJ62Vf.s 			page 1


   1              		.cpu cortex-m7
   2              		.eabi_attribute 27, 1	@ Tag_ABI_HardFP_use
   3              		.eabi_attribute 28, 1	@ Tag_ABI_VFP_args
   4              		.eabi_attribute 20, 1	@ Tag_ABI_FP_denormal
   5              		.eabi_attribute 21, 1	@ Tag_ABI_FP_exceptions
   6              		.eabi_attribute 23, 3	@ Tag_ABI_FP_number_model
   7              		.eabi_attribute 24, 1	@ Tag_ABI_align8_needed
   8              		.eabi_attribute 25, 1	@ Tag_ABI_align8_preserved
   9              		.eabi_attribute 26, 1	@ Tag_ABI_enum_size
  10              		.eabi_attribute 30, 2	@ Tag_ABI_optimization_goals
  11              		.eabi_attribute 34, 1	@ Tag_CPU_unaligned_access
  12              		.eabi_attribute 18, 4	@ Tag_ABI_PCS_wchar_t
  13              		.file	"utils.c"
  14              	@ GNU C17 (15:10.3-2021.07-4) version 10.3.1 20210621 (release) (arm-none-eabi)
  15              	@	compiled by GNU C version 11.2.0, GMP version 6.2.1, MPFR version 4.1.0, MPC version 1.2.1, isl v
  16              	
  17              	@ GGC heuristics: --param ggc-min-expand=100 --param ggc-min-heapsize=131072
  18              	@ options passed:  -I . -I .
  19              	@ -I /home/mchristensen/src/PlaydateSDK-2.2.0/C_API
  20              	@ -imultilib thumb/v7e-m+fp/hard -MD build/src/pdantler/utils.d
  21              	@ -MF build/dep/utils.o.d -MP -MQ build/src/pdantler/utils.o
  22              	@ -D__USES_INITFINI__ -D __FPU_USED=1 -D TARGET_PLAYDATE=1
  23              	@ -D TARGET_EXTENSION=1 src/pdantler/utils.c -mthumb -mcpu=cortex-m7
  24              	@ -mfloat-abi=hard -mfpu=fpv5-sp-d16 -mword-relocations
  25              	@ -mlibarch=armv7e-m+fpv5 -march=armv7e-m+fpv5
  26              	@ -auxbase-strip build/src/pdantler/utils.o -g3 -gdwarf-2 -O2 -Wall
  27              	@ -Wno-unused -Wstrict-prototypes -Wno-unknown-pragmas -Wdouble-promotion
  28              	@ -falign-functions=16 -fomit-frame-pointer -fverbose-asm -fno-common
  29              	@ -ffunction-sections -fdata-sections
  30              	@ options enabled:  -faggressive-loop-optimizations -falign-functions
  31              	@ -falign-jumps -falign-labels -falign-loops -fallocation-dce
  32              	@ -fauto-inc-dec -fbranch-count-reg -fcaller-saves
  33              	@ -fcombine-stack-adjustments -fcompare-elim -fcprop-registers
  34              	@ -fcrossjumping -fcse-follow-jumps -fdata-sections -fdefer-pop
  35              	@ -fdelete-null-pointer-checks -fdevirtualize -fdevirtualize-speculatively
  36              	@ -fdwarf2-cfi-asm -fearly-inlining -feliminate-unused-debug-symbols
  37              	@ -feliminate-unused-debug-types -fexpensive-optimizations
  38              	@ -fforward-propagate -ffp-int-builtin-inexact -ffunction-cse
  39              	@ -ffunction-sections -fgcse -fgcse-lm -fgnu-unique
  40              	@ -fguess-branch-probability -fhoist-adjacent-loads -fident -fif-conversion
  41              	@ -fif-conversion2 -findirect-inlining -finline -finline-atomics
  42              	@ -finline-functions -finline-functions-called-once
  43              	@ -finline-small-functions -fipa-bit-cp -fipa-cp -fipa-icf
  44              	@ -fipa-icf-functions -fipa-icf-variables -fipa-profile -fipa-pure-const
  45              	@ -fipa-ra -fipa-reference -fipa-reference-addressable -fipa-sra
  46              	@ -fipa-stack-alignment -fipa-vrp -fira-hoist-pressure
  47              	@ -fira-share-save-slots -fira-share-spill-slots
  48              	@ -fisolate-erroneous-paths-dereference -fivopts -fkeep-static-consts
  49              	@ -fleading-underscore -flifetime-dse -flra-remat -fmath-errno
  50              	@ -fmerge-constants -fmerge-debug-strings -fmove-loop-invariants
  51              	@ -fomit-frame-pointer -foptimize-sibling-calls -foptimize-strlen
  52              	@ -fpartial-inlining -fpeephole -fpeephole2 -fplt -fprefetch-loop-arrays
  53              	@ -freg-struct-return -freorder-blocks -freorder-functions
  54              	@ -frerun-cse-after-loop -fsched-critical-path-heuristic
  55              	@ -fsched-dep-count-heuristic -fsched-group-heuristic -fsched-interblock
  56              	@ -fsched-last-insn-heuristic -fsched-pressure -fsched-rank-heuristic
  57              	@ -fsched-spec -fsched-spec-insn-heuristic -fsched-stalled-insns-dep
ARM GAS  /tmp/ccwJ62Vf.s 			page 2


  58              	@ -fschedule-insns -fschedule-insns2 -fsection-anchors
  59              	@ -fsemantic-interposition -fshow-column -fshrink-wrap
  60              	@ -fshrink-wrap-separate -fsigned-zeros -fsplit-ivs-in-unroller
  61              	@ -fsplit-wide-types -fssa-backprop -fssa-phiopt -fstdarg-opt
  62              	@ -fstore-merging -fstrict-aliasing -fstrict-volatile-bitfields
  63              	@ -fsync-libcalls -fthread-jumps -ftoplevel-reorder -ftrapping-math
  64              	@ -ftree-bit-ccp -ftree-builtin-call-dce -ftree-ccp -ftree-ch
  65              	@ -ftree-coalesce-vars -ftree-copy-prop -ftree-cselim -ftree-dce
  66              	@ -ftree-dominator-opts -ftree-dse -ftree-forwprop -ftree-fre
  67              	@ -ftree-loop-distribute-patterns -ftree-loop-if-convert -ftree-loop-im
  68              	@ -ftree-loop-ivcanon -ftree-loop-optimize -ftree-parallelize-loops=
  69              	@ -ftree-phiprop -ftree-pre -ftree-pta -ftree-reassoc -ftree-scev-cprop
  70              	@ -ftree-sink -ftree-slsr -ftree-sra -ftree-switch-conversion
  71              	@ -ftree-tail-merge -ftree-ter -ftree-vrp -funit-at-a-time -fvar-tracking
  72              	@ -fvar-tracking-assignments -fverbose-asm -fzero-initialized-in-bss
  73              	@ -masm-syntax-unified -mbe32 -mlittle-endian -mpic-data-is-text-relative
  74              	@ -msched-prolog -mthumb -munaligned-access -mvectorize-with-neon-quad
  75              	@ -mword-relocations
  76              	
  77              		.text
  78              	.Ltext0:
  79              		.cfi_sections	.debug_frame
  80              		.section	.text.pdantler_debounce_input,"ax",%progbits
  81              		.align	1
  82              		.p2align 4,,15
  83              		.global	pdantler_debounce_input
  84              		.arch armv7e-m
  85              		.syntax unified
  86              		.thumb
  87              		.thumb_func
  88              		.fpu fpv5-sp-d16
  89              		.type	pdantler_debounce_input, %function
  90              	pdantler_debounce_input:
  91              	.LVL0:
  92              	.LFB30:
  93              		.file 1 "src/pdantler/utils.c"
   1:src/pdantler/utils.c **** /** This file is managed by pdantler.
   2:src/pdantler/utils.c **** 
   3:src/pdantler/utils.c ****     Any changes you make to it will be overwritten next time pdantler is run.
   4:src/pdantler/utils.c **** */
   5:src/pdantler/utils.c **** 
   6:src/pdantler/utils.c **** #include "../common.h"
   7:src/pdantler/utils.c **** 
   8:src/pdantler/utils.c **** /** Use the settings on the debouncer to debounce any controls. This turns a
   9:src/pdantler/utils.c ****  * continuous button press into a discrete one */
  10:src/pdantler/utils.c **** PDButtons pdantler_debounce_input(PlaydateAPI *pd, Debouncer *debouncer) {
  94              		.loc 1 10 74 view -0
  95              		.cfi_startproc
  96              		@ args = 0, pretend = 0, frame = 8
  97              		@ frame_needed = 0, uses_anonymous_args = 0
  11:src/pdantler/utils.c ****   PDButtons current;
  98              		.loc 1 11 3 view .LVU1
  12:src/pdantler/utils.c ****   pd->system->getButtonState(&current, NULL, NULL);
  99              		.loc 1 12 3 view .LVU2
 100              	@ src/pdantler/utils.c:10: PDButtons pdantler_debounce_input(PlaydateAPI *pd, Debouncer *debouncer)
  10:src/pdantler/utils.c ****   PDButtons current;
 101              		.loc 1 10 74 is_stmt 0 view .LVU3
ARM GAS  /tmp/ccwJ62Vf.s 			page 3


 102 0000 30B5     		push	{r4, r5, lr}	@
 103              	.LCFI0:
 104              		.cfi_def_cfa_offset 12
 105              		.cfi_offset 4, -12
 106              		.cfi_offset 5, -8
 107              		.cfi_offset 14, -4
 108 0002 0546     		mov	r5, r0	@ tmp142, pd
 109 0004 83B0     		sub	sp, sp, #12	@,,
 110              	.LCFI1:
 111              		.cfi_def_cfa_offset 24
 112              	@ src/pdantler/utils.c:12:   pd->system->getButtonState(&current, NULL, NULL);
 113              		.loc 1 12 3 view .LVU4
 114 0006 0022     		movs	r2, #0	@,
 115              	@ src/pdantler/utils.c:10: PDButtons pdantler_debounce_input(PlaydateAPI *pd, Debouncer *debouncer)
  10:src/pdantler/utils.c ****   PDButtons current;
 116              		.loc 1 10 74 view .LVU5
 117 0008 0C46     		mov	r4, r1	@ debouncer, tmp143
 118              	@ src/pdantler/utils.c:12:   pd->system->getButtonState(&current, NULL, NULL);
 119              		.loc 1 12 13 view .LVU6
 120 000a 2B68     		ldr	r3, [r5]	@ pd_19(D)->system, pd_19(D)->system
 121              	@ src/pdantler/utils.c:12:   pd->system->getButtonState(&current, NULL, NULL);
 122              		.loc 1 12 3 view .LVU7
 123 000c 0DF10700 		add	r0, sp, #7	@,,
 124              	.LVL1:
 125              		.loc 1 12 3 view .LVU8
 126 0010 1146     		mov	r1, r2	@,
 127              	.LVL2:
 128              		.loc 1 12 3 view .LVU9
 129 0012 5B6A     		ldr	r3, [r3, #36]	@ _1->getButtonState, _1->getButtonState
 130 0014 9847     		blx	r3		@ _1->getButtonState
 131              	.LVL3:
  13:src/pdantler/utils.c ****   if (current == debouncer->last_buttons &&
 132              		.loc 1 13 3 is_stmt 1 view .LVU10
 133              	@ src/pdantler/utils.c:13:   if (current == debouncer->last_buttons &&
 134              		.loc 1 13 15 is_stmt 0 view .LVU11
 135 0016 9DF80730 		ldrb	r3, [sp, #7]	@ zero_extendqisi2	@ current.0_4, current
 136              	@ src/pdantler/utils.c:13:   if (current == debouncer->last_buttons &&
 137              		.loc 1 13 6 view .LVU12
 138 001a 2278     		ldrb	r2, [r4]	@ zero_extendqisi2	@ debouncer_21(D)->last_buttons, debouncer_21(D)->last_buttons
 139 001c 9A42     		cmp	r2, r3	@ debouncer_21(D)->last_buttons, current.0_4
 140 001e 0BD0     		beq	.L7		@,
 141              	.L2:
  14:src/pdantler/utils.c ****       pd->system->getCurrentTimeMilliseconds() < debouncer->debounce_time) {
  15:src/pdantler/utils.c ****     // If button presses unchanged, act as if nothing is being pressed
  16:src/pdantler/utils.c ****     return 0;
  17:src/pdantler/utils.c ****   }
  18:src/pdantler/utils.c ****   debouncer->last_buttons = current;
 142              		.loc 1 18 3 is_stmt 1 view .LVU13
 143              	@ src/pdantler/utils.c:18:   debouncer->last_buttons = current;
 144              		.loc 1 18 27 is_stmt 0 view .LVU14
 145 0020 2370     		strb	r3, [r4]	@ current.0_4, debouncer_21(D)->last_buttons
  19:src/pdantler/utils.c ****   debouncer->debounce_time =
 146              		.loc 1 19 3 is_stmt 1 view .LVU15
 147              	@ src/pdantler/utils.c:20:       pd->system->getCurrentTimeMilliseconds() + debouncer->delay;
  20:src/pdantler/utils.c ****       pd->system->getCurrentTimeMilliseconds() + debouncer->delay;
 148              		.loc 1 20 17 is_stmt 0 view .LVU16
 149 0022 2B68     		ldr	r3, [r5]	@ pd_19(D)->system, pd_19(D)->system
ARM GAS  /tmp/ccwJ62Vf.s 			page 4


 150              	@ src/pdantler/utils.c:20:       pd->system->getCurrentTimeMilliseconds() + debouncer->delay;
 151              		.loc 1 20 7 view .LVU17
 152 0024 5B69     		ldr	r3, [r3, #20]	@ _10->getCurrentTimeMilliseconds, _10->getCurrentTimeMilliseconds
 153 0026 9847     		blx	r3		@ _10->getCurrentTimeMilliseconds
 154              	.LVL4:
 155              	@ src/pdantler/utils.c:20:       pd->system->getCurrentTimeMilliseconds() + debouncer->delay;
 156              		.loc 1 20 48 view .LVU18
 157 0028 A368     		ldr	r3, [r4, #8]	@ debouncer_21(D)->delay, debouncer_21(D)->delay
 158              	@ src/pdantler/utils.c:20:       pd->system->getCurrentTimeMilliseconds() + debouncer->delay;
 159              		.loc 1 20 7 view .LVU19
 160 002a 0246     		mov	r2, r0	@ tmp145,
 161              	@ src/pdantler/utils.c:22:   return current;
  21:src/pdantler/utils.c **** 
  22:src/pdantler/utils.c ****   return current;
 162              		.loc 1 22 10 view .LVU20
 163 002c 9DF80700 		ldrb	r0, [sp, #7]	@ zero_extendqisi2	@ <retval>, current
 164              	@ src/pdantler/utils.c:20:       pd->system->getCurrentTimeMilliseconds() + debouncer->delay;
  20:src/pdantler/utils.c ****       pd->system->getCurrentTimeMilliseconds() + debouncer->delay;
 165              		.loc 1 20 48 view .LVU21
 166 0030 1344     		add	r3, r3, r2	@ tmp139, tmp145
 167              	@ src/pdantler/utils.c:19:   debouncer->debounce_time =
  19:src/pdantler/utils.c ****       pd->system->getCurrentTimeMilliseconds() + debouncer->delay;
 168              		.loc 1 19 28 view .LVU22
 169 0032 6360     		str	r3, [r4, #4]	@ tmp139, debouncer_21(D)->debounce_time
 170              		.loc 1 22 3 is_stmt 1 view .LVU23
 171              	@ src/pdantler/utils.c:23: }
  23:src/pdantler/utils.c **** }
 172              		.loc 1 23 1 is_stmt 0 view .LVU24
 173 0034 03B0     		add	sp, sp, #12	@,,
 174              	.LCFI2:
 175              		.cfi_remember_state
 176              		.cfi_def_cfa_offset 12
 177              		@ sp needed	@
 178 0036 30BD     		pop	{r4, r5, pc}	@
 179              	.LVL5:
 180              	.L7:
 181              	.LCFI3:
 182              		.cfi_restore_state
 183              	@ src/pdantler/utils.c:14:       pd->system->getCurrentTimeMilliseconds() < debouncer->debounce_tim
  14:src/pdantler/utils.c ****     // If button presses unchanged, act as if nothing is being pressed
 184              		.loc 1 14 17 discriminator 1 view .LVU25
 185 0038 2B68     		ldr	r3, [r5]	@ pd_19(D)->system, pd_19(D)->system
 186              	@ src/pdantler/utils.c:14:       pd->system->getCurrentTimeMilliseconds() < debouncer->debounce_tim
  14:src/pdantler/utils.c ****     // If button presses unchanged, act as if nothing is being pressed
 187              		.loc 1 14 7 discriminator 1 view .LVU26
 188 003a 5B69     		ldr	r3, [r3, #20]	@ _5->getCurrentTimeMilliseconds, _5->getCurrentTimeMilliseconds
 189 003c 9847     		blx	r3		@ _5->getCurrentTimeMilliseconds
 190              	.LVL6:
 191              	@ src/pdantler/utils.c:13:   if (current == debouncer->last_buttons &&
  13:src/pdantler/utils.c ****       pd->system->getCurrentTimeMilliseconds() < debouncer->debounce_time) {
 192              		.loc 1 13 42 discriminator 1 view .LVU27
 193 003e 6368     		ldr	r3, [r4, #4]	@ debouncer_21(D)->debounce_time, debouncer_21(D)->debounce_time
 194 0040 9842     		cmp	r0, r3	@ tmp144, debouncer_21(D)->debounce_time
 195 0042 02D3     		bcc	.L4		@,
 196              	@ src/pdantler/utils.c:18:   debouncer->last_buttons = current;
  18:src/pdantler/utils.c ****   debouncer->debounce_time =
 197              		.loc 1 18 27 view .LVU28
ARM GAS  /tmp/ccwJ62Vf.s 			page 5


 198 0044 9DF80730 		ldrb	r3, [sp, #7]	@ zero_extendqisi2	@ current.0_4, current
 199 0048 EAE7     		b	.L2		@
 200              	.L4:
 201              	@ src/pdantler/utils.c:16:     return 0;
  16:src/pdantler/utils.c ****   }
 202              		.loc 1 16 12 view .LVU29
 203 004a 0020     		movs	r0, #0	@ <retval>,
 204              	@ src/pdantler/utils.c:23: }
 205              		.loc 1 23 1 view .LVU30
 206 004c 03B0     		add	sp, sp, #12	@,,
 207              	.LCFI4:
 208              		.cfi_def_cfa_offset 12
 209              		@ sp needed	@
 210 004e 30BD     		pop	{r4, r5, pc}	@
 211              		.loc 1 23 1 view .LVU31
 212              		.cfi_endproc
 213              	.LFE30:
 214              		.size	pdantler_debounce_input, .-pdantler_debounce_input
 215              		.section	.text.pdantler_channel_start,"ax",%progbits
 216              		.align	1
 217              		.p2align 4,,15
 218              		.global	pdantler_channel_start
 219              		.syntax unified
 220              		.thumb
 221              		.thumb_func
 222              		.fpu fpv5-sp-d16
 223              		.type	pdantler_channel_start, %function
 224              	pdantler_channel_start:
 225              	.LVL7:
 226              	.LFB32:
  24:src/pdantler/utils.c **** 
  25:src/pdantler/utils.c **** static SamplePlayer *pdantler_get_player(GameContext *game,
  26:src/pdantler/utils.c ****                                          GameSampleChannel channel) {
  27:src/pdantler/utils.c ****   switch (channel) {
  28:src/pdantler/utils.c ****   case CHANNEL_MUSIC:
  29:src/pdantler/utils.c ****     return game->music_player;
  30:src/pdantler/utils.c ****     break;
  31:src/pdantler/utils.c ****   case CHANNEL_SFX_1:
  32:src/pdantler/utils.c ****     return game->sfx_1_player;
  33:src/pdantler/utils.c ****     break;
  34:src/pdantler/utils.c ****   case CHANNEL_SFX_2:
  35:src/pdantler/utils.c ****     return game->sfx_2_player;
  36:src/pdantler/utils.c ****     break;
  37:src/pdantler/utils.c ****   };
  38:src/pdantler/utils.c **** 
  39:src/pdantler/utils.c ****   return NULL;
  40:src/pdantler/utils.c **** }
  41:src/pdantler/utils.c **** 
  42:src/pdantler/utils.c **** void pdantler_channel_start(GameContext *game, AudioSample *sample,
  43:src/pdantler/utils.c ****                             GameSampleChannel channel) {
 227              		.loc 1 43 56 is_stmt 1 view -0
 228              		.cfi_startproc
 229              		@ args = 0, pretend = 0, frame = 0
 230              		@ frame_needed = 0, uses_anonymous_args = 0
  44:src/pdantler/utils.c ****   PlaydateAPI *pd = game->pd;
 231              		.loc 1 44 3 view .LVU33
 232              	.LBB8:
ARM GAS  /tmp/ccwJ62Vf.s 			page 6


 233              	.LBB9:
 234              	@ src/pdantler/utils.c:27:   switch (channel) {
  27:src/pdantler/utils.c ****   case CHANNEL_MUSIC:
 235              		.loc 1 27 3 is_stmt 0 view .LVU34
 236 0000 012A     		cmp	r2, #1	@ channel,
 237              	.LBE9:
 238              	.LBE8:
 239              	@ src/pdantler/utils.c:43:                             GameSampleChannel channel) {
  43:src/pdantler/utils.c ****   PlaydateAPI *pd = game->pd;
 240              		.loc 1 43 56 view .LVU35
 241 0002 70B5     		push	{r4, r5, r6, lr}	@
 242              	.LCFI5:
 243              		.cfi_def_cfa_offset 16
 244              		.cfi_offset 4, -16
 245              		.cfi_offset 5, -12
 246              		.cfi_offset 6, -8
 247              		.cfi_offset 14, -4
 248              	@ src/pdantler/utils.c:43:                             GameSampleChannel channel) {
  43:src/pdantler/utils.c ****   PlaydateAPI *pd = game->pd;
 249              		.loc 1 43 56 view .LVU36
 250 0004 0D46     		mov	r5, r1	@ sample, tmp146
 251              	@ src/pdantler/utils.c:44:   PlaydateAPI *pd = game->pd;
 252              		.loc 1 44 16 view .LVU37
 253 0006 0668     		ldr	r6, [r0]	@ pd, game_18(D)->pd
 254              	.LVL8:
  45:src/pdantler/utils.c ****   SamplePlayer *player = pdantler_get_player(game, channel);
 255              		.loc 1 45 3 is_stmt 1 view .LVU38
 256              	.LBB14:
 257              	.LBI8:
  25:src/pdantler/utils.c ****                                          GameSampleChannel channel) {
 258              		.loc 1 25 22 view .LVU39
 259              	.LBB10:
  27:src/pdantler/utils.c ****   case CHANNEL_MUSIC:
 260              		.loc 1 27 3 view .LVU40
 261 0008 28D0     		beq	.L9		@,
 262 000a 022A     		cmp	r2, #2	@ channel,
 263 000c 24D0     		beq	.L10		@,
 264 000e 82B1     		cbz	r2, .L23	@ channel,
 265 0010 0024     		movs	r4, #0	@ _44,
 266              	.LVL9:
 267              	.L11:
  27:src/pdantler/utils.c ****   case CHANNEL_MUSIC:
 268              		.loc 1 27 3 is_stmt 0 view .LVU41
 269              	.LBE10:
 270              	.LBE14:
  46:src/pdantler/utils.c ****   if (channel == CHANNEL_MUSIC && !game->music_active) {
  47:src/pdantler/utils.c ****     return;
  48:src/pdantler/utils.c ****   }
  49:src/pdantler/utils.c ****   if (player && pd->sound->sampleplayer->isPlaying(player)) {
  50:src/pdantler/utils.c ****     pd->sound->sampleplayer->stop(player);
  51:src/pdantler/utils.c ****   }
  52:src/pdantler/utils.c ****   pd->sound->sampleplayer->setSample(player, sample);
 271              		.loc 1 52 3 is_stmt 1 view .LVU42
 272              	@ src/pdantler/utils.c:52:   pd->sound->sampleplayer->setSample(player, sample);
 273              		.loc 1 52 12 is_stmt 0 view .LVU43
 274 0012 7369     		ldr	r3, [r6, #20]	@ pd_19->sound, pd_19->sound
 275              	@ src/pdantler/utils.c:52:   pd->sound->sampleplayer->setSample(player, sample);
ARM GAS  /tmp/ccwJ62Vf.s 			page 7


 276              		.loc 1 52 3 view .LVU44
 277 0014 2946     		mov	r1, r5	@, sample
 278 0016 2046     		mov	r0, r4	@, _44
 279              	@ src/pdantler/utils.c:52:   pd->sound->sampleplayer->setSample(player, sample);
 280              		.loc 1 52 26 view .LVU45
 281 0018 DB68     		ldr	r3, [r3, #12]	@ _9->sampleplayer, _9->sampleplayer
 282              	@ src/pdantler/utils.c:52:   pd->sound->sampleplayer->setSample(player, sample);
 283              		.loc 1 52 3 view .LVU46
 284 001a 9B68     		ldr	r3, [r3, #8]	@ _10->setSample, _10->setSample
 285 001c 9847     		blx	r3		@ _10->setSample
 286              	.LVL10:
  53:src/pdantler/utils.c ****   pd->sound->sampleplayer->play(player, 1, 1.0);
 287              		.loc 1 53 3 is_stmt 1 view .LVU47
 288              	@ src/pdantler/utils.c:53:   pd->sound->sampleplayer->play(player, 1, 1.0);
 289              		.loc 1 53 12 is_stmt 0 view .LVU48
 290 001e 7369     		ldr	r3, [r6, #20]	@ pd_19->sound, pd_19->sound
 291              	@ src/pdantler/utils.c:53:   pd->sound->sampleplayer->play(player, 1, 1.0);
 292              		.loc 1 53 3 view .LVU49
 293 0020 2046     		mov	r0, r4	@, _44
 294 0022 B7EE000A 		vmov.f32	s0, #1.0e+0	@,
 295              	@ src/pdantler/utils.c:53:   pd->sound->sampleplayer->play(player, 1, 1.0);
 296              		.loc 1 53 26 view .LVU50
 297 0026 DB68     		ldr	r3, [r3, #12]	@ _12->sampleplayer, _12->sampleplayer
 298              	@ src/pdantler/utils.c:53:   pd->sound->sampleplayer->play(player, 1, 1.0);
 299              		.loc 1 53 3 view .LVU51
 300 0028 0121     		movs	r1, #1	@,
 301 002a DB68     		ldr	r3, [r3, #12]	@ _13->play, _13->play
 302              	@ src/pdantler/utils.c:54: }
  54:src/pdantler/utils.c **** }
 303              		.loc 1 54 1 view .LVU52
 304 002c BDE87040 		pop	{r4, r5, r6, lr}	@
 305              	.LCFI6:
 306              		.cfi_remember_state
 307              		.cfi_restore 14
 308              		.cfi_restore 6
 309              		.cfi_restore 5
 310              		.cfi_restore 4
 311              		.cfi_def_cfa_offset 0
 312              	.LVL11:
 313              	@ src/pdantler/utils.c:53:   pd->sound->sampleplayer->play(player, 1, 1.0);
  53:src/pdantler/utils.c ****   pd->sound->sampleplayer->play(player, 1, 1.0);
 314              		.loc 1 53 3 view .LVU53
 315 0030 1847     		bx	r3		@ _13->play
 316              	.LVL12:
 317              	.L23:
 318              	.LCFI7:
 319              		.cfi_restore_state
 320              	.LBB15:
 321              	.LBB11:
  29:src/pdantler/utils.c ****     break;
 322              		.loc 1 29 5 is_stmt 1 view .LVU54
 323              	.LBE11:
 324              	.LBE15:
 325              	@ src/pdantler/utils.c:46:   if (channel == CHANNEL_MUSIC && !game->music_active) {
  46:src/pdantler/utils.c ****     return;
 326              		.loc 1 46 32 is_stmt 0 view .LVU55
 327 0032 90F82830 		ldrb	r3, [r0, #40]	@ zero_extendqisi2	@ game_18(D)->music_active, game_18(D)->music_active
ARM GAS  /tmp/ccwJ62Vf.s 			page 8


 328              	.LBB16:
 329              	.LBB12:
 330              	@ src/pdantler/utils.c:29:     return game->music_player;
  29:src/pdantler/utils.c ****     break;
 331              		.loc 1 29 16 view .LVU56
 332 0036 C469     		ldr	r4, [r0, #28]	@ _44, game_18(D)->music_player
 333              	.LVL13:
  29:src/pdantler/utils.c ****     break;
 334              		.loc 1 29 16 view .LVU57
 335              	.LBE12:
 336              	.LBE16:
  46:src/pdantler/utils.c ****     return;
 337              		.loc 1 46 3 is_stmt 1 view .LVU58
 338              	@ src/pdantler/utils.c:46:   if (channel == CHANNEL_MUSIC && !game->music_active) {
  46:src/pdantler/utils.c ****     return;
 339              		.loc 1 46 32 is_stmt 0 view .LVU59
 340 0038 93B1     		cbz	r3, .L24	@ game_18(D)->music_active,
 341              	.LVL14:
 342              	.L12:
  49:src/pdantler/utils.c ****     pd->sound->sampleplayer->stop(player);
 343              		.loc 1 49 3 is_stmt 1 view .LVU60
 344              	@ src/pdantler/utils.c:49:   if (player && pd->sound->sampleplayer->isPlaying(player)) {
  49:src/pdantler/utils.c ****     pd->sound->sampleplayer->stop(player);
 345              		.loc 1 49 6 is_stmt 0 view .LVU61
 346 003a 002C     		cmp	r4, #0	@ _44
 347 003c E9D0     		beq	.L11	@
 348              	@ src/pdantler/utils.c:49:   if (player && pd->sound->sampleplayer->isPlaying(player)) {
  49:src/pdantler/utils.c ****     pd->sound->sampleplayer->stop(player);
 349              		.loc 1 49 26 discriminator 1 view .LVU62
 350 003e 7369     		ldr	r3, [r6, #20]	@ pd_19->sound, pd_19->sound
 351              	@ src/pdantler/utils.c:49:   if (player && pd->sound->sampleplayer->isPlaying(player)) {
  49:src/pdantler/utils.c ****     pd->sound->sampleplayer->stop(player);
 352              		.loc 1 49 17 discriminator 1 view .LVU63
 353 0040 2046     		mov	r0, r4	@, _44
 354              	.LVL15:
 355              	@ src/pdantler/utils.c:49:   if (player && pd->sound->sampleplayer->isPlaying(player)) {
  49:src/pdantler/utils.c ****     pd->sound->sampleplayer->stop(player);
 356              		.loc 1 49 40 discriminator 1 view .LVU64
 357 0042 DB68     		ldr	r3, [r3, #12]	@ _2->sampleplayer, _2->sampleplayer
 358              	@ src/pdantler/utils.c:49:   if (player && pd->sound->sampleplayer->isPlaying(player)) {
  49:src/pdantler/utils.c ****     pd->sound->sampleplayer->stop(player);
 359              		.loc 1 49 17 discriminator 1 view .LVU65
 360 0044 1B69     		ldr	r3, [r3, #16]	@ _3->isPlaying, _3->isPlaying
 361 0046 9847     		blx	r3		@ _3->isPlaying
 362              	.LVL16:
 363              	@ src/pdantler/utils.c:49:   if (player && pd->sound->sampleplayer->isPlaying(player)) {
  49:src/pdantler/utils.c ****     pd->sound->sampleplayer->stop(player);
 364              		.loc 1 49 14 discriminator 1 view .LVU66
 365 0048 0028     		cmp	r0, #0	@ tmp148
 366 004a E2D0     		beq	.L11	@
  50:src/pdantler/utils.c ****   }
 367              		.loc 1 50 5 is_stmt 1 view .LVU67
 368              	@ src/pdantler/utils.c:50:     pd->sound->sampleplayer->stop(player);
  50:src/pdantler/utils.c ****   }
 369              		.loc 1 50 14 is_stmt 0 view .LVU68
 370 004c 7369     		ldr	r3, [r6, #20]	@ pd_19->sound, pd_19->sound
 371              	@ src/pdantler/utils.c:50:     pd->sound->sampleplayer->stop(player);
ARM GAS  /tmp/ccwJ62Vf.s 			page 9


  50:src/pdantler/utils.c ****   }
 372              		.loc 1 50 5 view .LVU69
 373 004e 2046     		mov	r0, r4	@, _44
 374              	@ src/pdantler/utils.c:50:     pd->sound->sampleplayer->stop(player);
  50:src/pdantler/utils.c ****   }
 375              		.loc 1 50 28 view .LVU70
 376 0050 DB68     		ldr	r3, [r3, #12]	@ _6->sampleplayer, _6->sampleplayer
 377              	@ src/pdantler/utils.c:50:     pd->sound->sampleplayer->stop(player);
  50:src/pdantler/utils.c ****   }
 378              		.loc 1 50 5 view .LVU71
 379 0052 5B69     		ldr	r3, [r3, #20]	@ _7->stop, _7->stop
 380 0054 9847     		blx	r3		@ _7->stop
 381              	.LVL17:
 382 0056 DCE7     		b	.L11		@
 383              	.LVL18:
 384              	.L10:
 385              	.LBB17:
 386              	.LBB13:
  33:src/pdantler/utils.c ****   case CHANNEL_SFX_2:
 387              		.loc 1 33 5 is_stmt 1 view .LVU72
  35:src/pdantler/utils.c ****     break;
 388              		.loc 1 35 5 view .LVU73
 389              	@ src/pdantler/utils.c:35:     return game->sfx_2_player;
  35:src/pdantler/utils.c ****     break;
 390              		.loc 1 35 16 is_stmt 0 view .LVU74
 391 0058 446A     		ldr	r4, [r0, #36]	@ _44, game_18(D)->sfx_2_player
 392 005a EEE7     		b	.L12		@
 393              	.L9:
  30:src/pdantler/utils.c ****   case CHANNEL_SFX_1:
 394              		.loc 1 30 5 is_stmt 1 view .LVU75
  32:src/pdantler/utils.c ****     break;
 395              		.loc 1 32 5 view .LVU76
 396              	@ src/pdantler/utils.c:32:     return game->sfx_1_player;
  32:src/pdantler/utils.c ****     break;
 397              		.loc 1 32 16 is_stmt 0 view .LVU77
 398 005c 046A     		ldr	r4, [r0, #32]	@ _44, game_18(D)->sfx_1_player
 399 005e ECE7     		b	.L12		@
 400              	.LVL19:
 401              	.L24:
  32:src/pdantler/utils.c ****     break;
 402              		.loc 1 32 16 view .LVU78
 403              	.LBE13:
 404              	.LBE17:
 405              	@ src/pdantler/utils.c:54: }
 406              		.loc 1 54 1 view .LVU79
 407 0060 70BD     		pop	{r4, r5, r6, pc}	@
 408              		.loc 1 54 1 view .LVU80
 409              		.cfi_endproc
 410              	.LFE32:
 411              		.size	pdantler_channel_start, .-pdantler_channel_start
 412 0062 00BF     		.section	.text.pdantler_channel_stop,"ax",%progbits
 413              		.align	1
 414              		.p2align 4,,15
 415              		.global	pdantler_channel_stop
 416              		.syntax unified
 417              		.thumb
 418              		.thumb_func
ARM GAS  /tmp/ccwJ62Vf.s 			page 10


 419              		.fpu fpv5-sp-d16
 420              		.type	pdantler_channel_stop, %function
 421              	pdantler_channel_stop:
 422              	.LVL20:
 423              	.LFB33:
  55:src/pdantler/utils.c **** 
  56:src/pdantler/utils.c **** void pdantler_channel_stop(GameContext *game, GameSampleChannel channel) {
 424              		.loc 1 56 74 is_stmt 1 view -0
 425              		.cfi_startproc
 426              		@ args = 0, pretend = 0, frame = 0
 427              		@ frame_needed = 0, uses_anonymous_args = 0
  57:src/pdantler/utils.c ****   PlaydateAPI *pd = game->pd;
 428              		.loc 1 57 3 view .LVU82
  58:src/pdantler/utils.c ****   SamplePlayer *player = pdantler_get_player(game, channel);
 429              		.loc 1 58 3 view .LVU83
 430              	.LBB18:
 431              	.LBI18:
  25:src/pdantler/utils.c ****                                          GameSampleChannel channel) {
 432              		.loc 1 25 22 view .LVU84
 433              	.LBB19:
  27:src/pdantler/utils.c ****   case CHANNEL_MUSIC:
 434              		.loc 1 27 3 view .LVU85
 435 0000 0129     		cmp	r1, #1	@ channel,
 436              	.LBE19:
 437              	.LBE18:
 438              	@ src/pdantler/utils.c:56: void pdantler_channel_stop(GameContext *game, GameSampleChannel channel)
  56:src/pdantler/utils.c ****   PlaydateAPI *pd = game->pd;
 439              		.loc 1 56 74 is_stmt 0 view .LVU86
 440 0002 70B5     		push	{r4, r5, r6, lr}	@
 441              	.LCFI8:
 442              		.cfi_def_cfa_offset 16
 443              		.cfi_offset 4, -16
 444              		.cfi_offset 5, -12
 445              		.cfi_offset 6, -8
 446              		.cfi_offset 14, -4
 447              	.LBB23:
 448              	.LBB20:
 449              	@ src/pdantler/utils.c:27:   switch (channel) {
  27:src/pdantler/utils.c ****   case CHANNEL_MUSIC:
 450              		.loc 1 27 3 view .LVU87
 451 0004 17D0     		beq	.L26		@,
 452 0006 0229     		cmp	r1, #2	@ channel,
 453 0008 13D0     		beq	.L27		@,
 454 000a 01B1     		cbz	r1, .L36	@ channel,
 455              	.LVL21:
 456              	.L25:
  27:src/pdantler/utils.c ****   case CHANNEL_MUSIC:
 457              		.loc 1 27 3 view .LVU88
 458              	.LBE20:
 459              	.LBE23:
 460              	@ src/pdantler/utils.c:63: }
  59:src/pdantler/utils.c **** 
  60:src/pdantler/utils.c ****   if (player && pd->sound->sampleplayer->isPlaying(player)) {
  61:src/pdantler/utils.c ****     pd->sound->sampleplayer->stop(player);
  62:src/pdantler/utils.c ****   }
  63:src/pdantler/utils.c **** }
 461              		.loc 1 63 1 view .LVU89
ARM GAS  /tmp/ccwJ62Vf.s 			page 11


 462 000c 70BD     		pop	{r4, r5, r6, pc}	@
 463              	.LVL22:
 464              	.L36:
 465              	.LBB24:
 466              	.LBB21:
  29:src/pdantler/utils.c ****     break;
 467              		.loc 1 29 5 is_stmt 1 view .LVU90
 468              	@ src/pdantler/utils.c:29:     return game->music_player;
  29:src/pdantler/utils.c ****     break;
 469              		.loc 1 29 16 is_stmt 0 view .LVU91
 470 000e C469     		ldr	r4, [r0, #28]	@ _17, game_10(D)->music_player
 471              	.L29:
 472              	.LVL23:
  29:src/pdantler/utils.c ****     break;
 473              		.loc 1 29 16 view .LVU92
 474              	.LBE21:
 475              	.LBE24:
  60:src/pdantler/utils.c ****     pd->sound->sampleplayer->stop(player);
 476              		.loc 1 60 3 is_stmt 1 view .LVU93
 477              	@ src/pdantler/utils.c:60:   if (player && pd->sound->sampleplayer->isPlaying(player)) {
  60:src/pdantler/utils.c ****     pd->sound->sampleplayer->stop(player);
 478              		.loc 1 60 6 is_stmt 0 view .LVU94
 479 0010 002C     		cmp	r4, #0	@ _17
 480 0012 FBD0     		beq	.L25	@
 481              	@ src/pdantler/utils.c:57:   PlaydateAPI *pd = game->pd;
  57:src/pdantler/utils.c ****   SamplePlayer *player = pdantler_get_player(game, channel);
 482              		.loc 1 57 16 discriminator 1 view .LVU95
 483 0014 0568     		ldr	r5, [r0]	@ pd, game_10(D)->pd
 484              	@ src/pdantler/utils.c:60:   if (player && pd->sound->sampleplayer->isPlaying(player)) {
  60:src/pdantler/utils.c ****     pd->sound->sampleplayer->stop(player);
 485              		.loc 1 60 17 discriminator 1 view .LVU96
 486 0016 2046     		mov	r0, r4	@, _17
 487              	.LVL24:
 488              	@ src/pdantler/utils.c:60:   if (player && pd->sound->sampleplayer->isPlaying(player)) {
  60:src/pdantler/utils.c ****     pd->sound->sampleplayer->stop(player);
 489              		.loc 1 60 26 discriminator 1 view .LVU97
 490 0018 6B69     		ldr	r3, [r5, #20]	@ pd_11->sound, pd_11->sound
 491              	@ src/pdantler/utils.c:60:   if (player && pd->sound->sampleplayer->isPlaying(player)) {
  60:src/pdantler/utils.c ****     pd->sound->sampleplayer->stop(player);
 492              		.loc 1 60 40 discriminator 1 view .LVU98
 493 001a DB68     		ldr	r3, [r3, #12]	@ _1->sampleplayer, _1->sampleplayer
 494              	@ src/pdantler/utils.c:60:   if (player && pd->sound->sampleplayer->isPlaying(player)) {
  60:src/pdantler/utils.c ****     pd->sound->sampleplayer->stop(player);
 495              		.loc 1 60 17 discriminator 1 view .LVU99
 496 001c 1B69     		ldr	r3, [r3, #16]	@ _2->isPlaying, _2->isPlaying
 497 001e 9847     		blx	r3		@ _2->isPlaying
 498              	.LVL25:
 499              	@ src/pdantler/utils.c:60:   if (player && pd->sound->sampleplayer->isPlaying(player)) {
  60:src/pdantler/utils.c ****     pd->sound->sampleplayer->stop(player);
 500              		.loc 1 60 14 discriminator 1 view .LVU100
 501 0020 0028     		cmp	r0, #0	@ tmp132
 502 0022 F3D0     		beq	.L25	@
  61:src/pdantler/utils.c ****   }
 503              		.loc 1 61 5 is_stmt 1 view .LVU101
 504              	@ src/pdantler/utils.c:61:     pd->sound->sampleplayer->stop(player);
  61:src/pdantler/utils.c ****   }
 505              		.loc 1 61 14 is_stmt 0 view .LVU102
ARM GAS  /tmp/ccwJ62Vf.s 			page 12


 506 0024 6B69     		ldr	r3, [r5, #20]	@ pd_11->sound, pd_11->sound
 507              	@ src/pdantler/utils.c:61:     pd->sound->sampleplayer->stop(player);
  61:src/pdantler/utils.c ****   }
 508              		.loc 1 61 5 view .LVU103
 509 0026 2046     		mov	r0, r4	@, _17
 510              	@ src/pdantler/utils.c:61:     pd->sound->sampleplayer->stop(player);
  61:src/pdantler/utils.c ****   }
 511              		.loc 1 61 28 view .LVU104
 512 0028 DB68     		ldr	r3, [r3, #12]	@ _5->sampleplayer, _5->sampleplayer
 513              	@ src/pdantler/utils.c:63: }
 514              		.loc 1 63 1 view .LVU105
 515 002a BDE87040 		pop	{r4, r5, r6, lr}	@
 516              	.LCFI9:
 517              		.cfi_remember_state
 518              		.cfi_restore 14
 519              		.cfi_restore 6
 520              		.cfi_restore 5
 521              		.cfi_restore 4
 522              		.cfi_def_cfa_offset 0
 523              	.LVL26:
 524              	@ src/pdantler/utils.c:61:     pd->sound->sampleplayer->stop(player);
  61:src/pdantler/utils.c ****   }
 525              		.loc 1 61 5 view .LVU106
 526 002e 5B69     		ldr	r3, [r3, #20]	@ _6->stop, _6->stop
 527 0030 1847     		bx	r3	@ indirect register sibling call	@ _6->stop
 528              	.LVL27:
 529              	.L27:
 530              	.LCFI10:
 531              		.cfi_restore_state
 532              	.LBB25:
 533              	.LBB22:
  33:src/pdantler/utils.c ****   case CHANNEL_SFX_2:
 534              		.loc 1 33 5 is_stmt 1 view .LVU107
  35:src/pdantler/utils.c ****     break;
 535              		.loc 1 35 5 view .LVU108
 536              	@ src/pdantler/utils.c:35:     return game->sfx_2_player;
  35:src/pdantler/utils.c ****     break;
 537              		.loc 1 35 16 is_stmt 0 view .LVU109
 538 0032 446A     		ldr	r4, [r0, #36]	@ _17, game_10(D)->sfx_2_player
 539 0034 ECE7     		b	.L29		@
 540              	.L26:
  30:src/pdantler/utils.c ****   case CHANNEL_SFX_1:
 541              		.loc 1 30 5 is_stmt 1 view .LVU110
  32:src/pdantler/utils.c ****     break;
 542              		.loc 1 32 5 view .LVU111
 543              	@ src/pdantler/utils.c:32:     return game->sfx_1_player;
  32:src/pdantler/utils.c ****     break;
 544              		.loc 1 32 16 is_stmt 0 view .LVU112
 545 0036 046A     		ldr	r4, [r0, #32]	@ _17, game_10(D)->sfx_1_player
 546 0038 EAE7     		b	.L29		@
 547              	.LBE22:
 548              	.LBE25:
 549              		.cfi_endproc
 550              	.LFE33:
 551              		.size	pdantler_channel_stop, .-pdantler_channel_stop
 552 003a 00BF     		.section	.text.pdantler_channel_set_paused,"ax",%progbits
 553              		.align	1
ARM GAS  /tmp/ccwJ62Vf.s 			page 13


 554              		.p2align 4,,15
 555              		.global	pdantler_channel_set_paused
 556              		.syntax unified
 557              		.thumb
 558              		.thumb_func
 559              		.fpu fpv5-sp-d16
 560              		.type	pdantler_channel_set_paused, %function
 561              	pdantler_channel_set_paused:
 562              	.LVL28:
 563              	.LFB34:
  64:src/pdantler/utils.c **** 
  65:src/pdantler/utils.c **** void pdantler_channel_set_paused(GameContext *game, GameSampleChannel channel,
  66:src/pdantler/utils.c ****                                  bool paused) {
 564              		.loc 1 66 47 is_stmt 1 view -0
 565              		.cfi_startproc
 566              		@ args = 0, pretend = 0, frame = 0
 567              		@ frame_needed = 0, uses_anonymous_args = 0
 568              		@ link register save eliminated.
  67:src/pdantler/utils.c ****   PlaydateAPI *pd = game->pd;
 569              		.loc 1 67 3 view .LVU114
  68:src/pdantler/utils.c ****   SamplePlayer *player = pdantler_get_player(game, channel);
 570              		.loc 1 68 3 view .LVU115
 571              	.LBB26:
 572              	.LBI26:
  25:src/pdantler/utils.c ****                                          GameSampleChannel channel) {
 573              		.loc 1 25 22 view .LVU116
 574              	.LBB27:
  27:src/pdantler/utils.c ****   case CHANNEL_MUSIC:
 575              		.loc 1 27 3 view .LVU117
 576 0000 0129     		cmp	r1, #1	@ channel,
 577 0002 03D0     		beq	.L38		@,
 578 0004 0229     		cmp	r1, #2	@ channel,
 579 0006 10D0     		beq	.L39		@,
 580 0008 69B1     		cbz	r1, .L48	@ channel,
 581              	.LVL29:
 582              	.L37:
  27:src/pdantler/utils.c ****   case CHANNEL_MUSIC:
 583              		.loc 1 27 3 is_stmt 0 view .LVU118
 584 000a 7047     		bx	lr	@
 585              	.LVL30:
 586              	.L38:
  30:src/pdantler/utils.c ****   case CHANNEL_SFX_1:
 587              		.loc 1 30 5 is_stmt 1 view .LVU119
  32:src/pdantler/utils.c ****     break;
 588              		.loc 1 32 5 view .LVU120
 589              	@ src/pdantler/utils.c:32:     return game->sfx_1_player;
  32:src/pdantler/utils.c ****     break;
 590              		.loc 1 32 16 is_stmt 0 view .LVU121
 591 000c 036A     		ldr	r3, [r0, #32]	@ _14, game_7(D)->sfx_1_player
 592              	.L41:
 593              	.LVL31:
  32:src/pdantler/utils.c ****     break;
 594              		.loc 1 32 16 view .LVU122
 595              	.LBE27:
 596              	.LBE26:
  69:src/pdantler/utils.c **** 
  70:src/pdantler/utils.c ****   if (player) {
ARM GAS  /tmp/ccwJ62Vf.s 			page 14


 597              		.loc 1 70 3 is_stmt 1 view .LVU123
 598              	@ src/pdantler/utils.c:70:   if (player) {
 599              		.loc 1 70 6 is_stmt 0 view .LVU124
 600 000e 002B     		cmp	r3, #0	@ _14
 601 0010 FBD0     		beq	.L37	@
  71:src/pdantler/utils.c ****     pd->sound->sampleplayer->setPaused(player, paused);
 602              		.loc 1 71 5 is_stmt 1 view .LVU125
 603 0012 1146     		mov	r1, r2	@, paused
 604              	.LVL32:
 605              	@ src/pdantler/utils.c:66:                                  bool paused) {
  66:src/pdantler/utils.c ****   PlaydateAPI *pd = game->pd;
 606              		.loc 1 66 47 is_stmt 0 view .LVU126
 607 0014 10B4     		push	{r4}	@
 608              	.LCFI11:
 609              		.cfi_def_cfa_offset 4
 610              		.cfi_offset 4, -4
 611              	@ src/pdantler/utils.c:71:     pd->sound->sampleplayer->setPaused(player, paused);
 612              		.loc 1 71 7 view .LVU127
 613 0016 0468     		ldr	r4, [r0]	@ game_7(D)->pd, game_7(D)->pd
 614              	@ src/pdantler/utils.c:71:     pd->sound->sampleplayer->setPaused(player, paused);
 615              		.loc 1 71 5 view .LVU128
 616 0018 1846     		mov	r0, r3	@, _14
 617              	.LVL33:
 618              	@ src/pdantler/utils.c:71:     pd->sound->sampleplayer->setPaused(player, paused);
 619              		.loc 1 71 14 view .LVU129
 620 001a 6369     		ldr	r3, [r4, #20]	@ pd_8->sound, pd_8->sound
 621              	.LVL34:
 622              	@ src/pdantler/utils.c:73: }
  72:src/pdantler/utils.c ****   }
  73:src/pdantler/utils.c **** }
 623              		.loc 1 73 1 view .LVU130
 624 001c 5DF8044B 		ldr	r4, [sp], #4	@,
 625              	.LCFI12:
 626              		.cfi_restore 4
 627              		.cfi_def_cfa_offset 0
 628              	@ src/pdantler/utils.c:71:     pd->sound->sampleplayer->setPaused(player, paused);
  71:src/pdantler/utils.c ****   }
 629              		.loc 1 71 28 view .LVU131
 630 0020 DB68     		ldr	r3, [r3, #12]	@ _1->sampleplayer, _1->sampleplayer
 631              	@ src/pdantler/utils.c:71:     pd->sound->sampleplayer->setPaused(player, paused);
  71:src/pdantler/utils.c ****   }
 632              		.loc 1 71 5 view .LVU132
 633 0022 1B6C     		ldr	r3, [r3, #64]	@ _2->setPaused, _2->setPaused
 634 0024 1847     		bx	r3	@ indirect register sibling call	@ _2->setPaused
 635              	.LVL35:
 636              	.L48:
 637              	.LBB29:
 638              	.LBB28:
  29:src/pdantler/utils.c ****     break;
 639              		.loc 1 29 5 is_stmt 1 view .LVU133
 640              	@ src/pdantler/utils.c:29:     return game->music_player;
  29:src/pdantler/utils.c ****     break;
 641              		.loc 1 29 16 is_stmt 0 view .LVU134
 642 0026 C369     		ldr	r3, [r0, #28]	@ _14, game_7(D)->music_player
 643 0028 F1E7     		b	.L41		@
 644              	.L39:
  33:src/pdantler/utils.c ****   case CHANNEL_SFX_2:
ARM GAS  /tmp/ccwJ62Vf.s 			page 15


 645              		.loc 1 33 5 is_stmt 1 view .LVU135
  35:src/pdantler/utils.c ****     break;
 646              		.loc 1 35 5 view .LVU136
 647              	@ src/pdantler/utils.c:35:     return game->sfx_2_player;
  35:src/pdantler/utils.c ****     break;
 648              		.loc 1 35 16 is_stmt 0 view .LVU137
 649 002a 436A     		ldr	r3, [r0, #36]	@ _14, game_7(D)->sfx_2_player
 650 002c EFE7     		b	.L41		@
 651              	.LBE28:
 652              	.LBE29:
 653              		.cfi_endproc
 654              	.LFE34:
 655              		.size	pdantler_channel_set_paused, .-pdantler_channel_set_paused
 656 002e 00BF     		.text
 657              	.Letext0:
 658              		.file 2 "/usr/lib/gcc/arm-none-eabi/10.3.1/include/stdint.h"
 659              		.file 3 "/usr/lib/gcc/arm-none-eabi/10.3.1/include/stddef.h"
 660              		.file 4 "/home/mchristensen/src/PlaydateSDK-2.2.0/C_API/pd_api/pd_api_gfx.h"
 661              		.file 5 "/home/mchristensen/src/PlaydateSDK-2.2.0/C_API/pd_api/pd_api_sys.h"
 662              		.file 6 "/home/mchristensen/src/PlaydateSDK-2.2.0/C_API/pd_api/pd_api_lua.h"
 663              		.file 7 "/home/mchristensen/src/PlaydateSDK-2.2.0/C_API/pd_api/pd_api_json.h"
 664              		.file 8 "/home/mchristensen/src/PlaydateSDK-2.2.0/C_API/pd_api/pd_api_file.h"
 665              		.file 9 "/home/mchristensen/src/PlaydateSDK-2.2.0/C_API/pd_api/pd_api_sprite.h"
 666              		.file 10 "/home/mchristensen/src/PlaydateSDK-2.2.0/C_API/pd_api/pd_api_sound.h"
 667              		.file 11 "/home/mchristensen/src/PlaydateSDK-2.2.0/C_API/pd_api/pd_api_display.h"
 668              		.file 12 "/home/mchristensen/src/PlaydateSDK-2.2.0/C_API/pd_api/pd_api_scoreboards.h"
 669              		.file 13 "/home/mchristensen/src/PlaydateSDK-2.2.0/C_API/pd_api.h"
 670              		.file 14 "src/pdantler/../common.h"